

./build/makewin.elf:     file format elf64-x86-64


Disassembly of section .text:

00000000bebe0000 <__cxa_atexit>:
    bebe0000:	55                   	push   %rbp
    bebe0001:	48 89 e5             	mov    %rsp,%rbp
    bebe0004:	48 83 ec 18          	sub    $0x18,%rsp
    bebe0008:	48 89 7d f8          	mov    %rdi,-0x8(%rbp)
    bebe000c:	48 89 75 f0          	mov    %rsi,-0x10(%rbp)
    bebe0010:	48 89 55 e8          	mov    %rdx,-0x18(%rbp)
    bebe0014:	48 b8 a0 64 be be 00 	movabs $0xbebe64a0,%rax
    bebe001b:	00 00 00 
    bebe001e:	8b 00                	mov    (%rax),%eax
    bebe0020:	83 f8 7f             	cmp    $0x7f,%eax
    bebe0023:	76 0a                	jbe    bebe002f <__cxa_atexit+0x2f>
    bebe0025:	b8 ff ff ff ff       	mov    $0xffffffff,%eax
    bebe002a:	e9 b5 00 00 00       	jmp    bebe00e4 <__cxa_atexit+0xe4>
    bebe002f:	48 b8 a0 64 be be 00 	movabs $0xbebe64a0,%rax
    bebe0036:	00 00 00 
    bebe0039:	8b 00                	mov    (%rax),%eax
    bebe003b:	48 ba a0 58 be be 00 	movabs $0xbebe58a0,%rdx
    bebe0042:	00 00 00 
    bebe0045:	89 c1                	mov    %eax,%ecx
    bebe0047:	48 89 c8             	mov    %rcx,%rax
    bebe004a:	48 01 c0             	add    %rax,%rax
    bebe004d:	48 01 c8             	add    %rcx,%rax
    bebe0050:	48 c1 e0 03          	shl    $0x3,%rax
    bebe0054:	48 01 c2             	add    %rax,%rdx
    bebe0057:	48 8b 45 f8          	mov    -0x8(%rbp),%rax
    bebe005b:	48 89 02             	mov    %rax,(%rdx)
    bebe005e:	48 b8 a0 64 be be 00 	movabs $0xbebe64a0,%rax
    bebe0065:	00 00 00 
    bebe0068:	8b 00                	mov    (%rax),%eax
    bebe006a:	48 ba a0 58 be be 00 	movabs $0xbebe58a0,%rdx
    bebe0071:	00 00 00 
    bebe0074:	89 c1                	mov    %eax,%ecx
    bebe0076:	48 89 c8             	mov    %rcx,%rax
    bebe0079:	48 01 c0             	add    %rax,%rax
    bebe007c:	48 01 c8             	add    %rcx,%rax
    bebe007f:	48 c1 e0 03          	shl    $0x3,%rax
    bebe0083:	48 01 d0             	add    %rdx,%rax
    bebe0086:	48 8d 50 08          	lea    0x8(%rax),%rdx
    bebe008a:	48 8b 45 f0          	mov    -0x10(%rbp),%rax
    bebe008e:	48 89 02             	mov    %rax,(%rdx)
    bebe0091:	48 b8 a0 64 be be 00 	movabs $0xbebe64a0,%rax
    bebe0098:	00 00 00 
    bebe009b:	8b 00                	mov    (%rax),%eax
    bebe009d:	48 ba a0 58 be be 00 	movabs $0xbebe58a0,%rdx
    bebe00a4:	00 00 00 
    bebe00a7:	89 c1                	mov    %eax,%ecx
    bebe00a9:	48 89 c8             	mov    %rcx,%rax
    bebe00ac:	48 01 c0             	add    %rax,%rax
    bebe00af:	48 01 c8             	add    %rcx,%rax
    bebe00b2:	48 c1 e0 03          	shl    $0x3,%rax
    bebe00b6:	48 01 d0             	add    %rdx,%rax
    bebe00b9:	48 8d 50 10          	lea    0x10(%rax),%rdx
    bebe00bd:	48 8b 45 e8          	mov    -0x18(%rbp),%rax
    bebe00c1:	48 89 02             	mov    %rax,(%rdx)
    bebe00c4:	48 b8 a0 64 be be 00 	movabs $0xbebe64a0,%rax
    bebe00cb:	00 00 00 
    bebe00ce:	8b 00                	mov    (%rax),%eax
    bebe00d0:	8d 50 01             	lea    0x1(%rax),%edx
    bebe00d3:	48 b8 a0 64 be be 00 	movabs $0xbebe64a0,%rax
    bebe00da:	00 00 00 
    bebe00dd:	89 10                	mov    %edx,(%rax)
    bebe00df:	b8 00 00 00 00       	mov    $0x0,%eax
    bebe00e4:	c9                   	leave
    bebe00e5:	c3                   	ret

00000000bebe00e6 <__cxa_finalize>:
    bebe00e6:	55                   	push   %rbp
    bebe00e7:	48 89 e5             	mov    %rsp,%rbp
    bebe00ea:	48 83 ec 20          	sub    $0x20,%rsp
    bebe00ee:	48 89 7d e8          	mov    %rdi,-0x18(%rbp)
    bebe00f2:	48 b8 a0 64 be be 00 	movabs $0xbebe64a0,%rax
    bebe00f9:	00 00 00 
    bebe00fc:	8b 00                	mov    (%rax),%eax
    bebe00fe:	89 45 fc             	mov    %eax,-0x4(%rbp)
    bebe0101:	48 83 7d e8 00       	cmpq   $0x0,-0x18(%rbp)
    bebe0106:	0f 85 1a 01 00 00    	jne    bebe0226 <__cxa_finalize+0x140>
    bebe010c:	eb 6e                	jmp    bebe017c <__cxa_finalize+0x96>
    bebe010e:	48 b9 a0 58 be be 00 	movabs $0xbebe58a0,%rcx
    bebe0115:	00 00 00 
    bebe0118:	8b 55 fc             	mov    -0x4(%rbp),%edx
    bebe011b:	48 89 d0             	mov    %rdx,%rax
    bebe011e:	48 01 c0             	add    %rax,%rax
    bebe0121:	48 01 d0             	add    %rdx,%rax
    bebe0124:	48 c1 e0 03          	shl    $0x3,%rax
    bebe0128:	48 01 c8             	add    %rcx,%rax
    bebe012b:	48 8b 00             	mov    (%rax),%rax
    bebe012e:	48 85 c0             	test   %rax,%rax
    bebe0131:	74 49                	je     bebe017c <__cxa_finalize+0x96>
    bebe0133:	48 b9 a0 58 be be 00 	movabs $0xbebe58a0,%rcx
    bebe013a:	00 00 00 
    bebe013d:	8b 55 fc             	mov    -0x4(%rbp),%edx
    bebe0140:	48 89 d0             	mov    %rdx,%rax
    bebe0143:	48 01 c0             	add    %rax,%rax
    bebe0146:	48 01 d0             	add    %rdx,%rax
    bebe0149:	48 c1 e0 03          	shl    $0x3,%rax
    bebe014d:	48 01 c8             	add    %rcx,%rax
    bebe0150:	48 8b 08             	mov    (%rax),%rcx
    bebe0153:	48 be a0 58 be be 00 	movabs $0xbebe58a0,%rsi
    bebe015a:	00 00 00 
    bebe015d:	8b 55 fc             	mov    -0x4(%rbp),%edx
    bebe0160:	48 89 d0             	mov    %rdx,%rax
    bebe0163:	48 01 c0             	add    %rax,%rax
    bebe0166:	48 01 d0             	add    %rdx,%rax
    bebe0169:	48 c1 e0 03          	shl    $0x3,%rax
    bebe016d:	48 01 f0             	add    %rsi,%rax
    bebe0170:	48 83 c0 08          	add    $0x8,%rax
    bebe0174:	48 8b 00             	mov    (%rax),%rax
    bebe0177:	48 89 c7             	mov    %rax,%rdi
    bebe017a:	ff d1                	call   *%rcx
    bebe017c:	8b 45 fc             	mov    -0x4(%rbp),%eax
    bebe017f:	8d 50 ff             	lea    -0x1(%rax),%edx
    bebe0182:	89 55 fc             	mov    %edx,-0x4(%rbp)
    bebe0185:	85 c0                	test   %eax,%eax
    bebe0187:	0f 95 c0             	setne  %al
    bebe018a:	84 c0                	test   %al,%al
    bebe018c:	75 80                	jne    bebe010e <__cxa_finalize+0x28>
    bebe018e:	e9 a9 00 00 00       	jmp    bebe023c <__cxa_finalize+0x156>
    bebe0193:	48 b9 a0 58 be be 00 	movabs $0xbebe58a0,%rcx
    bebe019a:	00 00 00 
    bebe019d:	8b 55 fc             	mov    -0x4(%rbp),%edx
    bebe01a0:	48 89 d0             	mov    %rdx,%rax
    bebe01a3:	48 01 c0             	add    %rax,%rax
    bebe01a6:	48 01 d0             	add    %rdx,%rax
    bebe01a9:	48 c1 e0 03          	shl    $0x3,%rax
    bebe01ad:	48 01 c8             	add    %rcx,%rax
    bebe01b0:	48 8b 00             	mov    (%rax),%rax
    bebe01b3:	48 39 45 e8          	cmp    %rax,-0x18(%rbp)
    bebe01b7:	75 6d                	jne    bebe0226 <__cxa_finalize+0x140>
    bebe01b9:	48 b9 a0 58 be be 00 	movabs $0xbebe58a0,%rcx
    bebe01c0:	00 00 00 
    bebe01c3:	8b 55 fc             	mov    -0x4(%rbp),%edx
    bebe01c6:	48 89 d0             	mov    %rdx,%rax
    bebe01c9:	48 01 c0             	add    %rax,%rax
    bebe01cc:	48 01 d0             	add    %rdx,%rax
    bebe01cf:	48 c1 e0 03          	shl    $0x3,%rax
    bebe01d3:	48 01 c8             	add    %rcx,%rax
    bebe01d6:	48 8b 08             	mov    (%rax),%rcx
    bebe01d9:	48 be a0 58 be be 00 	movabs $0xbebe58a0,%rsi
    bebe01e0:	00 00 00 
    bebe01e3:	8b 55 fc             	mov    -0x4(%rbp),%edx
    bebe01e6:	48 89 d0             	mov    %rdx,%rax
    bebe01e9:	48 01 c0             	add    %rax,%rax
    bebe01ec:	48 01 d0             	add    %rdx,%rax
    bebe01ef:	48 c1 e0 03          	shl    $0x3,%rax
    bebe01f3:	48 01 f0             	add    %rsi,%rax
    bebe01f6:	48 83 c0 08          	add    $0x8,%rax
    bebe01fa:	48 8b 00             	mov    (%rax),%rax
    bebe01fd:	48 89 c7             	mov    %rax,%rdi
    bebe0200:	ff d1                	call   *%rcx
    bebe0202:	48 b9 a0 58 be be 00 	movabs $0xbebe58a0,%rcx
    bebe0209:	00 00 00 
    bebe020c:	8b 55 fc             	mov    -0x4(%rbp),%edx
    bebe020f:	48 89 d0             	mov    %rdx,%rax
    bebe0212:	48 01 c0             	add    %rax,%rax
    bebe0215:	48 01 d0             	add    %rdx,%rax
    bebe0218:	48 c1 e0 03          	shl    $0x3,%rax
    bebe021c:	48 01 c8             	add    %rcx,%rax
    bebe021f:	48 c7 00 00 00 00 00 	movq   $0x0,(%rax)
    bebe0226:	8b 45 fc             	mov    -0x4(%rbp),%eax
    bebe0229:	8d 50 ff             	lea    -0x1(%rax),%edx
    bebe022c:	89 55 fc             	mov    %edx,-0x4(%rbp)
    bebe022f:	85 c0                	test   %eax,%eax
    bebe0231:	0f 95 c0             	setne  %al
    bebe0234:	84 c0                	test   %al,%al
    bebe0236:	0f 85 57 ff ff ff    	jne    bebe0193 <__cxa_finalize+0xad>
    bebe023c:	c9                   	leave
    bebe023d:	c3                   	ret

00000000bebe023e <__cxa_guard_acquire>:
    bebe023e:	55                   	push   %rbp
    bebe023f:	48 89 e5             	mov    %rsp,%rbp
    bebe0242:	48 83 ec 08          	sub    $0x8,%rsp
    bebe0246:	48 89 7d f8          	mov    %rdi,-0x8(%rbp)
    bebe024a:	48 8b 45 f8          	mov    -0x8(%rbp),%rax
    bebe024e:	0f b6 00             	movzbl (%rax),%eax
    bebe0251:	84 c0                	test   %al,%al
    bebe0253:	0f 94 c0             	sete   %al
    bebe0256:	0f b6 c0             	movzbl %al,%eax
    bebe0259:	c9                   	leave
    bebe025a:	c3                   	ret

00000000bebe025b <__cxa_guard_release>:
    bebe025b:	55                   	push   %rbp
    bebe025c:	48 89 e5             	mov    %rsp,%rbp
    bebe025f:	48 83 ec 08          	sub    $0x8,%rsp
    bebe0263:	48 89 7d f8          	mov    %rdi,-0x8(%rbp)
    bebe0267:	48 8b 45 f8          	mov    -0x8(%rbp),%rax
    bebe026b:	c6 00 01             	movb   $0x1,(%rax)
    bebe026e:	90                   	nop
    bebe026f:	c9                   	leave
    bebe0270:	c3                   	ret

00000000bebe0271 <__cxa_guard_abort>:
    bebe0271:	55                   	push   %rbp
    bebe0272:	48 89 e5             	mov    %rsp,%rbp
    bebe0275:	48 83 ec 08          	sub    $0x8,%rsp
    bebe0279:	48 89 7d f8          	mov    %rdi,-0x8(%rbp)
    bebe027d:	90                   	nop
    bebe027e:	c9                   	leave
    bebe027f:	c3                   	ret

00000000bebe0280 <__cxa_pure_virtual>:
    bebe0280:	55                   	push   %rbp
    bebe0281:	48 89 e5             	mov    %rsp,%rbp
    bebe0284:	90                   	nop
    bebe0285:	5d                   	pop    %rbp
    bebe0286:	c3                   	ret

00000000bebe0287 <ctor_init>:
    bebe0287:	55                   	push   %rbp
    bebe0288:	48 89 e5             	mov    %rsp,%rbp
    bebe028b:	48 83 ec 10          	sub    $0x10,%rsp
    bebe028f:	48 b8 70 58 be be 00 	movabs $0xbebe5870,%rax
    bebe0296:	00 00 00 
    bebe0299:	48 89 45 f8          	mov    %rax,-0x8(%rbp)
    bebe029d:	eb 0e                	jmp    bebe02ad <ctor_init+0x26>
    bebe029f:	48 8b 45 f8          	mov    -0x8(%rbp),%rax
    bebe02a3:	48 8b 00             	mov    (%rax),%rax
    bebe02a6:	ff d0                	call   *%rax
    bebe02a8:	48 83 45 f8 08       	addq   $0x8,-0x8(%rbp)
    bebe02ad:	48 b8 80 58 be be 00 	movabs $0xbebe5880,%rax
    bebe02b4:	00 00 00 
    bebe02b7:	48 39 45 f8          	cmp    %rax,-0x8(%rbp)
    bebe02bb:	72 e2                	jb     bebe029f <ctor_init+0x18>
    bebe02bd:	90                   	nop
    bebe02be:	90                   	nop
    bebe02bf:	c9                   	leave
    bebe02c0:	c3                   	ret

00000000bebe02c1 <_start>:
    bebe02c1:	55                   	push   %rbp
    bebe02c2:	48 89 e5             	mov    %rsp,%rbp
    bebe02c5:	48 83 ec 20          	sub    $0x20,%rsp
    bebe02c9:	89 7d ec             	mov    %edi,-0x14(%rbp)
    bebe02cc:	48 89 75 e0          	mov    %rsi,-0x20(%rbp)
    bebe02d0:	48 b8 87 02 be be 00 	movabs $0xbebe0287,%rax
    bebe02d7:	00 00 00 
    bebe02da:	ff d0                	call   *%rax
    bebe02dc:	48 b8 fe 3e be be 00 	movabs $0xbebe3efe,%rax
    bebe02e3:	00 00 00 
    bebe02e6:	ff d0                	call   *%rax
    bebe02e8:	48 8b 55 e0          	mov    -0x20(%rbp),%rdx
    bebe02ec:	8b 45 ec             	mov    -0x14(%rbp),%eax
    bebe02ef:	48 89 d6             	mov    %rdx,%rsi
    bebe02f2:	89 c7                	mov    %eax,%edi
    bebe02f4:	48 b8 08 03 be be 00 	movabs $0xbebe0308,%rax
    bebe02fb:	00 00 00 
    bebe02fe:	ff d0                	call   *%rax
    bebe0300:	89 45 fc             	mov    %eax,-0x4(%rbp)
    bebe0303:	8b 45 fc             	mov    -0x4(%rbp),%eax
    bebe0306:	c9                   	leave
    bebe0307:	c3                   	ret

00000000bebe0308 <main>:
    bebe0308:	55                   	push   %rbp
    bebe0309:	48 89 e5             	mov    %rsp,%rbp
    bebe030c:	48 81 ec 90 00 00 00 	sub    $0x90,%rsp
    bebe0313:	89 bd 7c ff ff ff    	mov    %edi,-0x84(%rbp)
    bebe0319:	48 89 b5 70 ff ff ff 	mov    %rsi,-0x90(%rbp)
    bebe0320:	48 8d 55 a0          	lea    -0x60(%rbp),%rdx
    bebe0324:	b8 00 00 00 00       	mov    $0x0,%eax
    bebe0329:	b9 0c 00 00 00       	mov    $0xc,%ecx
    bebe032e:	48 89 d7             	mov    %rdx,%rdi
    bebe0331:	f3 48 ab             	rep stos %rax,%es:(%rdi)
    bebe0334:	c7 45 a0 07 00 00 00 	movl   $0x7,-0x60(%rbp)
    bebe033b:	48 8d 45 a0          	lea    -0x60(%rbp),%rax
    bebe033f:	48 89 c7             	mov    %rax,%rdi
    bebe0342:	48 b8 00 37 be be 00 	movabs $0xbebe3700,%rax
    bebe0349:	00 00 00 
    bebe034c:	ff d0                	call   *%rax
    bebe034e:	48 8b 4d f8          	mov    -0x8(%rbp),%rcx
    bebe0352:	48 8d 45 80          	lea    -0x80(%rbp),%rax
    bebe0356:	ba 20 00 00 00       	mov    $0x20,%edx
    bebe035b:	48 89 ce             	mov    %rcx,%rsi
    bebe035e:	48 89 c7             	mov    %rax,%rdi
    bebe0361:	48 b8 25 51 be be 00 	movabs $0xbebe5125,%rax
    bebe0368:	00 00 00 
    bebe036b:	ff d0                	call   *%rax
    bebe036d:	eb 35                	jmp    bebe03a4 <main+0x9c>
    bebe036f:	48 8b 45 88          	mov    -0x78(%rbp),%rax
    bebe0373:	8b 00                	mov    (%rax),%eax
    bebe0375:	89 c6                	mov    %eax,%esi
    bebe0377:	48 b8 60 55 be be 00 	movabs $0xbebe5560,%rax
    bebe037e:	00 00 00 
    bebe0381:	48 89 c7             	mov    %rax,%rdi
    bebe0384:	b8 00 00 00 00       	mov    $0x0,%eax
    bebe0389:	48 ba cf 49 be be 00 	movabs $0xbebe49cf,%rdx
    bebe0390:	00 00 00 
    bebe0393:	ff d2                	call   *%rdx
    bebe0395:	48 8b 45 88          	mov    -0x78(%rbp),%rax
    bebe0399:	8b 10                	mov    (%rax),%edx
    bebe039b:	48 8b 45 88          	mov    -0x78(%rbp),%rax
    bebe039f:	83 c2 01             	add    $0x1,%edx
    bebe03a2:	89 10                	mov    %edx,(%rax)
    bebe03a4:	48 8b 45 88          	mov    -0x78(%rbp),%rax
    bebe03a8:	8b 00                	mov    (%rax),%eax
    bebe03aa:	3d f9 00 00 00       	cmp    $0xf9,%eax
    bebe03af:	7e be                	jle    bebe036f <main+0x67>
    bebe03b1:	b8 d2 04 00 00       	mov    $0x4d2,%eax
    bebe03b6:	c9                   	leave
    bebe03b7:	c3                   	ret

00000000bebe03b8 <_ZN3idkL12nearest_pow2Em>:
    bebe03b8:	55                   	push   %rbp
    bebe03b9:	48 89 e5             	mov    %rsp,%rbp
    bebe03bc:	48 83 ec 08          	sub    $0x8,%rsp
    bebe03c0:	48 89 7d f8          	mov    %rdi,-0x8(%rbp)
    bebe03c4:	48 83 6d f8 01       	subq   $0x1,-0x8(%rbp)
    bebe03c9:	48 8b 45 f8          	mov    -0x8(%rbp),%rax
    bebe03cd:	48 d1 e8             	shr    $1,%rax
    bebe03d0:	48 09 45 f8          	or     %rax,-0x8(%rbp)
    bebe03d4:	48 8b 45 f8          	mov    -0x8(%rbp),%rax
    bebe03d8:	48 c1 e8 02          	shr    $0x2,%rax
    bebe03dc:	48 09 45 f8          	or     %rax,-0x8(%rbp)
    bebe03e0:	48 8b 45 f8          	mov    -0x8(%rbp),%rax
    bebe03e4:	48 c1 e8 04          	shr    $0x4,%rax
    bebe03e8:	48 09 45 f8          	or     %rax,-0x8(%rbp)
    bebe03ec:	48 8b 45 f8          	mov    -0x8(%rbp),%rax
    bebe03f0:	48 c1 e8 08          	shr    $0x8,%rax
    bebe03f4:	48 09 45 f8          	or     %rax,-0x8(%rbp)
    bebe03f8:	48 8b 45 f8          	mov    -0x8(%rbp),%rax
    bebe03fc:	48 c1 e8 10          	shr    $0x10,%rax
    bebe0400:	48 09 45 f8          	or     %rax,-0x8(%rbp)
    bebe0404:	48 8b 45 f8          	mov    -0x8(%rbp),%rax
    bebe0408:	48 c1 e8 20          	shr    $0x20,%rax
    bebe040c:	48 09 45 f8          	or     %rax,-0x8(%rbp)
    bebe0410:	48 83 45 f8 01       	addq   $0x1,-0x8(%rbp)
    bebe0415:	48 8b 45 f8          	mov    -0x8(%rbp),%rax
    bebe0419:	c9                   	leave
    bebe041a:	c3                   	ret

00000000bebe041b <_ZN3idkL9bit_indexEj>:
    bebe041b:	55                   	push   %rbp
    bebe041c:	48 89 e5             	mov    %rsp,%rbp
    bebe041f:	48 83 ec 08          	sub    $0x8,%rsp
    bebe0423:	89 7d fc             	mov    %edi,-0x4(%rbp)
    bebe0426:	83 6d fc 01          	subl   $0x1,-0x4(%rbp)
    bebe042a:	8b 45 fc             	mov    -0x4(%rbp),%eax
    bebe042d:	d1 e8                	shr    $1,%eax
    bebe042f:	25 55 55 55 55       	and    $0x55555555,%eax
    bebe0434:	29 45 fc             	sub    %eax,-0x4(%rbp)
    bebe0437:	8b 45 fc             	mov    -0x4(%rbp),%eax
    bebe043a:	25 33 33 33 33       	and    $0x33333333,%eax
    bebe043f:	89 c2                	mov    %eax,%edx
    bebe0441:	8b 45 fc             	mov    -0x4(%rbp),%eax
    bebe0444:	c1 e8 02             	shr    $0x2,%eax
    bebe0447:	25 33 33 33 33       	and    $0x33333333,%eax
    bebe044c:	01 d0                	add    %edx,%eax
    bebe044e:	89 45 fc             	mov    %eax,-0x4(%rbp)
    bebe0451:	8b 45 fc             	mov    -0x4(%rbp),%eax
    bebe0454:	c1 e8 04             	shr    $0x4,%eax
    bebe0457:	89 c2                	mov    %eax,%edx
    bebe0459:	8b 45 fc             	mov    -0x4(%rbp),%eax
    bebe045c:	01 d0                	add    %edx,%eax
    bebe045e:	25 0f 0f 0f 0f       	and    $0xf0f0f0f,%eax
    bebe0463:	69 c0 01 01 01 01    	imul   $0x1010101,%eax,%eax
    bebe0469:	c1 e8 18             	shr    $0x18,%eax
    bebe046c:	c9                   	leave
    bebe046d:	c3                   	ret

00000000bebe046e <_ZN3idk15buddy_allocatorC1Ev>:
    bebe046e:	55                   	push   %rbp
    bebe046f:	48 89 e5             	mov    %rsp,%rbp
    bebe0472:	48 83 ec 08          	sub    $0x8,%rsp
    bebe0476:	48 89 7d f8          	mov    %rdi,-0x8(%rbp)
    bebe047a:	48 8b 45 f8          	mov    -0x8(%rbp),%rax
    bebe047e:	48 c7 00 00 00 00 00 	movq   $0x0,(%rax)
    bebe0485:	48 8b 45 f8          	mov    -0x8(%rbp),%rax
    bebe0489:	48 c7 40 08 00 00 00 	movq   $0x0,0x8(%rax)
    bebe0490:	00 
    bebe0491:	48 8b 45 f8          	mov    -0x8(%rbp),%rax
    bebe0495:	48 c7 40 10 00 00 00 	movq   $0x0,0x10(%rax)
    bebe049c:	00 
    bebe049d:	90                   	nop
    bebe049e:	c9                   	leave
    bebe049f:	c3                   	ret

00000000bebe04a0 <_ZN3idk15buddy_allocatorC1ERNS_16linear_allocatorE>:
    bebe04a0:	55                   	push   %rbp
    bebe04a1:	48 89 e5             	mov    %rsp,%rbp
    bebe04a4:	48 81 ec 70 01 00 00 	sub    $0x170,%rsp
    bebe04ab:	48 89 bd 98 fe ff ff 	mov    %rdi,-0x168(%rbp)
    bebe04b2:	48 89 b5 90 fe ff ff 	mov    %rsi,-0x170(%rbp)
    bebe04b9:	48 8d 45 9f          	lea    -0x61(%rbp),%rax
    bebe04bd:	48 ba 88 55 be be 00 	movabs $0xbebe5588,%rdx
    bebe04c4:	00 00 00 
    bebe04c7:	48 89 d6             	mov    %rdx,%rsi
    bebe04ca:	48 89 c7             	mov    %rax,%rdi
    bebe04cd:	48 b8 12 11 be be 00 	movabs $0xbebe1112,%rax
    bebe04d4:	00 00 00 
    bebe04d7:	ff d0                	call   *%rax
    bebe04d9:	48 c7 85 a0 fe ff ff 	movq   $0x0,-0x160(%rbp)
    bebe04e0:	00 00 00 00 
    bebe04e4:	48 c7 85 a8 fe ff ff 	movq   $0x0,-0x158(%rbp)
    bebe04eb:	00 00 00 00 
    bebe04ef:	48 c7 85 b0 fe ff ff 	movq   $0x0,-0x150(%rbp)
    bebe04f6:	00 00 00 00 
    bebe04fa:	48 c7 85 b8 fe ff ff 	movq   $0x0,-0x148(%rbp)
    bebe0501:	00 00 00 00 
    bebe0505:	48 c7 85 c0 fe ff ff 	movq   $0x0,-0x140(%rbp)
    bebe050c:	00 00 00 00 
    bebe0510:	48 c7 85 c8 fe ff ff 	movq   $0x0,-0x138(%rbp)
    bebe0517:	00 00 00 00 
    bebe051b:	48 c7 85 d0 fe ff ff 	movq   $0x100,-0x130(%rbp)
    bebe0522:	00 01 00 00 
    bebe0526:	48 c7 85 d8 fe ff ff 	movq   $0x100,-0x128(%rbp)
    bebe052d:	00 01 00 00 
    bebe0531:	48 c7 85 e0 fe ff ff 	movq   $0x100,-0x120(%rbp)
    bebe0538:	00 01 00 00 
    bebe053c:	48 c7 85 e8 fe ff ff 	movq   $0x100,-0x118(%rbp)
    bebe0543:	00 01 00 00 
    bebe0547:	48 c7 85 f0 fe ff ff 	movq   $0x100,-0x110(%rbp)
    bebe054e:	00 01 00 00 
    bebe0552:	48 c7 85 f8 fe ff ff 	movq   $0x100,-0x108(%rbp)
    bebe0559:	00 01 00 00 
    bebe055d:	48 c7 85 00 ff ff ff 	movq   $0x40,-0x100(%rbp)
    bebe0564:	40 00 00 00 
    bebe0568:	48 c7 85 08 ff ff ff 	movq   $0x20,-0xf8(%rbp)
    bebe056f:	20 00 00 00 
    bebe0573:	48 c7 85 10 ff ff ff 	movq   $0x20,-0xf0(%rbp)
    bebe057a:	20 00 00 00 
    bebe057e:	48 c7 85 18 ff ff ff 	movq   $0x10,-0xe8(%rbp)
    bebe0585:	10 00 00 00 
    bebe0589:	48 c7 85 20 ff ff ff 	movq   $0x10,-0xe0(%rbp)
    bebe0590:	10 00 00 00 
    bebe0594:	48 c7 85 28 ff ff ff 	movq   $0x10,-0xd8(%rbp)
    bebe059b:	10 00 00 00 
    bebe059f:	48 c7 85 30 ff ff ff 	movq   $0x20,-0xd0(%rbp)
    bebe05a6:	20 00 00 00 
    bebe05aa:	48 c7 85 38 ff ff ff 	movq   $0x20,-0xc8(%rbp)
    bebe05b1:	20 00 00 00 
    bebe05b5:	48 c7 85 40 ff ff ff 	movq   $0x10,-0xc0(%rbp)
    bebe05bc:	10 00 00 00 
    bebe05c0:	48 c7 85 48 ff ff ff 	movq   $0x10,-0xb8(%rbp)
    bebe05c7:	10 00 00 00 
    bebe05cb:	48 c7 85 50 ff ff ff 	movq   $0x10,-0xb0(%rbp)
    bebe05d2:	10 00 00 00 
    bebe05d6:	48 c7 85 58 ff ff ff 	movq   $0x10,-0xa8(%rbp)
    bebe05dd:	10 00 00 00 
    bebe05e1:	48 c7 85 60 ff ff ff 	movq   $0x4,-0xa0(%rbp)
    bebe05e8:	04 00 00 00 
    bebe05ec:	48 c7 85 68 ff ff ff 	movq   $0x4,-0x98(%rbp)
    bebe05f3:	04 00 00 00 
    bebe05f7:	48 c7 85 70 ff ff ff 	movq   $0x2,-0x90(%rbp)
    bebe05fe:	02 00 00 00 
    bebe0602:	48 c7 85 78 ff ff ff 	movq   $0x2,-0x88(%rbp)
    bebe0609:	02 00 00 00 
    bebe060d:	48 c7 45 80 01 00 00 	movq   $0x1,-0x80(%rbp)
    bebe0614:	00 
    bebe0615:	48 c7 45 88 00 00 00 	movq   $0x0,-0x78(%rbp)
    bebe061c:	00 
    bebe061d:	48 c7 45 f8 00 00 00 	movq   $0x0,-0x8(%rbp)
    bebe0624:	00 
    bebe0625:	48 c7 45 f0 00 00 00 	movq   $0x0,-0x10(%rbp)
    bebe062c:	00 
    bebe062d:	eb 2b                	jmp    bebe065a <_ZN3idk15buddy_allocatorC1ERNS_16linear_allocatorE+0x1ba>
    bebe062f:	48 8b 45 f0          	mov    -0x10(%rbp),%rax
    bebe0633:	ba 01 00 00 00       	mov    $0x1,%edx
    bebe0638:	89 c1                	mov    %eax,%ecx
    bebe063a:	d3 e2                	shl    %cl,%edx
    bebe063c:	89 d0                	mov    %edx,%eax
    bebe063e:	48 63 d0             	movslq %eax,%rdx
    bebe0641:	48 8b 45 f0          	mov    -0x10(%rbp),%rax
    bebe0645:	48 8b 84 c5 a0 fe ff 	mov    -0x160(%rbp,%rax,8),%rax
    bebe064c:	ff 
    bebe064d:	48 0f af c2          	imul   %rdx,%rax
    bebe0651:	48 01 45 f8          	add    %rax,-0x8(%rbp)
    bebe0655:	48 83 45 f0 01       	addq   $0x1,-0x10(%rbp)
    bebe065a:	48 83 7d f0 1d       	cmpq   $0x1d,-0x10(%rbp)
    bebe065f:	76 ce                	jbe    bebe062f <_ZN3idk15buddy_allocatorC1ERNS_16linear_allocatorE+0x18f>
    bebe0661:	48 8b 85 90 fe ff ff 	mov    -0x170(%rbp),%rax
    bebe0668:	be 01 00 00 00       	mov    $0x1,%esi
    bebe066d:	48 89 c7             	mov    %rax,%rdi
    bebe0670:	48 b8 f8 0b be be 00 	movabs $0xbebe0bf8,%rax
    bebe0677:	00 00 00 
    bebe067a:	ff d0                	call   *%rax
    bebe067c:	48 8b 95 98 fe ff ff 	mov    -0x168(%rbp),%rdx
    bebe0683:	48 89 02             	mov    %rax,(%rdx)
    bebe0686:	48 8b 55 f8          	mov    -0x8(%rbp),%rdx
    bebe068a:	48 8b 85 90 fe ff ff 	mov    -0x170(%rbp),%rax
    bebe0691:	48 89 d6             	mov    %rdx,%rsi
    bebe0694:	48 89 c7             	mov    %rax,%rdi
    bebe0697:	48 b8 30 0c be be 00 	movabs $0xbebe0c30,%rax
    bebe069e:	00 00 00 
    bebe06a1:	ff d0                	call   *%rax
    bebe06a3:	48 8b 95 98 fe ff ff 	mov    -0x168(%rbp),%rdx
    bebe06aa:	48 89 42 08          	mov    %rax,0x8(%rdx)
    bebe06ae:	48 8b 85 98 fe ff ff 	mov    -0x168(%rbp),%rax
    bebe06b5:	48 8b 50 08          	mov    0x8(%rax),%rdx
    bebe06b9:	48 8b 45 f8          	mov    -0x8(%rbp),%rax
    bebe06bd:	48 01 c2             	add    %rax,%rdx
    bebe06c0:	48 8b 85 98 fe ff ff 	mov    -0x168(%rbp),%rax
    bebe06c7:	48 89 50 10          	mov    %rdx,0x10(%rax)
    bebe06cb:	48 8b 85 98 fe ff ff 	mov    -0x168(%rbp),%rax
    bebe06d2:	48 8b 40 08          	mov    0x8(%rax),%rax
    bebe06d6:	48 89 45 90          	mov    %rax,-0x70(%rbp)
    bebe06da:	48 c7 45 e8 07 00 00 	movq   $0x7,-0x18(%rbp)
    bebe06e1:	00 
    bebe06e2:	e9 02 01 00 00       	jmp    bebe07e9 <_ZN3idk15buddy_allocatorC1ERNS_16linear_allocatorE+0x349>
    bebe06e7:	48 8b 45 e8          	mov    -0x18(%rbp),%rax
    bebe06eb:	ba 01 00 00 00       	mov    $0x1,%edx
    bebe06f0:	89 c1                	mov    %eax,%ecx
    bebe06f2:	d3 e2                	shl    %cl,%edx
    bebe06f4:	89 d0                	mov    %edx,%eax
    bebe06f6:	48 98                	cltq
    bebe06f8:	48 89 45 d8          	mov    %rax,-0x28(%rbp)
    bebe06fc:	48 8b 45 e8          	mov    -0x18(%rbp),%rax
    bebe0700:	48 8b 84 c5 a0 fe ff 	mov    -0x160(%rbp,%rax,8),%rax
    bebe0707:	ff 
    bebe0708:	48 89 45 d0          	mov    %rax,-0x30(%rbp)
    bebe070c:	48 8b 85 98 fe ff ff 	mov    -0x168(%rbp),%rax
    bebe0713:	48 8b 00             	mov    (%rax),%rax
    bebe0716:	48 8b 55 e8          	mov    -0x18(%rbp),%rdx
    bebe071a:	89 d6                	mov    %edx,%esi
    bebe071c:	48 89 c7             	mov    %rax,%rdi
    bebe071f:	48 b8 62 0c be be 00 	movabs $0xbebe0c62,%rax
    bebe0726:	00 00 00 
    bebe0729:	ff d0                	call   *%rax
    bebe072b:	48 89 45 c8          	mov    %rax,-0x38(%rbp)
    bebe072f:	48 8b 55 d0          	mov    -0x30(%rbp),%rdx
    bebe0733:	48 8b 85 90 fe ff ff 	mov    -0x170(%rbp),%rax
    bebe073a:	48 89 d6             	mov    %rdx,%rsi
    bebe073d:	48 89 c7             	mov    %rax,%rdi
    bebe0740:	48 b8 8a 0c be be 00 	movabs $0xbebe0c8a,%rax
    bebe0747:	00 00 00 
    bebe074a:	ff d0                	call   *%rax
    bebe074c:	48 89 c2             	mov    %rax,%rdx
    bebe074f:	48 8b 4d d0          	mov    -0x30(%rbp),%rcx
    bebe0753:	48 8d 45 a0          	lea    -0x60(%rbp),%rax
    bebe0757:	48 89 ce             	mov    %rcx,%rsi
    bebe075a:	48 89 c7             	mov    %rax,%rdi
    bebe075d:	48 b8 c4 0c be be 00 	movabs $0xbebe0cc4,%rax
    bebe0764:	00 00 00 
    bebe0767:	ff d0                	call   *%rax
    bebe0769:	48 8d 75 a0          	lea    -0x60(%rbp),%rsi
    bebe076d:	48 8b 4d c8          	mov    -0x38(%rbp),%rcx
    bebe0771:	48 8b 06             	mov    (%rsi),%rax
    bebe0774:	48 8b 56 08          	mov    0x8(%rsi),%rdx
    bebe0778:	48 89 01             	mov    %rax,(%rcx)
    bebe077b:	48 89 51 08          	mov    %rdx,0x8(%rcx)
    bebe077f:	48 8b 46 10          	mov    0x10(%rsi),%rax
    bebe0783:	48 8b 56 18          	mov    0x18(%rsi),%rdx
    bebe0787:	48 89 41 10          	mov    %rax,0x10(%rcx)
    bebe078b:	48 89 51 18          	mov    %rdx,0x18(%rcx)
    bebe078f:	48 8d 45 a0          	lea    -0x60(%rbp),%rax
    bebe0793:	48 89 c7             	mov    %rax,%rdi
    bebe0796:	48 b8 1a 0d be be 00 	movabs $0xbebe0d1a,%rax
    bebe079d:	00 00 00 
    bebe07a0:	ff d0                	call   *%rax
    bebe07a2:	48 c7 45 e0 00 00 00 	movq   $0x0,-0x20(%rbp)
    bebe07a9:	00 
    bebe07aa:	eb 2e                	jmp    bebe07da <_ZN3idk15buddy_allocatorC1ERNS_16linear_allocatorE+0x33a>
    bebe07ac:	48 8d 55 90          	lea    -0x70(%rbp),%rdx
    bebe07b0:	48 8b 45 c8          	mov    -0x38(%rbp),%rax
    bebe07b4:	48 89 d6             	mov    %rdx,%rsi
    bebe07b7:	48 89 c7             	mov    %rax,%rdi
    bebe07ba:	48 b8 58 0d be be 00 	movabs $0xbebe0d58,%rax
    bebe07c1:	00 00 00 
    bebe07c4:	ff d0                	call   *%rax
    bebe07c6:	48 8b 55 90          	mov    -0x70(%rbp),%rdx
    bebe07ca:	48 8b 45 d8          	mov    -0x28(%rbp),%rax
    bebe07ce:	48 01 d0             	add    %rdx,%rax
    bebe07d1:	48 89 45 90          	mov    %rax,-0x70(%rbp)
    bebe07d5:	48 83 45 e0 01       	addq   $0x1,-0x20(%rbp)
    bebe07da:	48 8b 45 e0          	mov    -0x20(%rbp),%rax
    bebe07de:	48 3b 45 d0          	cmp    -0x30(%rbp),%rax
    bebe07e2:	72 c8                	jb     bebe07ac <_ZN3idk15buddy_allocatorC1ERNS_16linear_allocatorE+0x30c>
    bebe07e4:	48 83 45 e8 01       	addq   $0x1,-0x18(%rbp)
    bebe07e9:	48 83 7d e8 1c       	cmpq   $0x1c,-0x18(%rbp)
    bebe07ee:	0f 86 f3 fe ff ff    	jbe    bebe06e7 <_ZN3idk15buddy_allocatorC1ERNS_16linear_allocatorE+0x247>
    bebe07f4:	48 8b 55 f8          	mov    -0x8(%rbp),%rdx
    bebe07f8:	48 8d 45 9f          	lea    -0x61(%rbp),%rax
    bebe07fc:	48 b9 a9 55 be be 00 	movabs $0xbebe55a9,%rcx
    bebe0803:	00 00 00 
    bebe0806:	48 89 ce             	mov    %rcx,%rsi
    bebe0809:	48 89 c7             	mov    %rax,%rdi
    bebe080c:	b8 00 00 00 00       	mov    $0x0,%eax
    bebe0811:	48 b9 fa 12 be be 00 	movabs $0xbebe12fa,%rcx
    bebe0818:	00 00 00 
    bebe081b:	ff d1                	call   *%rcx
    bebe081d:	48 8b 45 f8          	mov    -0x8(%rbp),%rax
    bebe0821:	48 c1 e8 0a          	shr    $0xa,%rax
    bebe0825:	48 89 c2             	mov    %rax,%rdx
    bebe0828:	48 8d 45 9f          	lea    -0x61(%rbp),%rax
    bebe082c:	48 b9 b6 55 be be 00 	movabs $0xbebe55b6,%rcx
    bebe0833:	00 00 00 
    bebe0836:	48 89 ce             	mov    %rcx,%rsi
    bebe0839:	48 89 c7             	mov    %rax,%rdi
    bebe083c:	b8 00 00 00 00       	mov    $0x0,%eax
    bebe0841:	48 b9 fa 12 be be 00 	movabs $0xbebe12fa,%rcx
    bebe0848:	00 00 00 
    bebe084b:	ff d1                	call   *%rcx
    bebe084d:	48 8b 45 f8          	mov    -0x8(%rbp),%rax
    bebe0851:	48 c1 e8 14          	shr    $0x14,%rax
    bebe0855:	48 89 c2             	mov    %rax,%rdx
    bebe0858:	48 8d 45 9f          	lea    -0x61(%rbp),%rax
    bebe085c:	48 b9 c4 55 be be 00 	movabs $0xbebe55c4,%rcx
    bebe0863:	00 00 00 
    bebe0866:	48 89 ce             	mov    %rcx,%rsi
    bebe0869:	48 89 c7             	mov    %rax,%rdi
    bebe086c:	b8 00 00 00 00       	mov    $0x0,%eax
    bebe0871:	48 b9 fa 12 be be 00 	movabs $0xbebe12fa,%rcx
    bebe0878:	00 00 00 
    bebe087b:	ff d1                	call   *%rcx
    bebe087d:	48 8b 85 98 fe ff ff 	mov    -0x168(%rbp),%rax
    bebe0884:	48 8b 50 08          	mov    0x8(%rax),%rdx
    bebe0888:	48 8d 45 9f          	lea    -0x61(%rbp),%rax
    bebe088c:	48 b9 d2 55 be be 00 	movabs $0xbebe55d2,%rcx
    bebe0893:	00 00 00 
    bebe0896:	48 89 ce             	mov    %rcx,%rsi
    bebe0899:	48 89 c7             	mov    %rax,%rdi
    bebe089c:	b8 00 00 00 00       	mov    $0x0,%eax
    bebe08a1:	48 b9 fa 12 be be 00 	movabs $0xbebe12fa,%rcx
    bebe08a8:	00 00 00 
    bebe08ab:	ff d1                	call   *%rcx
    bebe08ad:	48 8b 85 98 fe ff ff 	mov    -0x168(%rbp),%rax
    bebe08b4:	48 8b 50 10          	mov    0x10(%rax),%rdx
    bebe08b8:	48 8d 45 9f          	lea    -0x61(%rbp),%rax
    bebe08bc:	48 b9 e0 55 be be 00 	movabs $0xbebe55e0,%rcx
    bebe08c3:	00 00 00 
    bebe08c6:	48 89 ce             	mov    %rcx,%rsi
    bebe08c9:	48 89 c7             	mov    %rax,%rdi
    bebe08cc:	b8 00 00 00 00       	mov    $0x0,%eax
    bebe08d1:	48 b9 fa 12 be be 00 	movabs $0xbebe12fa,%rcx
    bebe08d8:	00 00 00 
    bebe08db:	ff d1                	call   *%rcx
    bebe08dd:	48 8b 85 98 fe ff ff 	mov    -0x168(%rbp),%rax
    bebe08e4:	48 8b 50 10          	mov    0x10(%rax),%rdx
    bebe08e8:	48 8b 85 98 fe ff ff 	mov    -0x168(%rbp),%rax
    bebe08ef:	48 8b 40 08          	mov    0x8(%rax),%rax
    bebe08f3:	48 29 c2             	sub    %rax,%rdx
    bebe08f6:	48 8d 45 9f          	lea    -0x61(%rbp),%rax
    bebe08fa:	48 b9 ee 55 be be 00 	movabs $0xbebe55ee,%rcx
    bebe0901:	00 00 00 
    bebe0904:	48 89 ce             	mov    %rcx,%rsi
    bebe0907:	48 89 c7             	mov    %rax,%rdi
    bebe090a:	b8 00 00 00 00       	mov    $0x0,%eax
    bebe090f:	48 b9 fa 12 be be 00 	movabs $0xbebe12fa,%rcx
    bebe0916:	00 00 00 
    bebe0919:	ff d1                	call   *%rcx
    bebe091b:	48 8b 55 90          	mov    -0x70(%rbp),%rdx
    bebe091f:	48 8d 45 9f          	lea    -0x61(%rbp),%rax
    bebe0923:	48 b9 fa 55 be be 00 	movabs $0xbebe55fa,%rcx
    bebe092a:	00 00 00 
    bebe092d:	48 89 ce             	mov    %rcx,%rsi
    bebe0930:	48 89 c7             	mov    %rax,%rdi
    bebe0933:	b8 00 00 00 00       	mov    $0x0,%eax
    bebe0938:	48 b9 fa 12 be be 00 	movabs $0xbebe12fa,%rcx
    bebe093f:	00 00 00 
    bebe0942:	ff d1                	call   *%rcx
    bebe0944:	48 8d 45 9f          	lea    -0x61(%rbp),%rax
    bebe0948:	48 89 c7             	mov    %rax,%rdi
    bebe094b:	48 b8 8e 11 be be 00 	movabs $0xbebe118e,%rax
    bebe0952:	00 00 00 
    bebe0955:	ff d0                	call   *%rax
    bebe0957:	90                   	nop
    bebe0958:	c9                   	leave
    bebe0959:	c3                   	ret

00000000bebe095a <_ZN3idk15buddy_allocator7_getidxEm>:
    bebe095a:	55                   	push   %rbp
    bebe095b:	48 89 e5             	mov    %rsp,%rbp
    bebe095e:	48 83 ec 30          	sub    $0x30,%rsp
    bebe0962:	48 89 7d d8          	mov    %rdi,-0x28(%rbp)
    bebe0966:	48 89 75 d0          	mov    %rsi,-0x30(%rbp)
    bebe096a:	48 8b 45 d0          	mov    -0x30(%rbp),%rax
    bebe096e:	48 89 c7             	mov    %rax,%rdi
    bebe0971:	48 b8 b8 03 be be 00 	movabs $0xbebe03b8,%rax
    bebe0978:	00 00 00 
    bebe097b:	ff d0                	call   *%rax
    bebe097d:	89 c7                	mov    %eax,%edi
    bebe097f:	48 b8 1b 04 be be 00 	movabs $0xbebe041b,%rax
    bebe0986:	00 00 00 
    bebe0989:	ff d0                	call   *%rax
    bebe098b:	83 c0 01             	add    $0x1,%eax
    bebe098e:	89 45 ec             	mov    %eax,-0x14(%rbp)
    bebe0991:	c7 45 f0 1c 00 00 00 	movl   $0x1c,-0x10(%rbp)
    bebe0998:	c7 45 f4 07 00 00 00 	movl   $0x7,-0xc(%rbp)
    bebe099f:	48 8d 55 f0          	lea    -0x10(%rbp),%rdx
    bebe09a3:	48 8d 4d f4          	lea    -0xc(%rbp),%rcx
    bebe09a7:	48 8d 45 ec          	lea    -0x14(%rbp),%rax
    bebe09ab:	48 89 ce             	mov    %rcx,%rsi
    bebe09ae:	48 89 c7             	mov    %rax,%rdi
    bebe09b1:	48 b8 91 0d be be 00 	movabs $0xbebe0d91,%rax
    bebe09b8:	00 00 00 
    bebe09bb:	ff d0                	call   *%rax
    bebe09bd:	8b 00                	mov    (%rax),%eax
    bebe09bf:	89 45 ec             	mov    %eax,-0x14(%rbp)
    bebe09c2:	48 8b 45 d8          	mov    -0x28(%rbp),%rax
    bebe09c6:	48 8b 00             	mov    (%rax),%rax
    bebe09c9:	8b 55 ec             	mov    -0x14(%rbp),%edx
    bebe09cc:	89 d6                	mov    %edx,%esi
    bebe09ce:	48 89 c7             	mov    %rax,%rdi
    bebe09d1:	48 b8 62 0c be be 00 	movabs $0xbebe0c62,%rax
    bebe09d8:	00 00 00 
    bebe09db:	ff d0                	call   *%rax
    bebe09dd:	48 89 45 f8          	mov    %rax,-0x8(%rbp)
    bebe09e1:	eb 28                	jmp    bebe0a0b <_ZN3idk15buddy_allocator7_getidxEm+0xb1>
    bebe09e3:	8b 45 ec             	mov    -0x14(%rbp),%eax
    bebe09e6:	83 c0 01             	add    $0x1,%eax
    bebe09e9:	89 45 ec             	mov    %eax,-0x14(%rbp)
    bebe09ec:	48 8b 45 d8          	mov    -0x28(%rbp),%rax
    bebe09f0:	48 8b 00             	mov    (%rax),%rax
    bebe09f3:	8b 55 ec             	mov    -0x14(%rbp),%edx
    bebe09f6:	89 d6                	mov    %edx,%esi
    bebe09f8:	48 89 c7             	mov    %rax,%rdi
    bebe09fb:	48 b8 62 0c be be 00 	movabs $0xbebe0c62,%rax
    bebe0a02:	00 00 00 
    bebe0a05:	ff d0                	call   *%rax
    bebe0a07:	48 89 45 f8          	mov    %rax,-0x8(%rbp)
    bebe0a0b:	48 8b 45 f8          	mov    -0x8(%rbp),%rax
    bebe0a0f:	48 89 c7             	mov    %rax,%rdi
    bebe0a12:	48 b8 da 0d be be 00 	movabs $0xbebe0dda,%rax
    bebe0a19:	00 00 00 
    bebe0a1c:	ff d0                	call   *%rax
    bebe0a1e:	84 c0                	test   %al,%al
    bebe0a20:	74 0f                	je     bebe0a31 <_ZN3idk15buddy_allocator7_getidxEm+0xd7>
    bebe0a22:	8b 45 ec             	mov    -0x14(%rbp),%eax
    bebe0a25:	83 f8 1b             	cmp    $0x1b,%eax
    bebe0a28:	7f 07                	jg     bebe0a31 <_ZN3idk15buddy_allocator7_getidxEm+0xd7>
    bebe0a2a:	b8 01 00 00 00       	mov    $0x1,%eax
    bebe0a2f:	eb 05                	jmp    bebe0a36 <_ZN3idk15buddy_allocator7_getidxEm+0xdc>
    bebe0a31:	b8 00 00 00 00       	mov    $0x0,%eax
    bebe0a36:	84 c0                	test   %al,%al
    bebe0a38:	75 a9                	jne    bebe09e3 <_ZN3idk15buddy_allocator7_getidxEm+0x89>
    bebe0a3a:	48 8b 45 f8          	mov    -0x8(%rbp),%rax
    bebe0a3e:	48 89 c7             	mov    %rax,%rdi
    bebe0a41:	48 b8 da 0d be be 00 	movabs $0xbebe0dda,%rax
    bebe0a48:	00 00 00 
    bebe0a4b:	ff d0                	call   *%rax
    bebe0a4d:	84 c0                	test   %al,%al
    bebe0a4f:	74 07                	je     bebe0a58 <_ZN3idk15buddy_allocator7_getidxEm+0xfe>
    bebe0a51:	b8 ff ff ff ff       	mov    $0xffffffff,%eax
    bebe0a56:	eb 03                	jmp    bebe0a5b <_ZN3idk15buddy_allocator7_getidxEm+0x101>
    bebe0a58:	8b 45 ec             	mov    -0x14(%rbp),%eax
    bebe0a5b:	c9                   	leave
    bebe0a5c:	c3                   	ret
    bebe0a5d:	90                   	nop

00000000bebe0a5e <_ZN3idk15buddy_allocator7_getptrEm>:
    bebe0a5e:	55                   	push   %rbp
    bebe0a5f:	48 89 e5             	mov    %rsp,%rbp
    bebe0a62:	48 83 ec 20          	sub    $0x20,%rsp
    bebe0a66:	48 89 7d e8          	mov    %rdi,-0x18(%rbp)
    bebe0a6a:	48 89 75 e0          	mov    %rsi,-0x20(%rbp)
    bebe0a6e:	48 8b 45 e8          	mov    -0x18(%rbp),%rax
    bebe0a72:	48 8b 00             	mov    (%rax),%rax
    bebe0a75:	48 8b 55 e0          	mov    -0x20(%rbp),%rdx
    bebe0a79:	89 d6                	mov    %edx,%esi
    bebe0a7b:	48 89 c7             	mov    %rax,%rdi
    bebe0a7e:	48 b8 62 0c be be 00 	movabs $0xbebe0c62,%rax
    bebe0a85:	00 00 00 
    bebe0a88:	ff d0                	call   *%rax
    bebe0a8a:	48 89 45 f8          	mov    %rax,-0x8(%rbp)
    bebe0a8e:	48 8b 45 f8          	mov    -0x8(%rbp),%rax
    bebe0a92:	48 89 c7             	mov    %rax,%rdi
    bebe0a95:	48 b8 fe 0d be be 00 	movabs $0xbebe0dfe,%rax
    bebe0a9c:	00 00 00 
    bebe0a9f:	ff d0                	call   *%rax
    bebe0aa1:	48 8b 00             	mov    (%rax),%rax
    bebe0aa4:	48 89 45 f0          	mov    %rax,-0x10(%rbp)
    bebe0aa8:	48 8b 45 f8          	mov    -0x8(%rbp),%rax
    bebe0aac:	48 89 c7             	mov    %rax,%rdi
    bebe0aaf:	48 b8 18 0e be be 00 	movabs $0xbebe0e18,%rax
    bebe0ab6:	00 00 00 
    bebe0ab9:	ff d0                	call   *%rax
    bebe0abb:	48 8b 45 f0          	mov    -0x10(%rbp),%rax
    bebe0abf:	c9                   	leave
    bebe0ac0:	c3                   	ret
    bebe0ac1:	90                   	nop

00000000bebe0ac2 <_ZN3idk15buddy_allocator5allocEmm>:
    bebe0ac2:	55                   	push   %rbp
    bebe0ac3:	48 89 e5             	mov    %rsp,%rbp
    bebe0ac6:	48 83 ec 50          	sub    $0x50,%rsp
    bebe0aca:	48 89 7d c8          	mov    %rdi,-0x38(%rbp)
    bebe0ace:	48 89 75 c0          	mov    %rsi,-0x40(%rbp)
    bebe0ad2:	48 89 55 b8          	mov    %rdx,-0x48(%rbp)
    bebe0ad6:	48 8b 55 c0          	mov    -0x40(%rbp),%rdx
    bebe0ada:	48 8b 45 c8          	mov    -0x38(%rbp),%rax
    bebe0ade:	48 89 d6             	mov    %rdx,%rsi
    bebe0ae1:	48 89 c7             	mov    %rax,%rdi
    bebe0ae4:	48 b8 5a 09 be be 00 	movabs $0xbebe095a,%rax
    bebe0aeb:	00 00 00 
    bebe0aee:	ff d0                	call   *%rax
    bebe0af0:	89 45 fc             	mov    %eax,-0x4(%rbp)
    bebe0af3:	83 7d fc ff          	cmpl   $0xffffffff,-0x4(%rbp)
    bebe0af7:	75 13                	jne    bebe0b0c <_ZN3idk15buddy_allocator5allocEmm+0x4a>
    bebe0af9:	48 b8 3b 0e be be 00 	movabs $0xbebe0e3b,%rax
    bebe0b00:	00 00 00 
    bebe0b03:	ff d0                	call   *%rax
    bebe0b05:	b8 00 00 00 00       	mov    $0x0,%eax
    bebe0b0a:	eb 73                	jmp    bebe0b7f <_ZN3idk15buddy_allocator5allocEmm+0xbd>
    bebe0b0c:	8b 45 fc             	mov    -0x4(%rbp),%eax
    bebe0b0f:	48 63 d0             	movslq %eax,%rdx
    bebe0b12:	48 8b 45 c8          	mov    -0x38(%rbp),%rax
    bebe0b16:	48 89 d6             	mov    %rdx,%rsi
    bebe0b19:	48 89 c7             	mov    %rax,%rdi
    bebe0b1c:	48 b8 5e 0a be be 00 	movabs $0xbebe0a5e,%rax
    bebe0b23:	00 00 00 
    bebe0b26:	ff d0                	call   *%rax
    bebe0b28:	48 89 45 f0          	mov    %rax,-0x10(%rbp)
    bebe0b2c:	48 8b 45 f0          	mov    -0x10(%rbp),%rax
    bebe0b30:	48 89 45 e8          	mov    %rax,-0x18(%rbp)
    bebe0b34:	48 8b 45 e8          	mov    -0x18(%rbp),%rax
    bebe0b38:	48 8d 50 10          	lea    0x10(%rax),%rdx
    bebe0b3c:	48 8b 45 b8          	mov    -0x48(%rbp),%rax
    bebe0b40:	48 89 c6             	mov    %rax,%rsi
    bebe0b43:	48 89 d7             	mov    %rdx,%rdi
    bebe0b46:	48 b8 44 0e be be 00 	movabs $0xbebe0e44,%rax
    bebe0b4d:	00 00 00 
    bebe0b50:	ff d0                	call   *%rax
    bebe0b52:	48 89 45 e0          	mov    %rax,-0x20(%rbp)
    bebe0b56:	48 8b 45 e0          	mov    -0x20(%rbp),%rax
    bebe0b5a:	48 83 e8 10          	sub    $0x10,%rax
    bebe0b5e:	48 89 45 d8          	mov    %rax,-0x28(%rbp)
    bebe0b62:	48 8b 4d f0          	mov    -0x10(%rbp),%rcx
    bebe0b66:	8b 45 fc             	mov    -0x4(%rbp),%eax
    bebe0b69:	48 63 d0             	movslq %eax,%rdx
    bebe0b6c:	48 8b 45 d8          	mov    -0x28(%rbp),%rax
    bebe0b70:	48 89 08             	mov    %rcx,(%rax)
    bebe0b73:	48 8b 45 d8          	mov    -0x28(%rbp),%rax
    bebe0b77:	48 89 50 08          	mov    %rdx,0x8(%rax)
    bebe0b7b:	48 8b 45 e0          	mov    -0x20(%rbp),%rax
    bebe0b7f:	c9                   	leave
    bebe0b80:	c3                   	ret
    bebe0b81:	90                   	nop

00000000bebe0b82 <_ZN3idk15buddy_allocator4freeEPv>:
    bebe0b82:	55                   	push   %rbp
    bebe0b83:	48 89 e5             	mov    %rsp,%rbp
    bebe0b86:	48 83 ec 30          	sub    $0x30,%rsp
    bebe0b8a:	48 89 7d d8          	mov    %rdi,-0x28(%rbp)
    bebe0b8e:	48 89 75 d0          	mov    %rsi,-0x30(%rbp)
    bebe0b92:	48 8b 45 d0          	mov    -0x30(%rbp),%rax
    bebe0b96:	48 89 45 f8          	mov    %rax,-0x8(%rbp)
    bebe0b9a:	48 8b 45 f8          	mov    -0x8(%rbp),%rax
    bebe0b9e:	48 83 e8 10          	sub    $0x10,%rax
    bebe0ba2:	48 89 45 f0          	mov    %rax,-0x10(%rbp)
    bebe0ba6:	48 8b 45 d8          	mov    -0x28(%rbp),%rax
    bebe0baa:	48 8b 00             	mov    (%rax),%rax
    bebe0bad:	48 8b 55 f0          	mov    -0x10(%rbp),%rdx
    bebe0bb1:	48 8b 52 08          	mov    0x8(%rdx),%rdx
    bebe0bb5:	89 d6                	mov    %edx,%esi
    bebe0bb7:	48 89 c7             	mov    %rax,%rdi
    bebe0bba:	48 b8 62 0c be be 00 	movabs $0xbebe0c62,%rax
    bebe0bc1:	00 00 00 
    bebe0bc4:	ff d0                	call   *%rax
    bebe0bc6:	48 89 45 e8          	mov    %rax,-0x18(%rbp)
    bebe0bca:	48 8b 55 f0          	mov    -0x10(%rbp),%rdx
    bebe0bce:	48 8b 45 e8          	mov    -0x18(%rbp),%rax
    bebe0bd2:	48 89 d6             	mov    %rdx,%rsi
    bebe0bd5:	48 89 c7             	mov    %rax,%rdi
    bebe0bd8:	48 b8 58 0d be be 00 	movabs $0xbebe0d58,%rax
    bebe0bdf:	00 00 00 
    bebe0be2:	ff d0                	call   *%rax
    bebe0be4:	90                   	nop
    bebe0be5:	c9                   	leave
    bebe0be6:	c3                   	ret
    bebe0be7:	90                   	nop

00000000bebe0be8 <_ZN3idk15buddy_allocator5clearEv>:
    bebe0be8:	55                   	push   %rbp
    bebe0be9:	48 89 e5             	mov    %rsp,%rbp
    bebe0bec:	48 83 ec 08          	sub    $0x8,%rsp
    bebe0bf0:	48 89 7d f8          	mov    %rdi,-0x8(%rbp)
    bebe0bf4:	90                   	nop
    bebe0bf5:	c9                   	leave
    bebe0bf6:	c3                   	ret
    bebe0bf7:	90                   	nop

00000000bebe0bf8 <_ZN3idk16linear_allocator5allocINS_5arrayINS_13inplace_stackImEELm28EEEEEPT_m>:
    bebe0bf8:	55                   	push   %rbp
    bebe0bf9:	48 89 e5             	mov    %rsp,%rbp
    bebe0bfc:	48 83 ec 10          	sub    $0x10,%rsp
    bebe0c00:	48 89 7d f8          	mov    %rdi,-0x8(%rbp)
    bebe0c04:	48 89 75 f0          	mov    %rsi,-0x10(%rbp)
    bebe0c08:	48 8b 45 f0          	mov    -0x10(%rbp),%rax
    bebe0c0c:	48 69 c8 98 03 00 00 	imul   $0x398,%rax,%rcx
    bebe0c13:	48 8b 45 f8          	mov    -0x8(%rbp),%rax
    bebe0c17:	ba 08 00 00 00       	mov    $0x8,%edx
    bebe0c1c:	48 89 ce             	mov    %rcx,%rsi
    bebe0c1f:	48 89 c7             	mov    %rax,%rdi
    bebe0c22:	48 b8 0a 10 be be 00 	movabs $0xbebe100a,%rax
    bebe0c29:	00 00 00 
    bebe0c2c:	ff d0                	call   *%rax
    bebe0c2e:	c9                   	leave
    bebe0c2f:	c3                   	ret

00000000bebe0c30 <_ZN3idk16linear_allocator5allocIhEEPT_m>:
    bebe0c30:	55                   	push   %rbp
    bebe0c31:	48 89 e5             	mov    %rsp,%rbp
    bebe0c34:	48 83 ec 10          	sub    $0x10,%rsp
    bebe0c38:	48 89 7d f8          	mov    %rdi,-0x8(%rbp)
    bebe0c3c:	48 89 75 f0          	mov    %rsi,-0x10(%rbp)
    bebe0c40:	48 8b 4d f0          	mov    -0x10(%rbp),%rcx
    bebe0c44:	48 8b 45 f8          	mov    -0x8(%rbp),%rax
    bebe0c48:	ba 01 00 00 00       	mov    $0x1,%edx
    bebe0c4d:	48 89 ce             	mov    %rcx,%rsi
    bebe0c50:	48 89 c7             	mov    %rax,%rdi
    bebe0c53:	48 b8 0a 10 be be 00 	movabs $0xbebe100a,%rax
    bebe0c5a:	00 00 00 
    bebe0c5d:	ff d0                	call   *%rax
    bebe0c5f:	c9                   	leave
    bebe0c60:	c3                   	ret
    bebe0c61:	90                   	nop

00000000bebe0c62 <_ZN3idk5arrayINS_13inplace_stackImEELm28EEixEi>:
    bebe0c62:	55                   	push   %rbp
    bebe0c63:	48 89 e5             	mov    %rsp,%rbp
    bebe0c66:	48 83 ec 10          	sub    $0x10,%rsp
    bebe0c6a:	48 89 7d f8          	mov    %rdi,-0x8(%rbp)
    bebe0c6e:	89 75 f4             	mov    %esi,-0xc(%rbp)
    bebe0c71:	8b 45 f4             	mov    -0xc(%rbp),%eax
    bebe0c74:	48 98                	cltq
    bebe0c76:	48 c1 e0 05          	shl    $0x5,%rax
    bebe0c7a:	48 89 c2             	mov    %rax,%rdx
    bebe0c7d:	48 8b 45 f8          	mov    -0x8(%rbp),%rax
    bebe0c81:	48 01 d0             	add    %rdx,%rax
    bebe0c84:	48 83 c0 08          	add    $0x8,%rax
    bebe0c88:	c9                   	leave
    bebe0c89:	c3                   	ret

00000000bebe0c8a <_ZN3idk16linear_allocator5allocImEEPT_m>:
    bebe0c8a:	55                   	push   %rbp
    bebe0c8b:	48 89 e5             	mov    %rsp,%rbp
    bebe0c8e:	48 83 ec 10          	sub    $0x10,%rsp
    bebe0c92:	48 89 7d f8          	mov    %rdi,-0x8(%rbp)
    bebe0c96:	48 89 75 f0          	mov    %rsi,-0x10(%rbp)
    bebe0c9a:	48 8b 45 f0          	mov    -0x10(%rbp),%rax
    bebe0c9e:	48 8d 0c c5 00 00 00 	lea    0x0(,%rax,8),%rcx
    bebe0ca5:	00 
    bebe0ca6:	48 8b 45 f8          	mov    -0x8(%rbp),%rax
    bebe0caa:	ba 08 00 00 00       	mov    $0x8,%edx
    bebe0caf:	48 89 ce             	mov    %rcx,%rsi
    bebe0cb2:	48 89 c7             	mov    %rax,%rdi
    bebe0cb5:	48 b8 0a 10 be be 00 	movabs $0xbebe100a,%rax
    bebe0cbc:	00 00 00 
    bebe0cbf:	ff d0                	call   *%rax
    bebe0cc1:	c9                   	leave
    bebe0cc2:	c3                   	ret
    bebe0cc3:	90                   	nop

00000000bebe0cc4 <_ZN3idk13inplace_stackImEC1EmPm>:
    bebe0cc4:	55                   	push   %rbp
    bebe0cc5:	48 89 e5             	mov    %rsp,%rbp
    bebe0cc8:	48 83 ec 18          	sub    $0x18,%rsp
    bebe0ccc:	48 89 7d f8          	mov    %rdi,-0x8(%rbp)
    bebe0cd0:	48 89 75 f0          	mov    %rsi,-0x10(%rbp)
    bebe0cd4:	48 89 55 e8          	mov    %rdx,-0x18(%rbp)
    bebe0cd8:	48 8b 45 f8          	mov    -0x8(%rbp),%rax
    bebe0cdc:	c6 00 00             	movb   $0x0,(%rax)
    bebe0cdf:	48 8b 45 f8          	mov    -0x8(%rbp),%rax
    bebe0ce3:	48 8b 55 e8          	mov    -0x18(%rbp),%rdx
    bebe0ce7:	48 89 50 08          	mov    %rdx,0x8(%rax)
    bebe0ceb:	48 8b 45 f0          	mov    -0x10(%rbp),%rax
    bebe0cef:	48 8d 14 c5 00 00 00 	lea    0x0(,%rax,8),%rdx
    bebe0cf6:	00 
    bebe0cf7:	48 8b 45 e8          	mov    -0x18(%rbp),%rax
    bebe0cfb:	48 01 c2             	add    %rax,%rdx
    bebe0cfe:	48 8b 45 f8          	mov    -0x8(%rbp),%rax
    bebe0d02:	48 89 50 10          	mov    %rdx,0x10(%rax)
    bebe0d06:	48 8b 45 f8          	mov    -0x8(%rbp),%rax
    bebe0d0a:	48 8b 50 08          	mov    0x8(%rax),%rdx
    bebe0d0e:	48 8b 45 f8          	mov    -0x8(%rbp),%rax
    bebe0d12:	48 89 50 18          	mov    %rdx,0x18(%rax)
    bebe0d16:	90                   	nop
    bebe0d17:	c9                   	leave
    bebe0d18:	c3                   	ret
    bebe0d19:	90                   	nop

00000000bebe0d1a <_ZN3idk13inplace_stackImED1Ev>:
    bebe0d1a:	55                   	push   %rbp
    bebe0d1b:	48 89 e5             	mov    %rsp,%rbp
    bebe0d1e:	48 83 ec 10          	sub    $0x10,%rsp
    bebe0d22:	48 89 7d f8          	mov    %rdi,-0x8(%rbp)
    bebe0d26:	48 8b 45 f8          	mov    -0x8(%rbp),%rax
    bebe0d2a:	0f b6 00             	movzbl (%rax),%eax
    bebe0d2d:	84 c0                	test   %al,%al
    bebe0d2f:	74 24                	je     bebe0d55 <_ZN3idk13inplace_stackImED1Ev+0x3b>
    bebe0d31:	48 8b 45 f8          	mov    -0x8(%rbp),%rax
    bebe0d35:	48 8b 40 08          	mov    0x8(%rax),%rax
    bebe0d39:	48 85 c0             	test   %rax,%rax
    bebe0d3c:	74 17                	je     bebe0d55 <_ZN3idk13inplace_stackImED1Ev+0x3b>
    bebe0d3e:	48 8b 45 f8          	mov    -0x8(%rbp),%rax
    bebe0d42:	48 8b 40 08          	mov    0x8(%rax),%rax
    bebe0d46:	48 89 c7             	mov    %rax,%rdi
    bebe0d49:	48 b8 0d 55 be be 00 	movabs $0xbebe550d,%rax
    bebe0d50:	00 00 00 
    bebe0d53:	ff d0                	call   *%rax
    bebe0d55:	90                   	nop
    bebe0d56:	c9                   	leave
    bebe0d57:	c3                   	ret

00000000bebe0d58 <_ZN3idk13inplace_stackImE4pushERKm>:
    bebe0d58:	55                   	push   %rbp
    bebe0d59:	48 89 e5             	mov    %rsp,%rbp
    bebe0d5c:	48 83 ec 10          	sub    $0x10,%rsp
    bebe0d60:	48 89 7d f8          	mov    %rdi,-0x8(%rbp)
    bebe0d64:	48 89 75 f0          	mov    %rsi,-0x10(%rbp)
    bebe0d68:	48 8b 45 f8          	mov    -0x8(%rbp),%rax
    bebe0d6c:	48 8b 40 18          	mov    0x18(%rax),%rax
    bebe0d70:	48 8b 55 f0          	mov    -0x10(%rbp),%rdx
    bebe0d74:	48 8b 12             	mov    (%rdx),%rdx
    bebe0d77:	48 89 10             	mov    %rdx,(%rax)
    bebe0d7a:	48 8b 45 f8          	mov    -0x8(%rbp),%rax
    bebe0d7e:	48 8b 40 18          	mov    0x18(%rax),%rax
    bebe0d82:	48 8d 50 08          	lea    0x8(%rax),%rdx
    bebe0d86:	48 8b 45 f8          	mov    -0x8(%rbp),%rax
    bebe0d8a:	48 89 50 18          	mov    %rdx,0x18(%rax)
    bebe0d8e:	90                   	nop
    bebe0d8f:	c9                   	leave
    bebe0d90:	c3                   	ret

00000000bebe0d91 <_ZSt5clampIiERKT_S2_S2_S2_>:
    bebe0d91:	55                   	push   %rbp
    bebe0d92:	48 89 e5             	mov    %rsp,%rbp
    bebe0d95:	48 83 ec 20          	sub    $0x20,%rsp
    bebe0d99:	48 89 7d f8          	mov    %rdi,-0x8(%rbp)
    bebe0d9d:	48 89 75 f0          	mov    %rsi,-0x10(%rbp)
    bebe0da1:	48 89 55 e8          	mov    %rdx,-0x18(%rbp)
    bebe0da5:	48 8b 55 e8          	mov    -0x18(%rbp),%rdx
    bebe0da9:	48 8b 45 f8          	mov    -0x8(%rbp),%rax
    bebe0dad:	48 89 d6             	mov    %rdx,%rsi
    bebe0db0:	48 89 c7             	mov    %rax,%rdi
    bebe0db3:	48 b8 77 0e be be 00 	movabs $0xbebe0e77,%rax
    bebe0dba:	00 00 00 
    bebe0dbd:	ff d0                	call   *%rax
    bebe0dbf:	48 89 c2             	mov    %rax,%rdx
    bebe0dc2:	48 8b 45 f0          	mov    -0x10(%rbp),%rax
    bebe0dc6:	48 89 d6             	mov    %rdx,%rsi
    bebe0dc9:	48 89 c7             	mov    %rax,%rdi
    bebe0dcc:	48 b8 a3 0e be be 00 	movabs $0xbebe0ea3,%rax
    bebe0dd3:	00 00 00 
    bebe0dd6:	ff d0                	call   *%rax
    bebe0dd8:	c9                   	leave
    bebe0dd9:	c3                   	ret

00000000bebe0dda <_ZN3idk13inplace_stackImE5emptyEv>:
    bebe0dda:	55                   	push   %rbp
    bebe0ddb:	48 89 e5             	mov    %rsp,%rbp
    bebe0dde:	48 83 ec 08          	sub    $0x8,%rsp
    bebe0de2:	48 89 7d f8          	mov    %rdi,-0x8(%rbp)
    bebe0de6:	48 8b 45 f8          	mov    -0x8(%rbp),%rax
    bebe0dea:	48 8b 50 18          	mov    0x18(%rax),%rdx
    bebe0dee:	48 8b 45 f8          	mov    -0x8(%rbp),%rax
    bebe0df2:	48 8b 40 08          	mov    0x8(%rax),%rax
    bebe0df6:	48 39 c2             	cmp    %rax,%rdx
    bebe0df9:	0f 94 c0             	sete   %al
    bebe0dfc:	c9                   	leave
    bebe0dfd:	c3                   	ret

00000000bebe0dfe <_ZN3idk13inplace_stackImE3topEv>:
    bebe0dfe:	55                   	push   %rbp
    bebe0dff:	48 89 e5             	mov    %rsp,%rbp
    bebe0e02:	48 83 ec 08          	sub    $0x8,%rsp
    bebe0e06:	48 89 7d f8          	mov    %rdi,-0x8(%rbp)
    bebe0e0a:	48 8b 45 f8          	mov    -0x8(%rbp),%rax
    bebe0e0e:	48 8b 40 18          	mov    0x18(%rax),%rax
    bebe0e12:	48 83 e8 08          	sub    $0x8,%rax
    bebe0e16:	c9                   	leave
    bebe0e17:	c3                   	ret

00000000bebe0e18 <_ZN3idk13inplace_stackImE3popEv>:
    bebe0e18:	55                   	push   %rbp
    bebe0e19:	48 89 e5             	mov    %rsp,%rbp
    bebe0e1c:	48 83 ec 08          	sub    $0x8,%rsp
    bebe0e20:	48 89 7d f8          	mov    %rdi,-0x8(%rbp)
    bebe0e24:	48 8b 45 f8          	mov    -0x8(%rbp),%rax
    bebe0e28:	48 8b 40 18          	mov    0x18(%rax),%rax
    bebe0e2c:	48 8d 50 f8          	lea    -0x8(%rax),%rdx
    bebe0e30:	48 8b 45 f8          	mov    -0x8(%rbp),%rax
    bebe0e34:	48 89 50 18          	mov    %rdx,0x18(%rax)
    bebe0e38:	90                   	nop
    bebe0e39:	c9                   	leave
    bebe0e3a:	c3                   	ret

00000000bebe0e3b <_Z10KInterruptILh54EEvv>:
    bebe0e3b:	55                   	push   %rbp
    bebe0e3c:	48 89 e5             	mov    %rsp,%rbp
    bebe0e3f:	cd 36                	int    $0x36
    bebe0e41:	90                   	nop
    bebe0e42:	5d                   	pop    %rbp
    bebe0e43:	c3                   	ret

00000000bebe0e44 <_ZN3idk9ptr_alignIhEEPT_S2_m>:
    bebe0e44:	55                   	push   %rbp
    bebe0e45:	48 89 e5             	mov    %rsp,%rbp
    bebe0e48:	48 83 ec 20          	sub    $0x20,%rsp
    bebe0e4c:	48 89 7d e8          	mov    %rdi,-0x18(%rbp)
    bebe0e50:	48 89 75 e0          	mov    %rsi,-0x20(%rbp)
    bebe0e54:	48 8b 45 e8          	mov    -0x18(%rbp),%rax
    bebe0e58:	48 89 45 f8          	mov    %rax,-0x8(%rbp)
    bebe0e5c:	48 8b 55 f8          	mov    -0x8(%rbp),%rdx
    bebe0e60:	48 8b 45 e0          	mov    -0x20(%rbp),%rax
    bebe0e64:	48 01 d0             	add    %rdx,%rax
    bebe0e67:	48 8d 50 ff          	lea    -0x1(%rax),%rdx
    bebe0e6b:	48 8b 45 e0          	mov    -0x20(%rbp),%rax
    bebe0e6f:	48 f7 d8             	neg    %rax
    bebe0e72:	48 21 d0             	and    %rdx,%rax
    bebe0e75:	c9                   	leave
    bebe0e76:	c3                   	ret

00000000bebe0e77 <_ZSt3minIiERKT_S2_S2_>:
    bebe0e77:	55                   	push   %rbp
    bebe0e78:	48 89 e5             	mov    %rsp,%rbp
    bebe0e7b:	48 83 ec 10          	sub    $0x10,%rsp
    bebe0e7f:	48 89 7d f8          	mov    %rdi,-0x8(%rbp)
    bebe0e83:	48 89 75 f0          	mov    %rsi,-0x10(%rbp)
    bebe0e87:	48 8b 45 f8          	mov    -0x8(%rbp),%rax
    bebe0e8b:	8b 10                	mov    (%rax),%edx
    bebe0e8d:	48 8b 45 f0          	mov    -0x10(%rbp),%rax
    bebe0e91:	8b 00                	mov    (%rax),%eax
    bebe0e93:	39 c2                	cmp    %eax,%edx
    bebe0e95:	7d 06                	jge    bebe0e9d <_ZSt3minIiERKT_S2_S2_+0x26>
    bebe0e97:	48 8b 45 f8          	mov    -0x8(%rbp),%rax
    bebe0e9b:	eb 04                	jmp    bebe0ea1 <_ZSt3minIiERKT_S2_S2_+0x2a>
    bebe0e9d:	48 8b 45 f0          	mov    -0x10(%rbp),%rax
    bebe0ea1:	c9                   	leave
    bebe0ea2:	c3                   	ret

00000000bebe0ea3 <_ZSt3maxIiERKT_S2_S2_>:
    bebe0ea3:	55                   	push   %rbp
    bebe0ea4:	48 89 e5             	mov    %rsp,%rbp
    bebe0ea7:	48 83 ec 10          	sub    $0x10,%rsp
    bebe0eab:	48 89 7d f8          	mov    %rdi,-0x8(%rbp)
    bebe0eaf:	48 89 75 f0          	mov    %rsi,-0x10(%rbp)
    bebe0eb3:	48 8b 45 f8          	mov    -0x8(%rbp),%rax
    bebe0eb7:	8b 10                	mov    (%rax),%edx
    bebe0eb9:	48 8b 45 f0          	mov    -0x10(%rbp),%rax
    bebe0ebd:	8b 00                	mov    (%rax),%eax
    bebe0ebf:	39 c2                	cmp    %eax,%edx
    bebe0ec1:	7e 06                	jle    bebe0ec9 <_ZSt3maxIiERKT_S2_S2_+0x26>
    bebe0ec3:	48 8b 45 f8          	mov    -0x8(%rbp),%rax
    bebe0ec7:	eb 04                	jmp    bebe0ecd <_ZSt3maxIiERKT_S2_S2_+0x2a>
    bebe0ec9:	48 8b 45 f0          	mov    -0x10(%rbp),%rax
    bebe0ecd:	c9                   	leave
    bebe0ece:	c3                   	ret

00000000bebe0ecf <_ZN2IO3inbEt>:
    bebe0ecf:	55                   	push   %rbp
    bebe0ed0:	48 89 e5             	mov    %rsp,%rbp
    bebe0ed3:	48 83 ec 18          	sub    $0x18,%rsp
    bebe0ed7:	89 f8                	mov    %edi,%eax
    bebe0ed9:	66 89 45 ec          	mov    %ax,-0x14(%rbp)
    bebe0edd:	0f b7 45 ec          	movzwl -0x14(%rbp),%eax
    bebe0ee1:	89 c2                	mov    %eax,%edx
    bebe0ee3:	ec                   	in     (%dx),%al
    bebe0ee4:	88 45 ff             	mov    %al,-0x1(%rbp)
    bebe0ee7:	0f b6 45 ff          	movzbl -0x1(%rbp),%eax
    bebe0eeb:	c9                   	leave
    bebe0eec:	c3                   	ret

00000000bebe0eed <_ZN2IO3inwEt>:
    bebe0eed:	55                   	push   %rbp
    bebe0eee:	48 89 e5             	mov    %rsp,%rbp
    bebe0ef1:	48 83 ec 18          	sub    $0x18,%rsp
    bebe0ef5:	89 f8                	mov    %edi,%eax
    bebe0ef7:	66 89 45 ec          	mov    %ax,-0x14(%rbp)
    bebe0efb:	0f b7 45 ec          	movzwl -0x14(%rbp),%eax
    bebe0eff:	89 c2                	mov    %eax,%edx
    bebe0f01:	66 ed                	in     (%dx),%ax
    bebe0f03:	66 89 45 fe          	mov    %ax,-0x2(%rbp)
    bebe0f07:	0f b7 45 fe          	movzwl -0x2(%rbp),%eax
    bebe0f0b:	c9                   	leave
    bebe0f0c:	c3                   	ret

00000000bebe0f0d <_ZN2IO3inlEt>:
    bebe0f0d:	55                   	push   %rbp
    bebe0f0e:	48 89 e5             	mov    %rsp,%rbp
    bebe0f11:	48 83 ec 18          	sub    $0x18,%rsp
    bebe0f15:	89 f8                	mov    %edi,%eax
    bebe0f17:	66 89 45 ec          	mov    %ax,-0x14(%rbp)
    bebe0f1b:	0f b7 45 ec          	movzwl -0x14(%rbp),%eax
    bebe0f1f:	89 c2                	mov    %eax,%edx
    bebe0f21:	ed                   	in     (%dx),%eax
    bebe0f22:	89 45 fc             	mov    %eax,-0x4(%rbp)
    bebe0f25:	8b 45 fc             	mov    -0x4(%rbp),%eax
    bebe0f28:	c9                   	leave
    bebe0f29:	c3                   	ret

00000000bebe0f2a <_ZN2IO4outbEth>:
    bebe0f2a:	55                   	push   %rbp
    bebe0f2b:	48 89 e5             	mov    %rsp,%rbp
    bebe0f2e:	48 83 ec 08          	sub    $0x8,%rsp
    bebe0f32:	89 fa                	mov    %edi,%edx
    bebe0f34:	89 f0                	mov    %esi,%eax
    bebe0f36:	66 89 55 fc          	mov    %dx,-0x4(%rbp)
    bebe0f3a:	88 45 f8             	mov    %al,-0x8(%rbp)
    bebe0f3d:	0f b6 45 f8          	movzbl -0x8(%rbp),%eax
    bebe0f41:	0f b7 55 fc          	movzwl -0x4(%rbp),%edx
    bebe0f45:	ee                   	out    %al,(%dx)
    bebe0f46:	90                   	nop
    bebe0f47:	c9                   	leave
    bebe0f48:	c3                   	ret

00000000bebe0f49 <_ZN2IO4outwEtt>:
    bebe0f49:	55                   	push   %rbp
    bebe0f4a:	48 89 e5             	mov    %rsp,%rbp
    bebe0f4d:	48 83 ec 08          	sub    $0x8,%rsp
    bebe0f51:	89 fa                	mov    %edi,%edx
    bebe0f53:	89 f0                	mov    %esi,%eax
    bebe0f55:	66 89 55 fc          	mov    %dx,-0x4(%rbp)
    bebe0f59:	66 89 45 f8          	mov    %ax,-0x8(%rbp)
    bebe0f5d:	0f b7 45 f8          	movzwl -0x8(%rbp),%eax
    bebe0f61:	0f b7 55 fc          	movzwl -0x4(%rbp),%edx
    bebe0f65:	66 ef                	out    %ax,(%dx)
    bebe0f67:	90                   	nop
    bebe0f68:	c9                   	leave
    bebe0f69:	c3                   	ret

00000000bebe0f6a <_ZN2IO4outlEtj>:
    bebe0f6a:	55                   	push   %rbp
    bebe0f6b:	48 89 e5             	mov    %rsp,%rbp
    bebe0f6e:	48 83 ec 08          	sub    $0x8,%rsp
    bebe0f72:	89 f8                	mov    %edi,%eax
    bebe0f74:	89 75 f8             	mov    %esi,-0x8(%rbp)
    bebe0f77:	66 89 45 fc          	mov    %ax,-0x4(%rbp)
    bebe0f7b:	8b 45 f8             	mov    -0x8(%rbp),%eax
    bebe0f7e:	0f b7 55 fc          	movzwl -0x4(%rbp),%edx
    bebe0f82:	ef                   	out    %eax,(%dx)
    bebe0f83:	90                   	nop
    bebe0f84:	c9                   	leave
    bebe0f85:	c3                   	ret

00000000bebe0f86 <_ZN2IO4waitEv>:
    bebe0f86:	55                   	push   %rbp
    bebe0f87:	48 89 e5             	mov    %rsp,%rbp
    bebe0f8a:	be 00 00 00 00       	mov    $0x0,%esi
    bebe0f8f:	bf 80 00 00 00       	mov    $0x80,%edi
    bebe0f94:	48 b8 2a 0f be be 00 	movabs $0xbebe0f2a,%rax
    bebe0f9b:	00 00 00 
    bebe0f9e:	ff d0                	call   *%rax
    bebe0fa0:	90                   	nop
    bebe0fa1:	5d                   	pop    %rbp
    bebe0fa2:	c3                   	ret
    bebe0fa3:	90                   	nop

00000000bebe0fa4 <_ZN3idk16linear_allocatorC1EPvm>:
    bebe0fa4:	55                   	push   %rbp
    bebe0fa5:	48 89 e5             	mov    %rsp,%rbp
    bebe0fa8:	48 83 ec 18          	sub    $0x18,%rsp
    bebe0fac:	48 89 7d f8          	mov    %rdi,-0x8(%rbp)
    bebe0fb0:	48 89 75 f0          	mov    %rsi,-0x10(%rbp)
    bebe0fb4:	48 89 55 e8          	mov    %rdx,-0x18(%rbp)
    bebe0fb8:	48 8b 45 f8          	mov    -0x8(%rbp),%rax
    bebe0fbc:	48 8b 55 e8          	mov    -0x18(%rbp),%rdx
    bebe0fc0:	48 89 10             	mov    %rdx,(%rax)
    bebe0fc3:	48 8b 55 f0          	mov    -0x10(%rbp),%rdx
    bebe0fc7:	48 8b 45 f8          	mov    -0x8(%rbp),%rax
    bebe0fcb:	48 89 50 08          	mov    %rdx,0x8(%rax)
    bebe0fcf:	48 8b 45 f8          	mov    -0x8(%rbp),%rax
    bebe0fd3:	48 8b 50 08          	mov    0x8(%rax),%rdx
    bebe0fd7:	48 8b 45 f8          	mov    -0x8(%rbp),%rax
    bebe0fdb:	48 89 50 10          	mov    %rdx,0x10(%rax)
    bebe0fdf:	48 8b 45 f8          	mov    -0x8(%rbp),%rax
    bebe0fe3:	48 8b 50 08          	mov    0x8(%rax),%rdx
    bebe0fe7:	48 8b 45 e8          	mov    -0x18(%rbp),%rax
    bebe0feb:	48 01 c2             	add    %rax,%rdx
    bebe0fee:	48 8b 45 f8          	mov    -0x8(%rbp),%rax
    bebe0ff2:	48 89 50 18          	mov    %rdx,0x18(%rax)
    bebe0ff6:	90                   	nop
    bebe0ff7:	c9                   	leave
    bebe0ff8:	c3                   	ret
    bebe0ff9:	90                   	nop

00000000bebe0ffa <_ZN3idk16linear_allocatorD1Ev>:
    bebe0ffa:	55                   	push   %rbp
    bebe0ffb:	48 89 e5             	mov    %rsp,%rbp
    bebe0ffe:	48 83 ec 08          	sub    $0x8,%rsp
    bebe1002:	48 89 7d f8          	mov    %rdi,-0x8(%rbp)
    bebe1006:	90                   	nop
    bebe1007:	c9                   	leave
    bebe1008:	c3                   	ret
    bebe1009:	90                   	nop

00000000bebe100a <_ZN3idk16linear_allocator5allocEmm>:
    bebe100a:	55                   	push   %rbp
    bebe100b:	48 89 e5             	mov    %rsp,%rbp
    bebe100e:	48 83 ec 20          	sub    $0x20,%rsp
    bebe1012:	48 89 7d f8          	mov    %rdi,-0x8(%rbp)
    bebe1016:	48 89 75 f0          	mov    %rsi,-0x10(%rbp)
    bebe101a:	48 89 55 e8          	mov    %rdx,-0x18(%rbp)
    bebe101e:	48 8b 45 f8          	mov    -0x8(%rbp),%rax
    bebe1022:	48 8b 50 10          	mov    0x10(%rax),%rdx
    bebe1026:	48 8b 45 e8          	mov    -0x18(%rbp),%rax
    bebe102a:	48 01 d0             	add    %rdx,%rax
    bebe102d:	48 8d 50 ff          	lea    -0x1(%rax),%rdx
    bebe1031:	48 8b 45 e8          	mov    -0x18(%rbp),%rax
    bebe1035:	48 f7 d8             	neg    %rax
    bebe1038:	48 21 c2             	and    %rax,%rdx
    bebe103b:	48 8b 45 f8          	mov    -0x8(%rbp),%rax
    bebe103f:	48 89 50 10          	mov    %rdx,0x10(%rax)
    bebe1043:	48 8b 45 f8          	mov    -0x8(%rbp),%rax
    bebe1047:	48 8b 50 10          	mov    0x10(%rax),%rdx
    bebe104b:	48 8b 45 f0          	mov    -0x10(%rbp),%rax
    bebe104f:	48 01 c2             	add    %rax,%rdx
    bebe1052:	48 8b 45 f8          	mov    -0x8(%rbp),%rax
    bebe1056:	48 89 50 10          	mov    %rdx,0x10(%rax)
    bebe105a:	48 8b 45 f8          	mov    -0x8(%rbp),%rax
    bebe105e:	48 8b 50 10          	mov    0x10(%rax),%rdx
    bebe1062:	48 8b 45 e8          	mov    -0x18(%rbp),%rax
    bebe1066:	48 01 d0             	add    %rdx,%rax
    bebe1069:	48 8d 50 ff          	lea    -0x1(%rax),%rdx
    bebe106d:	48 8b 45 e8          	mov    -0x18(%rbp),%rax
    bebe1071:	48 f7 d8             	neg    %rax
    bebe1074:	48 21 c2             	and    %rax,%rdx
    bebe1077:	48 8b 45 f8          	mov    -0x8(%rbp),%rax
    bebe107b:	48 89 50 10          	mov    %rdx,0x10(%rax)
    bebe107f:	48 8b 45 f8          	mov    -0x8(%rbp),%rax
    bebe1083:	48 8b 50 10          	mov    0x10(%rax),%rdx
    bebe1087:	48 8b 45 f8          	mov    -0x8(%rbp),%rax
    bebe108b:	48 8b 40 18          	mov    0x18(%rax),%rax
    bebe108f:	48 39 c2             	cmp    %rax,%rdx
    bebe1092:	72 13                	jb     bebe10a7 <_ZN3idk16linear_allocator5allocEmm+0x9d>
    bebe1094:	48 b8 3b 0e be be 00 	movabs $0xbebe0e3b,%rax
    bebe109b:	00 00 00 
    bebe109e:	ff d0                	call   *%rax
    bebe10a0:	b8 00 00 00 00       	mov    $0x0,%eax
    bebe10a5:	eb 0c                	jmp    bebe10b3 <_ZN3idk16linear_allocator5allocEmm+0xa9>
    bebe10a7:	48 8b 45 f8          	mov    -0x8(%rbp),%rax
    bebe10ab:	48 8b 40 10          	mov    0x10(%rax),%rax
    bebe10af:	48 2b 45 f0          	sub    -0x10(%rbp),%rax
    bebe10b3:	c9                   	leave
    bebe10b4:	c3                   	ret
    bebe10b5:	90                   	nop

00000000bebe10b6 <_ZN3idk16linear_allocator4freeEPv>:
    bebe10b6:	55                   	push   %rbp
    bebe10b7:	48 89 e5             	mov    %rsp,%rbp
    bebe10ba:	48 83 ec 10          	sub    $0x10,%rsp
    bebe10be:	48 89 7d f8          	mov    %rdi,-0x8(%rbp)
    bebe10c2:	48 89 75 f0          	mov    %rsi,-0x10(%rbp)
    bebe10c6:	90                   	nop
    bebe10c7:	c9                   	leave
    bebe10c8:	c3                   	ret
    bebe10c9:	90                   	nop

00000000bebe10ca <_ZN3idk16linear_allocator5clearEv>:
    bebe10ca:	55                   	push   %rbp
    bebe10cb:	48 89 e5             	mov    %rsp,%rbp
    bebe10ce:	48 83 ec 08          	sub    $0x8,%rsp
    bebe10d2:	48 89 7d f8          	mov    %rdi,-0x8(%rbp)
    bebe10d6:	48 8b 45 f8          	mov    -0x8(%rbp),%rax
    bebe10da:	48 8b 50 08          	mov    0x8(%rax),%rdx
    bebe10de:	48 8b 45 f8          	mov    -0x8(%rbp),%rax
    bebe10e2:	48 89 50 10          	mov    %rdx,0x10(%rax)
    bebe10e6:	90                   	nop
    bebe10e7:	c9                   	leave
    bebe10e8:	c3                   	ret
    bebe10e9:	90                   	nop

00000000bebe10ea <_ZN6syslog6enableEv>:
    bebe10ea:	55                   	push   %rbp
    bebe10eb:	48 89 e5             	mov    %rsp,%rbp
    bebe10ee:	48 b8 60 58 be be 00 	movabs $0xbebe5860,%rax
    bebe10f5:	00 00 00 
    bebe10f8:	c6 00 01             	movb   $0x1,(%rax)
    bebe10fb:	90                   	nop
    bebe10fc:	5d                   	pop    %rbp
    bebe10fd:	c3                   	ret

00000000bebe10fe <_ZN6syslog7disableEv>:
    bebe10fe:	55                   	push   %rbp
    bebe10ff:	48 89 e5             	mov    %rsp,%rbp
    bebe1102:	48 b8 60 58 be be 00 	movabs $0xbebe5860,%rax
    bebe1109:	00 00 00 
    bebe110c:	c6 00 00             	movb   $0x0,(%rax)
    bebe110f:	90                   	nop
    bebe1110:	5d                   	pop    %rbp
    bebe1111:	c3                   	ret

00000000bebe1112 <_ZN6syslogC1EPKc>:
    bebe1112:	55                   	push   %rbp
    bebe1113:	48 89 e5             	mov    %rsp,%rbp
    bebe1116:	48 83 ec 10          	sub    $0x10,%rsp
    bebe111a:	48 89 7d f8          	mov    %rdi,-0x8(%rbp)
    bebe111e:	48 89 75 f0          	mov    %rsi,-0x10(%rbp)
    bebe1122:	48 8b 55 f0          	mov    -0x10(%rbp),%rdx
    bebe1126:	48 8b 45 f8          	mov    -0x8(%rbp),%rax
    bebe112a:	48 b9 18 56 be be 00 	movabs $0xbebe5618,%rcx
    bebe1131:	00 00 00 
    bebe1134:	48 89 ce             	mov    %rcx,%rsi
    bebe1137:	48 89 c7             	mov    %rax,%rdi
    bebe113a:	b8 00 00 00 00       	mov    $0x0,%eax
    bebe113f:	48 b9 fa 12 be be 00 	movabs $0xbebe12fa,%rcx
    bebe1146:	00 00 00 
    bebe1149:	ff d1                	call   *%rcx
    bebe114b:	48 8b 45 f8          	mov    -0x8(%rbp),%rax
    bebe114f:	48 ba 1d 56 be be 00 	movabs $0xbebe561d,%rdx
    bebe1156:	00 00 00 
    bebe1159:	48 89 d6             	mov    %rdx,%rsi
    bebe115c:	48 89 c7             	mov    %rax,%rdi
    bebe115f:	b8 00 00 00 00       	mov    $0x0,%eax
    bebe1164:	48 ba fa 12 be be 00 	movabs $0xbebe12fa,%rdx
    bebe116b:	00 00 00 
    bebe116e:	ff d2                	call   *%rdx
    bebe1170:	48 b8 c0 64 be be 00 	movabs $0xbebe64c0,%rax
    bebe1177:	00 00 00 
    bebe117a:	8b 00                	mov    (%rax),%eax
    bebe117c:	8d 50 04             	lea    0x4(%rax),%edx
    bebe117f:	48 b8 c0 64 be be 00 	movabs $0xbebe64c0,%rax
    bebe1186:	00 00 00 
    bebe1189:	89 10                	mov    %edx,(%rax)
    bebe118b:	90                   	nop
    bebe118c:	c9                   	leave
    bebe118d:	c3                   	ret

00000000bebe118e <_ZN6syslogD1Ev>:
    bebe118e:	55                   	push   %rbp
    bebe118f:	48 89 e5             	mov    %rsp,%rbp
    bebe1192:	48 83 ec 10          	sub    $0x10,%rsp
    bebe1196:	48 89 7d f8          	mov    %rdi,-0x8(%rbp)
    bebe119a:	48 b8 c0 64 be be 00 	movabs $0xbebe64c0,%rax
    bebe11a1:	00 00 00 
    bebe11a4:	8b 00                	mov    (%rax),%eax
    bebe11a6:	8d 50 fc             	lea    -0x4(%rax),%edx
    bebe11a9:	48 b8 c0 64 be be 00 	movabs $0xbebe64c0,%rax
    bebe11b0:	00 00 00 
    bebe11b3:	89 10                	mov    %edx,(%rax)
    bebe11b5:	48 8b 45 f8          	mov    -0x8(%rbp),%rax
    bebe11b9:	48 ba 1f 56 be be 00 	movabs $0xbebe561f,%rdx
    bebe11c0:	00 00 00 
    bebe11c3:	48 89 d6             	mov    %rdx,%rsi
    bebe11c6:	48 89 c7             	mov    %rax,%rdi
    bebe11c9:	b8 00 00 00 00       	mov    $0x0,%eax
    bebe11ce:	48 ba fa 12 be be 00 	movabs $0xbebe12fa,%rdx
    bebe11d5:	00 00 00 
    bebe11d8:	ff d2                	call   *%rdx
    bebe11da:	90                   	nop
    bebe11db:	c9                   	leave
    bebe11dc:	c3                   	ret
    bebe11dd:	90                   	nop

00000000bebe11de <_ZN6syslog7kprintfEPKcz>:
    bebe11de:	55                   	push   %rbp
    bebe11df:	48 89 e5             	mov    %rsp,%rbp
    bebe11e2:	48 81 ec e0 00 00 00 	sub    $0xe0,%rsp
    bebe11e9:	48 89 bd 28 ff ff ff 	mov    %rdi,-0xd8(%rbp)
    bebe11f0:	48 89 b5 58 ff ff ff 	mov    %rsi,-0xa8(%rbp)
    bebe11f7:	48 89 95 60 ff ff ff 	mov    %rdx,-0xa0(%rbp)
    bebe11fe:	48 89 8d 68 ff ff ff 	mov    %rcx,-0x98(%rbp)
    bebe1205:	4c 89 85 70 ff ff ff 	mov    %r8,-0x90(%rbp)
    bebe120c:	4c 89 8d 78 ff ff ff 	mov    %r9,-0x88(%rbp)
    bebe1213:	84 c0                	test   %al,%al
    bebe1215:	74 20                	je     bebe1237 <_ZN6syslog7kprintfEPKcz+0x59>
    bebe1217:	0f 29 45 80          	movaps %xmm0,-0x80(%rbp)
    bebe121b:	0f 29 4d 90          	movaps %xmm1,-0x70(%rbp)
    bebe121f:	0f 29 55 a0          	movaps %xmm2,-0x60(%rbp)
    bebe1223:	0f 29 5d b0          	movaps %xmm3,-0x50(%rbp)
    bebe1227:	0f 29 65 c0          	movaps %xmm4,-0x40(%rbp)
    bebe122b:	0f 29 6d d0          	movaps %xmm5,-0x30(%rbp)
    bebe122f:	0f 29 75 e0          	movaps %xmm6,-0x20(%rbp)
    bebe1233:	0f 29 7d f0          	movaps %xmm7,-0x10(%rbp)
    bebe1237:	c7 85 30 ff ff ff 08 	movl   $0x8,-0xd0(%rbp)
    bebe123e:	00 00 00 
    bebe1241:	c7 85 34 ff ff ff 30 	movl   $0x30,-0xcc(%rbp)
    bebe1248:	00 00 00 
    bebe124b:	48 8d 45 10          	lea    0x10(%rbp),%rax
    bebe124f:	48 89 85 38 ff ff ff 	mov    %rax,-0xc8(%rbp)
    bebe1256:	48 8d 85 50 ff ff ff 	lea    -0xb0(%rbp),%rax
    bebe125d:	48 89 85 40 ff ff ff 	mov    %rax,-0xc0(%rbp)
    bebe1264:	48 8d 95 30 ff ff ff 	lea    -0xd0(%rbp),%rdx
    bebe126b:	48 8b 85 28 ff ff ff 	mov    -0xd8(%rbp),%rax
    bebe1272:	48 89 c6             	mov    %rax,%rsi
    bebe1275:	48 b8 e0 64 be be 00 	movabs $0xbebe64e0,%rax
    bebe127c:	00 00 00 
    bebe127f:	48 89 c7             	mov    %rax,%rdi
    bebe1282:	48 b8 4c 49 be be 00 	movabs $0xbebe494c,%rax
    bebe1289:	00 00 00 
    bebe128c:	ff d0                	call   *%rax
    bebe128e:	89 85 48 ff ff ff    	mov    %eax,-0xb8(%rbp)
    bebe1294:	c7 85 4c ff ff ff 00 	movl   $0x0,-0xb4(%rbp)
    bebe129b:	00 00 00 
    bebe129e:	eb 33                	jmp    bebe12d3 <_ZN6syslog7kprintfEPKcz+0xf5>
    bebe12a0:	48 ba e0 64 be be 00 	movabs $0xbebe64e0,%rdx
    bebe12a7:	00 00 00 
    bebe12aa:	8b 85 4c ff ff ff    	mov    -0xb4(%rbp),%eax
    bebe12b0:	48 98                	cltq
    bebe12b2:	0f b6 04 02          	movzbl (%rdx,%rax,1),%eax
    bebe12b6:	0f b6 c0             	movzbl %al,%eax
    bebe12b9:	89 c6                	mov    %eax,%esi
    bebe12bb:	bf f8 03 00 00       	mov    $0x3f8,%edi
    bebe12c0:	48 b8 2a 0f be be 00 	movabs $0xbebe0f2a,%rax
    bebe12c7:	00 00 00 
    bebe12ca:	ff d0                	call   *%rax
    bebe12cc:	83 85 4c ff ff ff 01 	addl   $0x1,-0xb4(%rbp)
    bebe12d3:	8b 85 4c ff ff ff    	mov    -0xb4(%rbp),%eax
    bebe12d9:	3b 85 48 ff ff ff    	cmp    -0xb8(%rbp),%eax
    bebe12df:	7c bf                	jl     bebe12a0 <_ZN6syslog7kprintfEPKcz+0xc2>
    bebe12e1:	be 00 00 00 00       	mov    $0x0,%esi
    bebe12e6:	bf f8 03 00 00       	mov    $0x3f8,%edi
    bebe12eb:	48 b8 2a 0f be be 00 	movabs $0xbebe0f2a,%rax
    bebe12f2:	00 00 00 
    bebe12f5:	ff d0                	call   *%rax
    bebe12f7:	90                   	nop
    bebe12f8:	c9                   	leave
    bebe12f9:	c3                   	ret

00000000bebe12fa <_ZN6syslogclEPKcz>:
    bebe12fa:	55                   	push   %rbp
    bebe12fb:	48 89 e5             	mov    %rsp,%rbp
    bebe12fe:	48 81 ec f0 00 00 00 	sub    $0xf0,%rsp
    bebe1305:	48 89 bd 18 ff ff ff 	mov    %rdi,-0xe8(%rbp)
    bebe130c:	48 89 b5 10 ff ff ff 	mov    %rsi,-0xf0(%rbp)
    bebe1313:	48 89 95 60 ff ff ff 	mov    %rdx,-0xa0(%rbp)
    bebe131a:	48 89 8d 68 ff ff ff 	mov    %rcx,-0x98(%rbp)
    bebe1321:	4c 89 85 70 ff ff ff 	mov    %r8,-0x90(%rbp)
    bebe1328:	4c 89 8d 78 ff ff ff 	mov    %r9,-0x88(%rbp)
    bebe132f:	84 c0                	test   %al,%al
    bebe1331:	74 20                	je     bebe1353 <_ZN6syslogclEPKcz+0x59>
    bebe1333:	0f 29 45 80          	movaps %xmm0,-0x80(%rbp)
    bebe1337:	0f 29 4d 90          	movaps %xmm1,-0x70(%rbp)
    bebe133b:	0f 29 55 a0          	movaps %xmm2,-0x60(%rbp)
    bebe133f:	0f 29 5d b0          	movaps %xmm3,-0x50(%rbp)
    bebe1343:	0f 29 65 c0          	movaps %xmm4,-0x40(%rbp)
    bebe1347:	0f 29 6d d0          	movaps %xmm5,-0x30(%rbp)
    bebe134b:	0f 29 75 e0          	movaps %xmm6,-0x20(%rbp)
    bebe134f:	0f 29 7d f0          	movaps %xmm7,-0x10(%rbp)
    bebe1353:	48 b8 60 58 be be 00 	movabs $0xbebe5860,%rax
    bebe135a:	00 00 00 
    bebe135d:	0f b6 00             	movzbl (%rax),%eax
    bebe1360:	83 f0 01             	xor    $0x1,%eax
    bebe1363:	84 c0                	test   %al,%al
    bebe1365:	0f 85 15 01 00 00    	jne    bebe1480 <_ZN6syslogclEPKcz+0x186>
    bebe136b:	c7 85 28 ff ff ff 10 	movl   $0x10,-0xd8(%rbp)
    bebe1372:	00 00 00 
    bebe1375:	c7 85 2c ff ff ff 30 	movl   $0x30,-0xd4(%rbp)
    bebe137c:	00 00 00 
    bebe137f:	48 8d 45 10          	lea    0x10(%rbp),%rax
    bebe1383:	48 89 85 30 ff ff ff 	mov    %rax,-0xd0(%rbp)
    bebe138a:	48 8d 85 50 ff ff ff 	lea    -0xb0(%rbp),%rax
    bebe1391:	48 89 85 38 ff ff ff 	mov    %rax,-0xc8(%rbp)
    bebe1398:	48 8d 95 28 ff ff ff 	lea    -0xd8(%rbp),%rdx
    bebe139f:	48 8b 85 10 ff ff ff 	mov    -0xf0(%rbp),%rax
    bebe13a6:	48 89 c6             	mov    %rax,%rsi
    bebe13a9:	48 b8 e0 64 be be 00 	movabs $0xbebe64e0,%rax
    bebe13b0:	00 00 00 
    bebe13b3:	48 89 c7             	mov    %rax,%rdi
    bebe13b6:	48 b8 4c 49 be be 00 	movabs $0xbebe494c,%rax
    bebe13bd:	00 00 00 
    bebe13c0:	ff d0                	call   *%rax
    bebe13c2:	89 85 44 ff ff ff    	mov    %eax,-0xbc(%rbp)
    bebe13c8:	c7 85 4c ff ff ff 00 	movl   $0x0,-0xb4(%rbp)
    bebe13cf:	00 00 00 
    bebe13d2:	eb 1d                	jmp    bebe13f1 <_ZN6syslogclEPKcz+0xf7>
    bebe13d4:	be 20 00 00 00       	mov    $0x20,%esi
    bebe13d9:	bf f8 03 00 00       	mov    $0x3f8,%edi
    bebe13de:	48 b8 2a 0f be be 00 	movabs $0xbebe0f2a,%rax
    bebe13e5:	00 00 00 
    bebe13e8:	ff d0                	call   *%rax
    bebe13ea:	83 85 4c ff ff ff 01 	addl   $0x1,-0xb4(%rbp)
    bebe13f1:	48 b8 c0 64 be be 00 	movabs $0xbebe64c0,%rax
    bebe13f8:	00 00 00 
    bebe13fb:	8b 00                	mov    (%rax),%eax
    bebe13fd:	39 85 4c ff ff ff    	cmp    %eax,-0xb4(%rbp)
    bebe1403:	7c cf                	jl     bebe13d4 <_ZN6syslogclEPKcz+0xda>
    bebe1405:	c7 85 48 ff ff ff 00 	movl   $0x0,-0xb8(%rbp)
    bebe140c:	00 00 00 
    bebe140f:	eb 33                	jmp    bebe1444 <_ZN6syslogclEPKcz+0x14a>
    bebe1411:	48 ba e0 64 be be 00 	movabs $0xbebe64e0,%rdx
    bebe1418:	00 00 00 
    bebe141b:	8b 85 48 ff ff ff    	mov    -0xb8(%rbp),%eax
    bebe1421:	48 98                	cltq
    bebe1423:	0f b6 04 02          	movzbl (%rdx,%rax,1),%eax
    bebe1427:	0f b6 c0             	movzbl %al,%eax
    bebe142a:	89 c6                	mov    %eax,%esi
    bebe142c:	bf f8 03 00 00       	mov    $0x3f8,%edi
    bebe1431:	48 b8 2a 0f be be 00 	movabs $0xbebe0f2a,%rax
    bebe1438:	00 00 00 
    bebe143b:	ff d0                	call   *%rax
    bebe143d:	83 85 48 ff ff ff 01 	addl   $0x1,-0xb8(%rbp)
    bebe1444:	8b 85 48 ff ff ff    	mov    -0xb8(%rbp),%eax
    bebe144a:	3b 85 44 ff ff ff    	cmp    -0xbc(%rbp),%eax
    bebe1450:	7c bf                	jl     bebe1411 <_ZN6syslogclEPKcz+0x117>
    bebe1452:	be 0a 00 00 00       	mov    $0xa,%esi
    bebe1457:	bf f8 03 00 00       	mov    $0x3f8,%edi
    bebe145c:	48 b8 2a 0f be be 00 	movabs $0xbebe0f2a,%rax
    bebe1463:	00 00 00 
    bebe1466:	ff d0                	call   *%rax
    bebe1468:	be 00 00 00 00       	mov    $0x0,%esi
    bebe146d:	bf f8 03 00 00       	mov    $0x3f8,%edi
    bebe1472:	48 b8 2a 0f be be 00 	movabs $0xbebe0f2a,%rax
    bebe1479:	00 00 00 
    bebe147c:	ff d0                	call   *%rax
    bebe147e:	eb 01                	jmp    bebe1481 <_ZN6syslogclEPKcz+0x187>
    bebe1480:	90                   	nop
    bebe1481:	c9                   	leave
    bebe1482:	c3                   	ret

00000000bebe1483 <_ZN11kfilesystem18vfsInsertDirectoryEPKc>:
    bebe1483:	55                   	push   %rbp
    bebe1484:	48 89 e5             	mov    %rsp,%rbp
    bebe1487:	48 83 ec 60          	sub    $0x60,%rsp
    bebe148b:	48 89 7d a8          	mov    %rdi,-0x58(%rbp)
    bebe148f:	ba 80 00 00 00       	mov    $0x80,%edx
    bebe1494:	be 00 00 00 00       	mov    $0x0,%esi
    bebe1499:	48 b8 60 65 be be 00 	movabs $0xbebe6560,%rax
    bebe14a0:	00 00 00 
    bebe14a3:	48 89 c7             	mov    %rax,%rdi
    bebe14a6:	48 b8 83 52 be be 00 	movabs $0xbebe5283,%rax
    bebe14ad:	00 00 00 
    bebe14b0:	ff d0                	call   *%rax
    bebe14b2:	ba 80 00 00 00       	mov    $0x80,%edx
    bebe14b7:	be 00 00 00 00       	mov    $0x0,%esi
    bebe14bc:	48 b8 e0 65 be be 00 	movabs $0xbebe65e0,%rax
    bebe14c3:	00 00 00 
    bebe14c6:	48 89 c7             	mov    %rax,%rdi
    bebe14c9:	48 b8 83 52 be be 00 	movabs $0xbebe5283,%rax
    bebe14d0:	00 00 00 
    bebe14d3:	ff d0                	call   *%rax
    bebe14d5:	48 8b 45 a8          	mov    -0x58(%rbp),%rax
    bebe14d9:	48 89 c7             	mov    %rax,%rdi
    bebe14dc:	48 b8 3d 54 be be 00 	movabs $0xbebe543d,%rax
    bebe14e3:	00 00 00 
    bebe14e6:	ff d0                	call   *%rax
    bebe14e8:	48 89 45 d8          	mov    %rax,-0x28(%rbp)
    bebe14ec:	48 b8 60 65 be be 00 	movabs $0xbebe6560,%rax
    bebe14f3:	00 00 00 
    bebe14f6:	48 89 45 d0          	mov    %rax,-0x30(%rbp)
    bebe14fa:	48 8b 45 d8          	mov    -0x28(%rbp),%rax
    bebe14fe:	48 8d 50 ff          	lea    -0x1(%rax),%rdx
    bebe1502:	48 8b 45 a8          	mov    -0x58(%rbp),%rax
    bebe1506:	48 01 d0             	add    %rdx,%rax
    bebe1509:	0f b6 00             	movzbl (%rax),%eax
    bebe150c:	3c 2f                	cmp    $0x2f,%al
    bebe150e:	74 2b                	je     bebe153b <_ZN11kfilesystem18vfsInsertDirectoryEPKc+0xb8>
    bebe1510:	48 8b 55 a8          	mov    -0x58(%rbp),%rdx
    bebe1514:	48 8b 45 d0          	mov    -0x30(%rbp),%rax
    bebe1518:	48 b9 21 56 be be 00 	movabs $0xbebe5621,%rcx
    bebe151f:	00 00 00 
    bebe1522:	48 89 ce             	mov    %rcx,%rsi
    bebe1525:	48 89 c7             	mov    %rax,%rdi
    bebe1528:	b8 00 00 00 00       	mov    $0x0,%eax
    bebe152d:	48 b9 3e 4b be be 00 	movabs $0xbebe4b3e,%rcx
    bebe1534:	00 00 00 
    bebe1537:	ff d1                	call   *%rcx
    bebe1539:	eb 29                	jmp    bebe1564 <_ZN11kfilesystem18vfsInsertDirectoryEPKc+0xe1>
    bebe153b:	48 8b 55 a8          	mov    -0x58(%rbp),%rdx
    bebe153f:	48 8b 45 d0          	mov    -0x30(%rbp),%rax
    bebe1543:	48 b9 25 56 be be 00 	movabs $0xbebe5625,%rcx
    bebe154a:	00 00 00 
    bebe154d:	48 89 ce             	mov    %rcx,%rsi
    bebe1550:	48 89 c7             	mov    %rax,%rdi
    bebe1553:	b8 00 00 00 00       	mov    $0x0,%eax
    bebe1558:	48 b9 3e 4b be be 00 	movabs $0xbebe4b3e,%rcx
    bebe155f:	00 00 00 
    bebe1562:	ff d1                	call   *%rcx
    bebe1564:	48 8b 45 d0          	mov    -0x30(%rbp),%rax
    bebe1568:	be 2f 00 00 00       	mov    $0x2f,%esi
    bebe156d:	48 89 c7             	mov    %rax,%rdi
    bebe1570:	48 b8 72 35 be be 00 	movabs $0xbebe3572,%rax
    bebe1577:	00 00 00 
    bebe157a:	ff d0                	call   *%rax
    bebe157c:	48 89 45 c8          	mov    %rax,-0x38(%rbp)
    bebe1580:	48 c7 45 f8 00 00 00 	movq   $0x0,-0x8(%rbp)
    bebe1587:	00 
    bebe1588:	48 b8 e0 65 be be 00 	movabs $0xbebe65e0,%rax
    bebe158f:	00 00 00 
    bebe1592:	48 89 45 c0          	mov    %rax,-0x40(%rbp)
    bebe1596:	48 8b 45 d0          	mov    -0x30(%rbp),%rax
    bebe159a:	48 89 45 f0          	mov    %rax,-0x10(%rbp)
    bebe159e:	48 8b 45 f0          	mov    -0x10(%rbp),%rax
    bebe15a2:	48 89 45 b8          	mov    %rax,-0x48(%rbp)
    bebe15a6:	48 b8 60 66 be be 00 	movabs $0xbebe6660,%rax
    bebe15ad:	00 00 00 
    bebe15b0:	48 8b 00             	mov    (%rax),%rax
    bebe15b3:	48 89 45 e8          	mov    %rax,-0x18(%rbp)
    bebe15b7:	e9 c9 00 00 00       	jmp    bebe1685 <_ZN11kfilesystem18vfsInsertDirectoryEPKc+0x202>
    bebe15bc:	48 8b 45 f0          	mov    -0x10(%rbp),%rax
    bebe15c0:	48 ba 28 56 be be 00 	movabs $0xbebe5628,%rdx
    bebe15c7:	00 00 00 
    bebe15ca:	48 89 d6             	mov    %rdx,%rsi
    bebe15cd:	48 89 c7             	mov    %rax,%rdi
    bebe15d0:	48 b8 55 36 be be 00 	movabs $0xbebe3655,%rax
    bebe15d7:	00 00 00 
    bebe15da:	ff d0                	call   *%rax
    bebe15dc:	48 89 45 b8          	mov    %rax,-0x48(%rbp)
    bebe15e0:	48 8b 45 b8          	mov    -0x48(%rbp),%rax
    bebe15e4:	48 2b 45 f0          	sub    -0x10(%rbp),%rax
    bebe15e8:	48 83 c0 01          	add    $0x1,%rax
    bebe15ec:	48 89 c2             	mov    %rax,%rdx
    bebe15ef:	48 8b 4d f0          	mov    -0x10(%rbp),%rcx
    bebe15f3:	48 8b 45 c0          	mov    -0x40(%rbp),%rax
    bebe15f7:	48 89 ce             	mov    %rcx,%rsi
    bebe15fa:	48 89 c7             	mov    %rax,%rdi
    bebe15fd:	48 b8 db 53 be be 00 	movabs $0xbebe53db,%rax
    bebe1604:	00 00 00 
    bebe1607:	ff d0                	call   *%rax
    bebe1609:	48 8b 45 b8          	mov    -0x48(%rbp),%rax
    bebe160d:	48 83 c0 01          	add    $0x1,%rax
    bebe1611:	48 89 45 f0          	mov    %rax,-0x10(%rbp)
    bebe1615:	48 8b 55 c0          	mov    -0x40(%rbp),%rdx
    bebe1619:	48 8b 45 e8          	mov    -0x18(%rbp),%rax
    bebe161d:	48 89 d6             	mov    %rdx,%rsi
    bebe1620:	48 89 c7             	mov    %rax,%rdi
    bebe1623:	48 b8 b6 1e be be 00 	movabs $0xbebe1eb6,%rax
    bebe162a:	00 00 00 
    bebe162d:	ff d0                	call   *%rax
    bebe162f:	48 89 45 e0          	mov    %rax,-0x20(%rbp)
    bebe1633:	48 83 7d e0 00       	cmpq   $0x0,-0x20(%rbp)
    bebe1638:	75 20                	jne    bebe165a <_ZN11kfilesystem18vfsInsertDirectoryEPKc+0x1d7>
    bebe163a:	48 8b 55 c0          	mov    -0x40(%rbp),%rdx
    bebe163e:	48 8b 45 e8          	mov    -0x18(%rbp),%rax
    bebe1642:	48 89 d6             	mov    %rdx,%rsi
    bebe1645:	48 89 c7             	mov    %rax,%rdi
    bebe1648:	48 b8 f2 1f be be 00 	movabs $0xbebe1ff2,%rax
    bebe164f:	00 00 00 
    bebe1652:	ff d0                	call   *%rax
    bebe1654:	48 89 45 e0          	mov    %rax,-0x20(%rbp)
    bebe1658:	eb 1e                	jmp    bebe1678 <_ZN11kfilesystem18vfsInsertDirectoryEPKc+0x1f5>
    bebe165a:	48 8b 45 e0          	mov    -0x20(%rbp),%rax
    bebe165e:	48 89 c7             	mov    %rax,%rdi
    bebe1661:	48 b8 5a 1d be be 00 	movabs $0xbebe1d5a,%rax
    bebe1668:	00 00 00 
    bebe166b:	ff d0                	call   *%rax
    bebe166d:	84 c0                	test   %al,%al
    bebe166f:	74 07                	je     bebe1678 <_ZN11kfilesystem18vfsInsertDirectoryEPKc+0x1f5>
    bebe1671:	b8 00 00 00 00       	mov    $0x0,%eax
    bebe1676:	eb 1f                	jmp    bebe1697 <_ZN11kfilesystem18vfsInsertDirectoryEPKc+0x214>
    bebe1678:	48 8b 45 e0          	mov    -0x20(%rbp),%rax
    bebe167c:	48 89 45 e8          	mov    %rax,-0x18(%rbp)
    bebe1680:	48 83 45 f8 01       	addq   $0x1,-0x8(%rbp)
    bebe1685:	48 8b 45 f8          	mov    -0x8(%rbp),%rax
    bebe1689:	48 3b 45 c8          	cmp    -0x38(%rbp),%rax
    bebe168d:	0f 82 29 ff ff ff    	jb     bebe15bc <_ZN11kfilesystem18vfsInsertDirectoryEPKc+0x139>
    bebe1693:	48 8b 45 e8          	mov    -0x18(%rbp),%rax
    bebe1697:	c9                   	leave
    bebe1698:	c3                   	ret

00000000bebe1699 <_ZN11kfilesystem16vfsFindDirectoryEPKc>:
    bebe1699:	55                   	push   %rbp
    bebe169a:	48 89 e5             	mov    %rsp,%rbp
    bebe169d:	48 83 ec 10          	sub    $0x10,%rsp
    bebe16a1:	48 89 7d f8          	mov    %rdi,-0x8(%rbp)
    bebe16a5:	48 b8 60 66 be be 00 	movabs $0xbebe6660,%rax
    bebe16ac:	00 00 00 
    bebe16af:	48 8b 00             	mov    (%rax),%rax
    bebe16b2:	48 8b 55 f8          	mov    -0x8(%rbp),%rdx
    bebe16b6:	48 89 d6             	mov    %rdx,%rsi
    bebe16b9:	48 89 c7             	mov    %rax,%rdi
    bebe16bc:	48 b8 ca 16 be be 00 	movabs $0xbebe16ca,%rax
    bebe16c3:	00 00 00 
    bebe16c6:	ff d0                	call   *%rax
    bebe16c8:	c9                   	leave
    bebe16c9:	c3                   	ret

00000000bebe16ca <_ZN11kfilesystem16vfsFindDirectoryEP11vfsDirEntryPKc>:
    bebe16ca:	55                   	push   %rbp
    bebe16cb:	48 89 e5             	mov    %rsp,%rbp
    bebe16ce:	48 83 ec 60          	sub    $0x60,%rsp
    bebe16d2:	48 89 7d a8          	mov    %rdi,-0x58(%rbp)
    bebe16d6:	48 89 75 a0          	mov    %rsi,-0x60(%rbp)
    bebe16da:	48 8b 45 a0          	mov    -0x60(%rbp),%rax
    bebe16de:	48 ba 2b 56 be be 00 	movabs $0xbebe562b,%rdx
    bebe16e5:	00 00 00 
    bebe16e8:	48 89 d6             	mov    %rdx,%rsi
    bebe16eb:	48 89 c7             	mov    %rax,%rdi
    bebe16ee:	48 b8 d0 52 be be 00 	movabs $0xbebe52d0,%rax
    bebe16f5:	00 00 00 
    bebe16f8:	ff d0                	call   *%rax
    bebe16fa:	85 c0                	test   %eax,%eax
    bebe16fc:	0f 94 c0             	sete   %al
    bebe16ff:	84 c0                	test   %al,%al
    bebe1701:	74 12                	je     bebe1715 <_ZN11kfilesystem16vfsFindDirectoryEP11vfsDirEntryPKc+0x4b>
    bebe1703:	48 b8 60 66 be be 00 	movabs $0xbebe6660,%rax
    bebe170a:	00 00 00 
    bebe170d:	48 8b 00             	mov    (%rax),%rax
    bebe1710:	e9 27 02 00 00       	jmp    bebe193c <_ZN11kfilesystem16vfsFindDirectoryEP11vfsDirEntryPKc+0x272>
    bebe1715:	48 8b 45 a0          	mov    -0x60(%rbp),%rax
    bebe1719:	0f b6 00             	movzbl (%rax),%eax
    bebe171c:	3c 2f                	cmp    $0x2f,%al
    bebe171e:	75 16                	jne    bebe1736 <_ZN11kfilesystem16vfsFindDirectoryEP11vfsDirEntryPKc+0x6c>
    bebe1720:	48 b8 60 66 be be 00 	movabs $0xbebe6660,%rax
    bebe1727:	00 00 00 
    bebe172a:	48 8b 00             	mov    (%rax),%rax
    bebe172d:	48 89 45 a8          	mov    %rax,-0x58(%rbp)
    bebe1731:	48 83 45 a0 01       	addq   $0x1,-0x60(%rbp)
    bebe1736:	ba 80 00 00 00       	mov    $0x80,%edx
    bebe173b:	be 00 00 00 00       	mov    $0x0,%esi
    bebe1740:	48 b8 60 65 be be 00 	movabs $0xbebe6560,%rax
    bebe1747:	00 00 00 
    bebe174a:	48 89 c7             	mov    %rax,%rdi
    bebe174d:	48 b8 83 52 be be 00 	movabs $0xbebe5283,%rax
    bebe1754:	00 00 00 
    bebe1757:	ff d0                	call   *%rax
    bebe1759:	ba 80 00 00 00       	mov    $0x80,%edx
    bebe175e:	be 00 00 00 00       	mov    $0x0,%esi
    bebe1763:	48 b8 e0 65 be be 00 	movabs $0xbebe65e0,%rax
    bebe176a:	00 00 00 
    bebe176d:	48 89 c7             	mov    %rax,%rdi
    bebe1770:	48 b8 83 52 be be 00 	movabs $0xbebe5283,%rax
    bebe1777:	00 00 00 
    bebe177a:	ff d0                	call   *%rax
    bebe177c:	48 8b 45 a0          	mov    -0x60(%rbp),%rax
    bebe1780:	48 89 c7             	mov    %rax,%rdi
    bebe1783:	48 b8 3d 54 be be 00 	movabs $0xbebe543d,%rax
    bebe178a:	00 00 00 
    bebe178d:	ff d0                	call   *%rax
    bebe178f:	48 89 45 e0          	mov    %rax,-0x20(%rbp)
    bebe1793:	48 b8 60 65 be be 00 	movabs $0xbebe6560,%rax
    bebe179a:	00 00 00 
    bebe179d:	48 89 45 d8          	mov    %rax,-0x28(%rbp)
    bebe17a1:	48 8b 45 e0          	mov    -0x20(%rbp),%rax
    bebe17a5:	48 8d 50 ff          	lea    -0x1(%rax),%rdx
    bebe17a9:	48 8b 45 a0          	mov    -0x60(%rbp),%rax
    bebe17ad:	48 01 d0             	add    %rdx,%rax
    bebe17b0:	0f b6 00             	movzbl (%rax),%eax
    bebe17b3:	3c 2f                	cmp    $0x2f,%al
    bebe17b5:	74 2b                	je     bebe17e2 <_ZN11kfilesystem16vfsFindDirectoryEP11vfsDirEntryPKc+0x118>
    bebe17b7:	48 8b 55 a0          	mov    -0x60(%rbp),%rdx
    bebe17bb:	48 8b 45 d8          	mov    -0x28(%rbp),%rax
    bebe17bf:	48 b9 21 56 be be 00 	movabs $0xbebe5621,%rcx
    bebe17c6:	00 00 00 
    bebe17c9:	48 89 ce             	mov    %rcx,%rsi
    bebe17cc:	48 89 c7             	mov    %rax,%rdi
    bebe17cf:	b8 00 00 00 00       	mov    $0x0,%eax
    bebe17d4:	48 b9 3e 4b be be 00 	movabs $0xbebe4b3e,%rcx
    bebe17db:	00 00 00 
    bebe17de:	ff d1                	call   *%rcx
    bebe17e0:	eb 29                	jmp    bebe180b <_ZN11kfilesystem16vfsFindDirectoryEP11vfsDirEntryPKc+0x141>
    bebe17e2:	48 8b 55 a0          	mov    -0x60(%rbp),%rdx
    bebe17e6:	48 8b 45 d8          	mov    -0x28(%rbp),%rax
    bebe17ea:	48 b9 25 56 be be 00 	movabs $0xbebe5625,%rcx
    bebe17f1:	00 00 00 
    bebe17f4:	48 89 ce             	mov    %rcx,%rsi
    bebe17f7:	48 89 c7             	mov    %rax,%rdi
    bebe17fa:	b8 00 00 00 00       	mov    $0x0,%eax
    bebe17ff:	48 b9 3e 4b be be 00 	movabs $0xbebe4b3e,%rcx
    bebe1806:	00 00 00 
    bebe1809:	ff d1                	call   *%rcx
    bebe180b:	48 8b 45 d8          	mov    -0x28(%rbp),%rax
    bebe180f:	be 2f 00 00 00       	mov    $0x2f,%esi
    bebe1814:	48 89 c7             	mov    %rax,%rdi
    bebe1817:	48 b8 72 35 be be 00 	movabs $0xbebe3572,%rax
    bebe181e:	00 00 00 
    bebe1821:	ff d0                	call   *%rax
    bebe1823:	48 89 45 d0          	mov    %rax,-0x30(%rbp)
    bebe1827:	48 c7 45 f8 00 00 00 	movq   $0x0,-0x8(%rbp)
    bebe182e:	00 
    bebe182f:	48 8b 45 d8          	mov    -0x28(%rbp),%rax
    bebe1833:	48 89 c7             	mov    %rax,%rdi
    bebe1836:	48 b8 3d 54 be be 00 	movabs $0xbebe543d,%rax
    bebe183d:	00 00 00 
    bebe1840:	ff d0                	call   *%rax
    bebe1842:	48 89 45 c8          	mov    %rax,-0x38(%rbp)
    bebe1846:	48 b8 e0 65 be be 00 	movabs $0xbebe65e0,%rax
    bebe184d:	00 00 00 
    bebe1850:	48 89 45 c0          	mov    %rax,-0x40(%rbp)
    bebe1854:	48 8b 45 d8          	mov    -0x28(%rbp),%rax
    bebe1858:	48 89 45 f0          	mov    %rax,-0x10(%rbp)
    bebe185c:	48 8b 45 f0          	mov    -0x10(%rbp),%rax
    bebe1860:	48 89 45 b8          	mov    %rax,-0x48(%rbp)
    bebe1864:	48 8b 45 a8          	mov    -0x58(%rbp),%rax
    bebe1868:	48 89 45 e8          	mov    %rax,-0x18(%rbp)
    bebe186c:	e9 b9 00 00 00       	jmp    bebe192a <_ZN11kfilesystem16vfsFindDirectoryEP11vfsDirEntryPKc+0x260>
    bebe1871:	48 8b 45 f0          	mov    -0x10(%rbp),%rax
    bebe1875:	48 ba 28 56 be be 00 	movabs $0xbebe5628,%rdx
    bebe187c:	00 00 00 
    bebe187f:	48 89 d6             	mov    %rdx,%rsi
    bebe1882:	48 89 c7             	mov    %rax,%rdi
    bebe1885:	48 b8 55 36 be be 00 	movabs $0xbebe3655,%rax
    bebe188c:	00 00 00 
    bebe188f:	ff d0                	call   *%rax
    bebe1891:	48 89 45 b8          	mov    %rax,-0x48(%rbp)
    bebe1895:	48 8b 45 b8          	mov    -0x48(%rbp),%rax
    bebe1899:	48 2b 45 f0          	sub    -0x10(%rbp),%rax
    bebe189d:	48 83 c0 01          	add    $0x1,%rax
    bebe18a1:	48 89 c2             	mov    %rax,%rdx
    bebe18a4:	48 8b 4d f0          	mov    -0x10(%rbp),%rcx
    bebe18a8:	48 8b 45 c0          	mov    -0x40(%rbp),%rax
    bebe18ac:	48 89 ce             	mov    %rcx,%rsi
    bebe18af:	48 89 c7             	mov    %rax,%rdi
    bebe18b2:	48 b8 db 53 be be 00 	movabs $0xbebe53db,%rax
    bebe18b9:	00 00 00 
    bebe18bc:	ff d0                	call   *%rax
    bebe18be:	48 8b 45 b8          	mov    -0x48(%rbp),%rax
    bebe18c2:	48 83 c0 01          	add    $0x1,%rax
    bebe18c6:	48 89 45 f0          	mov    %rax,-0x10(%rbp)
    bebe18ca:	48 8b 55 c0          	mov    -0x40(%rbp),%rdx
    bebe18ce:	48 8b 45 e8          	mov    -0x18(%rbp),%rax
    bebe18d2:	48 89 d6             	mov    %rdx,%rsi
    bebe18d5:	48 89 c7             	mov    %rax,%rdi
    bebe18d8:	48 b8 b6 1e be be 00 	movabs $0xbebe1eb6,%rax
    bebe18df:	00 00 00 
    bebe18e2:	ff d0                	call   *%rax
    bebe18e4:	48 89 45 b0          	mov    %rax,-0x50(%rbp)
    bebe18e8:	48 83 7d b0 00       	cmpq   $0x0,-0x50(%rbp)
    bebe18ed:	74 17                	je     bebe1906 <_ZN11kfilesystem16vfsFindDirectoryEP11vfsDirEntryPKc+0x23c>
    bebe18ef:	48 8b 45 b0          	mov    -0x50(%rbp),%rax
    bebe18f3:	48 89 c7             	mov    %rax,%rdi
    bebe18f6:	48 b8 5a 1d be be 00 	movabs $0xbebe1d5a,%rax
    bebe18fd:	00 00 00 
    bebe1900:	ff d0                	call   *%rax
    bebe1902:	84 c0                	test   %al,%al
    bebe1904:	74 07                	je     bebe190d <_ZN11kfilesystem16vfsFindDirectoryEP11vfsDirEntryPKc+0x243>
    bebe1906:	b8 01 00 00 00       	mov    $0x1,%eax
    bebe190b:	eb 05                	jmp    bebe1912 <_ZN11kfilesystem16vfsFindDirectoryEP11vfsDirEntryPKc+0x248>
    bebe190d:	b8 00 00 00 00       	mov    $0x0,%eax
    bebe1912:	84 c0                	test   %al,%al
    bebe1914:	74 07                	je     bebe191d <_ZN11kfilesystem16vfsFindDirectoryEP11vfsDirEntryPKc+0x253>
    bebe1916:	b8 00 00 00 00       	mov    $0x0,%eax
    bebe191b:	eb 1f                	jmp    bebe193c <_ZN11kfilesystem16vfsFindDirectoryEP11vfsDirEntryPKc+0x272>
    bebe191d:	48 8b 45 b0          	mov    -0x50(%rbp),%rax
    bebe1921:	48 89 45 e8          	mov    %rax,-0x18(%rbp)
    bebe1925:	48 83 45 f8 01       	addq   $0x1,-0x8(%rbp)
    bebe192a:	48 8b 45 f8          	mov    -0x8(%rbp),%rax
    bebe192e:	48 3b 45 d0          	cmp    -0x30(%rbp),%rax
    bebe1932:	0f 82 39 ff ff ff    	jb     bebe1871 <_ZN11kfilesystem16vfsFindDirectoryEP11vfsDirEntryPKc+0x1a7>
    bebe1938:	48 8b 45 e8          	mov    -0x18(%rbp),%rax
    bebe193c:	c9                   	leave
    bebe193d:	c3                   	ret

00000000bebe193e <_ZN11kfilesystem13vfsInsertFileEPKcS1_Pvmh>:
    bebe193e:	55                   	push   %rbp
    bebe193f:	48 89 e5             	mov    %rsp,%rbp
    bebe1942:	48 83 ec 50          	sub    $0x50,%rsp
    bebe1946:	48 89 7d d8          	mov    %rdi,-0x28(%rbp)
    bebe194a:	48 89 75 d0          	mov    %rsi,-0x30(%rbp)
    bebe194e:	48 89 55 c8          	mov    %rdx,-0x38(%rbp)
    bebe1952:	48 89 4d c0          	mov    %rcx,-0x40(%rbp)
    bebe1956:	44 89 c0             	mov    %r8d,%eax
    bebe1959:	88 45 bc             	mov    %al,-0x44(%rbp)
    bebe195c:	48 8b 45 d8          	mov    -0x28(%rbp),%rax
    bebe1960:	48 89 c7             	mov    %rax,%rdi
    bebe1963:	48 b8 99 16 be be 00 	movabs $0xbebe1699,%rax
    bebe196a:	00 00 00 
    bebe196d:	ff d0                	call   *%rax
    bebe196f:	48 89 45 f8          	mov    %rax,-0x8(%rbp)
    bebe1973:	48 83 7d f8 00       	cmpq   $0x0,-0x8(%rbp)
    bebe1978:	75 17                	jne    bebe1991 <_ZN11kfilesystem13vfsInsertFileEPKcS1_Pvmh+0x53>
    bebe197a:	48 8b 45 d8          	mov    -0x28(%rbp),%rax
    bebe197e:	48 89 c7             	mov    %rax,%rdi
    bebe1981:	48 b8 83 14 be be 00 	movabs $0xbebe1483,%rax
    bebe1988:	00 00 00 
    bebe198b:	ff d0                	call   *%rax
    bebe198d:	48 89 45 f8          	mov    %rax,-0x8(%rbp)
    bebe1991:	48 83 7d f8 00       	cmpq   $0x0,-0x8(%rbp)
    bebe1996:	75 07                	jne    bebe199f <_ZN11kfilesystem13vfsInsertFileEPKcS1_Pvmh+0x61>
    bebe1998:	b8 00 00 00 00       	mov    $0x0,%eax
    bebe199d:	eb 77                	jmp    bebe1a16 <_ZN11kfilesystem13vfsInsertFileEPKcS1_Pvmh+0xd8>
    bebe199f:	48 8b 55 d0          	mov    -0x30(%rbp),%rdx
    bebe19a3:	48 8b 45 f8          	mov    -0x8(%rbp),%rax
    bebe19a7:	48 89 d6             	mov    %rdx,%rsi
    bebe19aa:	48 89 c7             	mov    %rax,%rdi
    bebe19ad:	48 b8 b6 1e be be 00 	movabs $0xbebe1eb6,%rax
    bebe19b4:	00 00 00 
    bebe19b7:	ff d0                	call   *%rax
    bebe19b9:	48 89 45 f0          	mov    %rax,-0x10(%rbp)
    bebe19bd:	48 83 7d f0 00       	cmpq   $0x0,-0x10(%rbp)
    bebe19c2:	74 24                	je     bebe19e8 <_ZN11kfilesystem13vfsInsertFileEPKcS1_Pvmh+0xaa>
    bebe19c4:	48 8b 45 f0          	mov    -0x10(%rbp),%rax
    bebe19c8:	48 89 c7             	mov    %rax,%rdi
    bebe19cb:	48 b8 44 1d be be 00 	movabs $0xbebe1d44,%rax
    bebe19d2:	00 00 00 
    bebe19d5:	ff d0                	call   *%rax
    bebe19d7:	84 c0                	test   %al,%al
    bebe19d9:	74 07                	je     bebe19e2 <_ZN11kfilesystem13vfsInsertFileEPKcS1_Pvmh+0xa4>
    bebe19db:	b8 00 00 00 00       	mov    $0x0,%eax
    bebe19e0:	eb 34                	jmp    bebe1a16 <_ZN11kfilesystem13vfsInsertFileEPKcS1_Pvmh+0xd8>
    bebe19e2:	48 8b 45 f0          	mov    -0x10(%rbp),%rax
    bebe19e6:	eb 2e                	jmp    bebe1a16 <_ZN11kfilesystem13vfsInsertFileEPKcS1_Pvmh+0xd8>
    bebe19e8:	0f b6 55 bc          	movzbl -0x44(%rbp),%edx
    bebe19ec:	48 8b 7d c0          	mov    -0x40(%rbp),%rdi
    bebe19f0:	48 8b 4d c8          	mov    -0x38(%rbp),%rcx
    bebe19f4:	48 8b 75 d0          	mov    -0x30(%rbp),%rsi
    bebe19f8:	48 8b 45 f8          	mov    -0x8(%rbp),%rax
    bebe19fc:	49 89 f8             	mov    %rdi,%r8
    bebe19ff:	48 89 c7             	mov    %rax,%rdi
    bebe1a02:	48 b8 68 20 be be 00 	movabs $0xbebe2068,%rax
    bebe1a09:	00 00 00 
    bebe1a0c:	ff d0                	call   *%rax
    bebe1a0e:	48 89 45 e8          	mov    %rax,-0x18(%rbp)
    bebe1a12:	48 8b 45 e8          	mov    -0x18(%rbp),%rax
    bebe1a16:	c9                   	leave
    bebe1a17:	c3                   	ret

00000000bebe1a18 <_ZN11kfilesystem11vfsFindFileEPKc>:
    bebe1a18:	55                   	push   %rbp
    bebe1a19:	48 89 e5             	mov    %rsp,%rbp
    bebe1a1c:	48 83 ec 10          	sub    $0x10,%rsp
    bebe1a20:	48 89 7d f8          	mov    %rdi,-0x8(%rbp)
    bebe1a24:	48 b8 60 66 be be 00 	movabs $0xbebe6660,%rax
    bebe1a2b:	00 00 00 
    bebe1a2e:	48 8b 00             	mov    (%rax),%rax
    bebe1a31:	48 8b 55 f8          	mov    -0x8(%rbp),%rdx
    bebe1a35:	48 89 d6             	mov    %rdx,%rsi
    bebe1a38:	48 89 c7             	mov    %rax,%rdi
    bebe1a3b:	48 b8 49 1a be be 00 	movabs $0xbebe1a49,%rax
    bebe1a42:	00 00 00 
    bebe1a45:	ff d0                	call   *%rax
    bebe1a47:	c9                   	leave
    bebe1a48:	c3                   	ret

00000000bebe1a49 <_ZN11kfilesystem11vfsFindFileEP11vfsDirEntryPKc>:
    bebe1a49:	55                   	push   %rbp
    bebe1a4a:	48 89 e5             	mov    %rsp,%rbp
    bebe1a4d:	48 83 ec 60          	sub    $0x60,%rsp
    bebe1a51:	48 89 7d a8          	mov    %rdi,-0x58(%rbp)
    bebe1a55:	48 89 75 a0          	mov    %rsi,-0x60(%rbp)
    bebe1a59:	48 b8 04 37 be be 00 	movabs $0xbebe3704,%rax
    bebe1a60:	00 00 00 
    bebe1a63:	ff d0                	call   *%rax
    bebe1a65:	48 8b 45 a0          	mov    -0x60(%rbp),%rax
    bebe1a69:	0f b6 00             	movzbl (%rax),%eax
    bebe1a6c:	3c 2f                	cmp    $0x2f,%al
    bebe1a6e:	75 16                	jne    bebe1a86 <_ZN11kfilesystem11vfsFindFileEP11vfsDirEntryPKc+0x3d>
    bebe1a70:	48 b8 60 66 be be 00 	movabs $0xbebe6660,%rax
    bebe1a77:	00 00 00 
    bebe1a7a:	48 8b 00             	mov    (%rax),%rax
    bebe1a7d:	48 89 45 a8          	mov    %rax,-0x58(%rbp)
    bebe1a81:	48 83 45 a0 01       	addq   $0x1,-0x60(%rbp)
    bebe1a86:	48 8b 45 a0          	mov    -0x60(%rbp),%rax
    bebe1a8a:	48 89 c7             	mov    %rax,%rdi
    bebe1a8d:	48 b8 3d 54 be be 00 	movabs $0xbebe543d,%rax
    bebe1a94:	00 00 00 
    bebe1a97:	ff d0                	call   *%rax
    bebe1a99:	48 89 45 e0          	mov    %rax,-0x20(%rbp)
    bebe1a9d:	48 b8 60 65 be be 00 	movabs $0xbebe6560,%rax
    bebe1aa4:	00 00 00 
    bebe1aa7:	48 89 45 d8          	mov    %rax,-0x28(%rbp)
    bebe1aab:	48 8b 55 a0          	mov    -0x60(%rbp),%rdx
    bebe1aaf:	48 8b 45 d8          	mov    -0x28(%rbp),%rax
    bebe1ab3:	48 b9 25 56 be be 00 	movabs $0xbebe5625,%rcx
    bebe1aba:	00 00 00 
    bebe1abd:	48 89 ce             	mov    %rcx,%rsi
    bebe1ac0:	48 89 c7             	mov    %rax,%rdi
    bebe1ac3:	b8 00 00 00 00       	mov    $0x0,%eax
    bebe1ac8:	48 b9 3e 4b be be 00 	movabs $0xbebe4b3e,%rcx
    bebe1acf:	00 00 00 
    bebe1ad2:	ff d1                	call   *%rcx
    bebe1ad4:	48 8b 45 a0          	mov    -0x60(%rbp),%rax
    bebe1ad8:	be 2f 00 00 00       	mov    $0x2f,%esi
    bebe1add:	48 89 c7             	mov    %rax,%rdi
    bebe1ae0:	48 b8 72 35 be be 00 	movabs $0xbebe3572,%rax
    bebe1ae7:	00 00 00 
    bebe1aea:	ff d0                	call   *%rax
    bebe1aec:	48 89 45 d0          	mov    %rax,-0x30(%rbp)
    bebe1af0:	48 c7 45 f8 00 00 00 	movq   $0x0,-0x8(%rbp)
    bebe1af7:	00 
    bebe1af8:	48 b8 e0 65 be be 00 	movabs $0xbebe65e0,%rax
    bebe1aff:	00 00 00 
    bebe1b02:	48 89 45 c8          	mov    %rax,-0x38(%rbp)
    bebe1b06:	48 8b 45 d8          	mov    -0x28(%rbp),%rax
    bebe1b0a:	48 89 45 f0          	mov    %rax,-0x10(%rbp)
    bebe1b0e:	48 8b 45 f0          	mov    -0x10(%rbp),%rax
    bebe1b12:	48 89 45 c0          	mov    %rax,-0x40(%rbp)
    bebe1b16:	48 8b 45 a8          	mov    -0x58(%rbp),%rax
    bebe1b1a:	48 89 45 e8          	mov    %rax,-0x18(%rbp)
    bebe1b1e:	e9 ca 00 00 00       	jmp    bebe1bed <_ZN11kfilesystem11vfsFindFileEP11vfsDirEntryPKc+0x1a4>
    bebe1b23:	48 8b 45 f0          	mov    -0x10(%rbp),%rax
    bebe1b27:	48 ba 28 56 be be 00 	movabs $0xbebe5628,%rdx
    bebe1b2e:	00 00 00 
    bebe1b31:	48 89 d6             	mov    %rdx,%rsi
    bebe1b34:	48 89 c7             	mov    %rax,%rdi
    bebe1b37:	48 b8 55 36 be be 00 	movabs $0xbebe3655,%rax
    bebe1b3e:	00 00 00 
    bebe1b41:	ff d0                	call   *%rax
    bebe1b43:	48 89 45 c0          	mov    %rax,-0x40(%rbp)
    bebe1b47:	48 8b 45 c0          	mov    -0x40(%rbp),%rax
    bebe1b4b:	48 2b 45 f0          	sub    -0x10(%rbp),%rax
    bebe1b4f:	48 83 c0 01          	add    $0x1,%rax
    bebe1b53:	48 89 c2             	mov    %rax,%rdx
    bebe1b56:	48 8b 4d f0          	mov    -0x10(%rbp),%rcx
    bebe1b5a:	48 8b 45 c8          	mov    -0x38(%rbp),%rax
    bebe1b5e:	48 89 ce             	mov    %rcx,%rsi
    bebe1b61:	48 89 c7             	mov    %rax,%rdi
    bebe1b64:	48 b8 db 53 be be 00 	movabs $0xbebe53db,%rax
    bebe1b6b:	00 00 00 
    bebe1b6e:	ff d0                	call   *%rax
    bebe1b70:	48 8b 45 c0          	mov    -0x40(%rbp),%rax
    bebe1b74:	48 83 c0 01          	add    $0x1,%rax
    bebe1b78:	48 89 45 f0          	mov    %rax,-0x10(%rbp)
    bebe1b7c:	48 8b 55 c8          	mov    -0x38(%rbp),%rdx
    bebe1b80:	48 8b 45 e8          	mov    -0x18(%rbp),%rax
    bebe1b84:	48 89 d6             	mov    %rdx,%rsi
    bebe1b87:	48 89 c7             	mov    %rax,%rdi
    bebe1b8a:	48 b8 b6 1e be be 00 	movabs $0xbebe1eb6,%rax
    bebe1b91:	00 00 00 
    bebe1b94:	ff d0                	call   *%rax
    bebe1b96:	48 89 45 b0          	mov    %rax,-0x50(%rbp)
    bebe1b9a:	48 83 7d b0 00       	cmpq   $0x0,-0x50(%rbp)
    bebe1b9f:	74 1e                	je     bebe1bbf <_ZN11kfilesystem11vfsFindFileEP11vfsDirEntryPKc+0x176>
    bebe1ba1:	48 8b 45 b0          	mov    -0x50(%rbp),%rax
    bebe1ba5:	48 89 c7             	mov    %rax,%rdi
    bebe1ba8:	48 b8 44 1d be be 00 	movabs $0xbebe1d44,%rax
    bebe1baf:	00 00 00 
    bebe1bb2:	ff d0                	call   *%rax
    bebe1bb4:	84 c0                	test   %al,%al
    bebe1bb6:	74 07                	je     bebe1bbf <_ZN11kfilesystem11vfsFindFileEP11vfsDirEntryPKc+0x176>
    bebe1bb8:	b8 01 00 00 00       	mov    $0x1,%eax
    bebe1bbd:	eb 05                	jmp    bebe1bc4 <_ZN11kfilesystem11vfsFindFileEP11vfsDirEntryPKc+0x17b>
    bebe1bbf:	b8 00 00 00 00       	mov    $0x0,%eax
    bebe1bc4:	84 c0                	test   %al,%al
    bebe1bc6:	74 0a                	je     bebe1bd2 <_ZN11kfilesystem11vfsFindFileEP11vfsDirEntryPKc+0x189>
    bebe1bc8:	48 8b 45 b0          	mov    -0x50(%rbp),%rax
    bebe1bcc:	48 89 45 e8          	mov    %rax,-0x18(%rbp)
    bebe1bd0:	eb 16                	jmp    bebe1be8 <_ZN11kfilesystem11vfsFindFileEP11vfsDirEntryPKc+0x19f>
    bebe1bd2:	48 b8 1a 37 be be 00 	movabs $0xbebe371a,%rax
    bebe1bd9:	00 00 00 
    bebe1bdc:	ff d0                	call   *%rax
    bebe1bde:	b8 00 00 00 00       	mov    $0x0,%eax
    bebe1be3:	e9 e0 00 00 00       	jmp    bebe1cc8 <_ZN11kfilesystem11vfsFindFileEP11vfsDirEntryPKc+0x27f>
    bebe1be8:	48 83 45 f8 01       	addq   $0x1,-0x8(%rbp)
    bebe1bed:	48 8b 45 f8          	mov    -0x8(%rbp),%rax
    bebe1bf1:	48 3b 45 d0          	cmp    -0x30(%rbp),%rax
    bebe1bf5:	0f 82 28 ff ff ff    	jb     bebe1b23 <_ZN11kfilesystem11vfsFindFileEP11vfsDirEntryPKc+0xda>
    bebe1bfb:	48 8b 45 f0          	mov    -0x10(%rbp),%rax
    bebe1bff:	48 ba 28 56 be be 00 	movabs $0xbebe5628,%rdx
    bebe1c06:	00 00 00 
    bebe1c09:	48 89 d6             	mov    %rdx,%rsi
    bebe1c0c:	48 89 c7             	mov    %rax,%rdi
    bebe1c0f:	48 b8 55 36 be be 00 	movabs $0xbebe3655,%rax
    bebe1c16:	00 00 00 
    bebe1c19:	ff d0                	call   *%rax
    bebe1c1b:	48 89 45 c0          	mov    %rax,-0x40(%rbp)
    bebe1c1f:	48 8b 45 c0          	mov    -0x40(%rbp),%rax
    bebe1c23:	48 2b 45 f0          	sub    -0x10(%rbp),%rax
    bebe1c27:	48 89 c2             	mov    %rax,%rdx
    bebe1c2a:	48 8b 4d f0          	mov    -0x10(%rbp),%rcx
    bebe1c2e:	48 8b 45 c8          	mov    -0x38(%rbp),%rax
    bebe1c32:	48 89 ce             	mov    %rcx,%rsi
    bebe1c35:	48 89 c7             	mov    %rax,%rdi
    bebe1c38:	48 b8 db 53 be be 00 	movabs $0xbebe53db,%rax
    bebe1c3f:	00 00 00 
    bebe1c42:	ff d0                	call   *%rax
    bebe1c44:	48 8b 45 c0          	mov    -0x40(%rbp),%rax
    bebe1c48:	48 2b 45 f0          	sub    -0x10(%rbp),%rax
    bebe1c4c:	48 89 c2             	mov    %rax,%rdx
    bebe1c4f:	48 8b 45 c8          	mov    -0x38(%rbp),%rax
    bebe1c53:	48 01 d0             	add    %rdx,%rax
    bebe1c56:	c6 00 00             	movb   $0x0,(%rax)
    bebe1c59:	48 8b 55 c8          	mov    -0x38(%rbp),%rdx
    bebe1c5d:	48 8b 45 e8          	mov    -0x18(%rbp),%rax
    bebe1c61:	48 89 d6             	mov    %rdx,%rsi
    bebe1c64:	48 89 c7             	mov    %rax,%rdi
    bebe1c67:	48 b8 b6 1e be be 00 	movabs $0xbebe1eb6,%rax
    bebe1c6e:	00 00 00 
    bebe1c71:	ff d0                	call   *%rax
    bebe1c73:	48 89 45 b8          	mov    %rax,-0x48(%rbp)
    bebe1c77:	48 83 7d b8 00       	cmpq   $0x0,-0x48(%rbp)
    bebe1c7c:	74 1e                	je     bebe1c9c <_ZN11kfilesystem11vfsFindFileEP11vfsDirEntryPKc+0x253>
    bebe1c7e:	48 8b 45 b8          	mov    -0x48(%rbp),%rax
    bebe1c82:	48 89 c7             	mov    %rax,%rdi
    bebe1c85:	48 b8 5a 1d be be 00 	movabs $0xbebe1d5a,%rax
    bebe1c8c:	00 00 00 
    bebe1c8f:	ff d0                	call   *%rax
    bebe1c91:	84 c0                	test   %al,%al
    bebe1c93:	74 07                	je     bebe1c9c <_ZN11kfilesystem11vfsFindFileEP11vfsDirEntryPKc+0x253>
    bebe1c95:	b8 01 00 00 00       	mov    $0x1,%eax
    bebe1c9a:	eb 05                	jmp    bebe1ca1 <_ZN11kfilesystem11vfsFindFileEP11vfsDirEntryPKc+0x258>
    bebe1c9c:	b8 00 00 00 00       	mov    $0x0,%eax
    bebe1ca1:	84 c0                	test   %al,%al
    bebe1ca3:	74 12                	je     bebe1cb7 <_ZN11kfilesystem11vfsFindFileEP11vfsDirEntryPKc+0x26e>
    bebe1ca5:	48 b8 1a 37 be be 00 	movabs $0xbebe371a,%rax
    bebe1cac:	00 00 00 
    bebe1caf:	ff d0                	call   *%rax
    bebe1cb1:	48 8b 45 b8          	mov    -0x48(%rbp),%rax
    bebe1cb5:	eb 11                	jmp    bebe1cc8 <_ZN11kfilesystem11vfsFindFileEP11vfsDirEntryPKc+0x27f>
    bebe1cb7:	48 b8 1a 37 be be 00 	movabs $0xbebe371a,%rax
    bebe1cbe:	00 00 00 
    bebe1cc1:	ff d0                	call   *%rax
    bebe1cc3:	b8 00 00 00 00       	mov    $0x0,%eax
    bebe1cc8:	c9                   	leave
    bebe1cc9:	c3                   	ret

00000000bebe1cca <_Z41__static_initialization_and_destruction_0v>:
    bebe1cca:	55                   	push   %rbp
    bebe1ccb:	48 89 e5             	mov    %rsp,%rbp
    bebe1cce:	53                   	push   %rbx
    bebe1ccf:	48 83 ec 08          	sub    $0x8,%rsp
    bebe1cd3:	bf 28 01 00 00       	mov    $0x128,%edi
    bebe1cd8:	48 b8 83 54 be be 00 	movabs $0xbebe5483,%rax
    bebe1cdf:	00 00 00 
    bebe1ce2:	ff d0                	call   *%rax
    bebe1ce4:	48 89 c3             	mov    %rax,%rbx
    bebe1ce7:	48 b8 2d 56 be be 00 	movabs $0xbebe562d,%rax
    bebe1cee:	00 00 00 
    bebe1cf1:	48 89 c2             	mov    %rax,%rdx
    bebe1cf4:	be 00 00 00 00       	mov    $0x0,%esi
    bebe1cf9:	48 89 df             	mov    %rbx,%rdi
    bebe1cfc:	48 b8 74 1d be be 00 	movabs $0xbebe1d74,%rax
    bebe1d03:	00 00 00 
    bebe1d06:	ff d0                	call   *%rax
    bebe1d08:	48 b8 60 66 be be 00 	movabs $0xbebe6660,%rax
    bebe1d0f:	00 00 00 
    bebe1d12:	48 89 18             	mov    %rbx,(%rax)
    bebe1d15:	90                   	nop
    bebe1d16:	48 8b 5d f8          	mov    -0x8(%rbp),%rbx
    bebe1d1a:	c9                   	leave
    bebe1d1b:	c3                   	ret

00000000bebe1d1c <_GLOBAL__sub_I__ZN11kfilesystem18vfsInsertDirectoryEPKc>:
    bebe1d1c:	55                   	push   %rbp
    bebe1d1d:	48 89 e5             	mov    %rsp,%rbp
    bebe1d20:	48 b8 ca 1c be be 00 	movabs $0xbebe1cca,%rax
    bebe1d27:	00 00 00 
    bebe1d2a:	ff d0                	call   *%rax
    bebe1d2c:	5d                   	pop    %rbp
    bebe1d2d:	c3                   	ret

00000000bebe1d2e <_ZnwmPv>:
    bebe1d2e:	55                   	push   %rbp
    bebe1d2f:	48 89 e5             	mov    %rsp,%rbp
    bebe1d32:	48 83 ec 10          	sub    $0x10,%rsp
    bebe1d36:	48 89 7d f8          	mov    %rdi,-0x8(%rbp)
    bebe1d3a:	48 89 75 f0          	mov    %rsi,-0x10(%rbp)
    bebe1d3e:	48 8b 45 f0          	mov    -0x10(%rbp),%rax
    bebe1d42:	c9                   	leave
    bebe1d43:	c3                   	ret

00000000bebe1d44 <_ZN8vfsEntry6is_dirEv>:
    bebe1d44:	55                   	push   %rbp
    bebe1d45:	48 89 e5             	mov    %rsp,%rbp
    bebe1d48:	48 83 ec 08          	sub    $0x8,%rsp
    bebe1d4c:	48 89 7d f8          	mov    %rdi,-0x8(%rbp)
    bebe1d50:	48 8b 45 f8          	mov    -0x8(%rbp),%rax
    bebe1d54:	0f b6 40 08          	movzbl 0x8(%rax),%eax
    bebe1d58:	c9                   	leave
    bebe1d59:	c3                   	ret

00000000bebe1d5a <_ZN8vfsEntry7is_fileEv>:
    bebe1d5a:	55                   	push   %rbp
    bebe1d5b:	48 89 e5             	mov    %rsp,%rbp
    bebe1d5e:	48 83 ec 08          	sub    $0x8,%rsp
    bebe1d62:	48 89 7d f8          	mov    %rdi,-0x8(%rbp)
    bebe1d66:	48 8b 45 f8          	mov    -0x8(%rbp),%rax
    bebe1d6a:	0f b6 40 08          	movzbl 0x8(%rax),%eax
    bebe1d6e:	83 f0 01             	xor    $0x1,%eax
    bebe1d71:	c9                   	leave
    bebe1d72:	c3                   	ret
    bebe1d73:	90                   	nop

00000000bebe1d74 <_ZN11vfsDirEntryC1EPS_PKc>:
    bebe1d74:	55                   	push   %rbp
    bebe1d75:	48 89 e5             	mov    %rsp,%rbp
    bebe1d78:	48 83 ec 30          	sub    $0x30,%rsp
    bebe1d7c:	48 89 7d e8          	mov    %rdi,-0x18(%rbp)
    bebe1d80:	48 89 75 e0          	mov    %rsi,-0x20(%rbp)
    bebe1d84:	48 89 55 d8          	mov    %rdx,-0x28(%rbp)
    bebe1d88:	48 8b 45 e8          	mov    -0x18(%rbp),%rax
    bebe1d8c:	48 8b 55 d8          	mov    -0x28(%rbp),%rdx
    bebe1d90:	48 8b 4d e0          	mov    -0x20(%rbp),%rcx
    bebe1d94:	48 89 ce             	mov    %rcx,%rsi
    bebe1d97:	48 89 c7             	mov    %rax,%rdi
    bebe1d9a:	48 b8 52 22 be be 00 	movabs $0xbebe2252,%rax
    bebe1da1:	00 00 00 
    bebe1da4:	ff d0                	call   *%rax
    bebe1da6:	48 ba 68 56 be be 00 	movabs $0xbebe5668,%rdx
    bebe1dad:	00 00 00 
    bebe1db0:	48 8b 45 e8          	mov    -0x18(%rbp),%rax
    bebe1db4:	48 89 10             	mov    %rdx,(%rax)
    bebe1db7:	48 8b 45 e8          	mov    -0x18(%rbp),%rax
    bebe1dbb:	48 8d 88 98 00 00 00 	lea    0x98(%rax),%rcx
    bebe1dc2:	48 c7 45 f8 00 00 00 	movq   $0x0,-0x8(%rbp)
    bebe1dc9:	00 
    bebe1dca:	48 8d 45 f8          	lea    -0x8(%rbp),%rax
    bebe1dce:	48 89 c2             	mov    %rax,%rdx
    bebe1dd1:	be 00 00 00 00       	mov    $0x0,%esi
    bebe1dd6:	48 89 cf             	mov    %rcx,%rdi
    bebe1dd9:	48 b8 f0 1d be be 00 	movabs $0xbebe1df0,%rax
    bebe1de0:	00 00 00 
    bebe1de3:	ff d0                	call   *%rax
    bebe1de5:	48 8b 45 e8          	mov    -0x18(%rbp),%rax
    bebe1de9:	c6 40 08 01          	movb   $0x1,0x8(%rax)
    bebe1ded:	90                   	nop
    bebe1dee:	c9                   	leave
    bebe1def:	c3                   	ret

00000000bebe1df0 <_ZN3idk13static_vectorIP8vfsEntryLm16EEC1EmRKS2_>:
    bebe1df0:	55                   	push   %rbp
    bebe1df1:	48 89 e5             	mov    %rsp,%rbp
    bebe1df4:	48 83 ec 40          	sub    $0x40,%rsp
    bebe1df8:	48 89 7d d8          	mov    %rdi,-0x28(%rbp)
    bebe1dfc:	48 89 75 d0          	mov    %rsi,-0x30(%rbp)
    bebe1e00:	48 89 55 c8          	mov    %rdx,-0x38(%rbp)
    bebe1e04:	48 8b 55 d0          	mov    -0x30(%rbp),%rdx
    bebe1e08:	48 8b 45 d8          	mov    -0x28(%rbp),%rax
    bebe1e0c:	48 89 d6             	mov    %rdx,%rsi
    bebe1e0f:	48 89 c7             	mov    %rax,%rdi
    bebe1e12:	48 b8 fe 20 be be 00 	movabs $0xbebe20fe,%rax
    bebe1e19:	00 00 00 
    bebe1e1c:	ff d0                	call   *%rax
    bebe1e1e:	48 8b 45 d8          	mov    -0x28(%rbp),%rax
    bebe1e22:	48 89 45 f8          	mov    %rax,-0x8(%rbp)
    bebe1e26:	48 8d 45 e8          	lea    -0x18(%rbp),%rax
    bebe1e2a:	48 8b 55 f8          	mov    -0x8(%rbp),%rdx
    bebe1e2e:	48 89 d6             	mov    %rdx,%rsi
    bebe1e31:	48 89 c7             	mov    %rax,%rdi
    bebe1e34:	48 b8 8a 1f be be 00 	movabs $0xbebe1f8a,%rax
    bebe1e3b:	00 00 00 
    bebe1e3e:	ff d0                	call   *%rax
    bebe1e40:	48 8d 45 e0          	lea    -0x20(%rbp),%rax
    bebe1e44:	48 8b 55 f8          	mov    -0x8(%rbp),%rdx
    bebe1e48:	48 89 d6             	mov    %rdx,%rsi
    bebe1e4b:	48 89 c7             	mov    %rax,%rdi
    bebe1e4e:	48 b8 ba 1f be be 00 	movabs $0xbebe1fba,%rax
    bebe1e55:	00 00 00 
    bebe1e58:	ff d0                	call   *%rax
    bebe1e5a:	eb 38                	jmp    bebe1e94 <_ZN3idk13static_vectorIP8vfsEntryLm16EEC1EmRKS2_+0xa4>
    bebe1e5c:	48 8d 45 e8          	lea    -0x18(%rbp),%rax
    bebe1e60:	48 89 c7             	mov    %rax,%rdi
    bebe1e63:	48 b8 88 21 be be 00 	movabs $0xbebe2188,%rax
    bebe1e6a:	00 00 00 
    bebe1e6d:	ff d0                	call   *%rax
    bebe1e6f:	48 89 45 f0          	mov    %rax,-0x10(%rbp)
    bebe1e73:	48 8b 45 c8          	mov    -0x38(%rbp),%rax
    bebe1e77:	48 8b 10             	mov    (%rax),%rdx
    bebe1e7a:	48 8b 45 f0          	mov    -0x10(%rbp),%rax
    bebe1e7e:	48 89 10             	mov    %rdx,(%rax)
    bebe1e81:	48 8d 45 e8          	lea    -0x18(%rbp),%rax
    bebe1e85:	48 89 c7             	mov    %rax,%rdi
    bebe1e88:	48 b8 64 21 be be 00 	movabs $0xbebe2164,%rax
    bebe1e8f:	00 00 00 
    bebe1e92:	ff d0                	call   *%rax
    bebe1e94:	48 8d 55 e0          	lea    -0x20(%rbp),%rdx
    bebe1e98:	48 8d 45 e8          	lea    -0x18(%rbp),%rax
    bebe1e9c:	48 89 d6             	mov    %rdx,%rsi
    bebe1e9f:	48 89 c7             	mov    %rax,%rdi
    bebe1ea2:	48 b8 3e 21 be be 00 	movabs $0xbebe213e,%rax
    bebe1ea9:	00 00 00 
    bebe1eac:	ff d0                	call   *%rax
    bebe1eae:	84 c0                	test   %al,%al
    bebe1eb0:	75 aa                	jne    bebe1e5c <_ZN3idk13static_vectorIP8vfsEntryLm16EEC1EmRKS2_+0x6c>
    bebe1eb2:	90                   	nop
    bebe1eb3:	90                   	nop
    bebe1eb4:	c9                   	leave
    bebe1eb5:	c3                   	ret

00000000bebe1eb6 <_ZN11vfsDirEntry8getChildI8vfsEntryEEPT_PKc>:
    bebe1eb6:	55                   	push   %rbp
    bebe1eb7:	48 89 e5             	mov    %rsp,%rbp
    bebe1eba:	48 83 ec 30          	sub    $0x30,%rsp
    bebe1ebe:	48 89 7d d8          	mov    %rdi,-0x28(%rbp)
    bebe1ec2:	48 89 75 d0          	mov    %rsi,-0x30(%rbp)
    bebe1ec6:	48 8b 45 d8          	mov    -0x28(%rbp),%rax
    bebe1eca:	48 05 98 00 00 00    	add    $0x98,%rax
    bebe1ed0:	48 89 45 f8          	mov    %rax,-0x8(%rbp)
    bebe1ed4:	48 8d 45 e8          	lea    -0x18(%rbp),%rax
    bebe1ed8:	48 8b 55 f8          	mov    -0x8(%rbp),%rdx
    bebe1edc:	48 89 d6             	mov    %rdx,%rsi
    bebe1edf:	48 89 c7             	mov    %rax,%rdi
    bebe1ee2:	48 b8 8a 1f be be 00 	movabs $0xbebe1f8a,%rax
    bebe1ee9:	00 00 00 
    bebe1eec:	ff d0                	call   *%rax
    bebe1eee:	48 8d 45 e0          	lea    -0x20(%rbp),%rax
    bebe1ef2:	48 8b 55 f8          	mov    -0x8(%rbp),%rdx
    bebe1ef6:	48 89 d6             	mov    %rdx,%rsi
    bebe1ef9:	48 89 c7             	mov    %rax,%rdi
    bebe1efc:	48 b8 ba 1f be be 00 	movabs $0xbebe1fba,%rax
    bebe1f03:	00 00 00 
    bebe1f06:	ff d0                	call   *%rax
    bebe1f08:	eb 5a                	jmp    bebe1f64 <_ZN11vfsDirEntry8getChildI8vfsEntryEEPT_PKc+0xae>
    bebe1f0a:	48 8d 45 e8          	lea    -0x18(%rbp),%rax
    bebe1f0e:	48 89 c7             	mov    %rax,%rdi
    bebe1f11:	48 b8 88 21 be be 00 	movabs $0xbebe2188,%rax
    bebe1f18:	00 00 00 
    bebe1f1b:	ff d0                	call   *%rax
    bebe1f1d:	48 8b 00             	mov    (%rax),%rax
    bebe1f20:	48 89 45 f0          	mov    %rax,-0x10(%rbp)
    bebe1f24:	48 8b 45 f0          	mov    -0x10(%rbp),%rax
    bebe1f28:	48 8d 50 09          	lea    0x9(%rax),%rdx
    bebe1f2c:	48 8b 45 d0          	mov    -0x30(%rbp),%rax
    bebe1f30:	48 89 c6             	mov    %rax,%rsi
    bebe1f33:	48 89 d7             	mov    %rdx,%rdi
    bebe1f36:	48 b8 d0 52 be be 00 	movabs $0xbebe52d0,%rax
    bebe1f3d:	00 00 00 
    bebe1f40:	ff d0                	call   *%rax
    bebe1f42:	85 c0                	test   %eax,%eax
    bebe1f44:	0f 94 c0             	sete   %al
    bebe1f47:	84 c0                	test   %al,%al
    bebe1f49:	74 06                	je     bebe1f51 <_ZN11vfsDirEntry8getChildI8vfsEntryEEPT_PKc+0x9b>
    bebe1f4b:	48 8b 45 f0          	mov    -0x10(%rbp),%rax
    bebe1f4f:	eb 36                	jmp    bebe1f87 <_ZN11vfsDirEntry8getChildI8vfsEntryEEPT_PKc+0xd1>
    bebe1f51:	48 8d 45 e8          	lea    -0x18(%rbp),%rax
    bebe1f55:	48 89 c7             	mov    %rax,%rdi
    bebe1f58:	48 b8 64 21 be be 00 	movabs $0xbebe2164,%rax
    bebe1f5f:	00 00 00 
    bebe1f62:	ff d0                	call   *%rax
    bebe1f64:	48 8d 55 e0          	lea    -0x20(%rbp),%rdx
    bebe1f68:	48 8d 45 e8          	lea    -0x18(%rbp),%rax
    bebe1f6c:	48 89 d6             	mov    %rdx,%rsi
    bebe1f6f:	48 89 c7             	mov    %rax,%rdi
    bebe1f72:	48 b8 3e 21 be be 00 	movabs $0xbebe213e,%rax
    bebe1f79:	00 00 00 
    bebe1f7c:	ff d0                	call   *%rax
    bebe1f7e:	84 c0                	test   %al,%al
    bebe1f80:	75 88                	jne    bebe1f0a <_ZN11vfsDirEntry8getChildI8vfsEntryEEPT_PKc+0x54>
    bebe1f82:	b8 00 00 00 00       	mov    $0x0,%eax
    bebe1f87:	c9                   	leave
    bebe1f88:	c3                   	ret
    bebe1f89:	90                   	nop

00000000bebe1f8a <_ZN3idk13static_vectorIP8vfsEntryLm16EE5beginEv>:
    bebe1f8a:	55                   	push   %rbp
    bebe1f8b:	48 89 e5             	mov    %rsp,%rbp
    bebe1f8e:	48 83 ec 10          	sub    $0x10,%rsp
    bebe1f92:	48 89 7d f8          	mov    %rdi,-0x8(%rbp)
    bebe1f96:	48 89 75 f0          	mov    %rsi,-0x10(%rbp)
    bebe1f9a:	48 8b 55 f0          	mov    -0x10(%rbp),%rdx
    bebe1f9e:	48 8b 45 f8          	mov    -0x8(%rbp),%rax
    bebe1fa2:	48 89 d6             	mov    %rdx,%rsi
    bebe1fa5:	48 89 c7             	mov    %rax,%rdi
    bebe1fa8:	48 b8 9e 21 be be 00 	movabs $0xbebe219e,%rax
    bebe1faf:	00 00 00 
    bebe1fb2:	ff d0                	call   *%rax
    bebe1fb4:	48 8b 45 f8          	mov    -0x8(%rbp),%rax
    bebe1fb8:	c9                   	leave
    bebe1fb9:	c3                   	ret

00000000bebe1fba <_ZN3idk13static_vectorIP8vfsEntryLm16EE3endEv>:
    bebe1fba:	55                   	push   %rbp
    bebe1fbb:	48 89 e5             	mov    %rsp,%rbp
    bebe1fbe:	48 83 ec 10          	sub    $0x10,%rsp
    bebe1fc2:	48 89 7d f8          	mov    %rdi,-0x8(%rbp)
    bebe1fc6:	48 89 75 f0          	mov    %rsi,-0x10(%rbp)
    bebe1fca:	48 8b 45 f0          	mov    -0x10(%rbp),%rax
    bebe1fce:	48 8b 90 80 00 00 00 	mov    0x80(%rax),%rdx
    bebe1fd5:	48 8b 45 f8          	mov    -0x8(%rbp),%rax
    bebe1fd9:	48 89 d6             	mov    %rdx,%rsi
    bebe1fdc:	48 89 c7             	mov    %rax,%rdi
    bebe1fdf:	48 b8 9e 21 be be 00 	movabs $0xbebe219e,%rax
    bebe1fe6:	00 00 00 
    bebe1fe9:	ff d0                	call   *%rax
    bebe1feb:	48 8b 45 f8          	mov    -0x8(%rbp),%rax
    bebe1fef:	c9                   	leave
    bebe1ff0:	c3                   	ret
    bebe1ff1:	90                   	nop

00000000bebe1ff2 <_ZN11vfsDirEntry9giveChildIS_JEEEPT_PKcDpT0_>:
    bebe1ff2:	55                   	push   %rbp
    bebe1ff3:	48 89 e5             	mov    %rsp,%rbp
    bebe1ff6:	53                   	push   %rbx
    bebe1ff7:	48 83 ec 28          	sub    $0x28,%rsp
    bebe1ffb:	48 89 7d d8          	mov    %rdi,-0x28(%rbp)
    bebe1fff:	48 89 75 d0          	mov    %rsi,-0x30(%rbp)
    bebe2003:	bf 28 01 00 00       	mov    $0x128,%edi
    bebe2008:	48 b8 83 54 be be 00 	movabs $0xbebe5483,%rax
    bebe200f:	00 00 00 
    bebe2012:	ff d0                	call   *%rax
    bebe2014:	48 89 c3             	mov    %rax,%rbx
    bebe2017:	48 8b 55 d0          	mov    -0x30(%rbp),%rdx
    bebe201b:	48 8b 45 d8          	mov    -0x28(%rbp),%rax
    bebe201f:	48 89 c6             	mov    %rax,%rsi
    bebe2022:	48 89 df             	mov    %rbx,%rdi
    bebe2025:	48 b8 74 1d be be 00 	movabs $0xbebe1d74,%rax
    bebe202c:	00 00 00 
    bebe202f:	ff d0                	call   *%rax
    bebe2031:	48 89 5d e8          	mov    %rbx,-0x18(%rbp)
    bebe2035:	48 8b 45 d8          	mov    -0x28(%rbp),%rax
    bebe2039:	48 8d 90 98 00 00 00 	lea    0x98(%rax),%rdx
    bebe2040:	48 8b 45 e8          	mov    -0x18(%rbp),%rax
    bebe2044:	48 89 45 e0          	mov    %rax,-0x20(%rbp)
    bebe2048:	48 8d 45 e0          	lea    -0x20(%rbp),%rax
    bebe204c:	48 89 c6             	mov    %rax,%rsi
    bebe204f:	48 89 d7             	mov    %rdx,%rdi
    bebe2052:	48 b8 bc 21 be be 00 	movabs $0xbebe21bc,%rax
    bebe2059:	00 00 00 
    bebe205c:	ff d0                	call   *%rax
    bebe205e:	48 8b 45 e8          	mov    -0x18(%rbp),%rax
    bebe2062:	48 8b 5d f8          	mov    -0x8(%rbp),%rbx
    bebe2066:	c9                   	leave
    bebe2067:	c3                   	ret

00000000bebe2068 <_ZN11vfsDirEntry9giveChildI12vfsFileEntryJhPvmEEEPT_PKcDpT0_>:
    bebe2068:	55                   	push   %rbp
    bebe2069:	48 89 e5             	mov    %rsp,%rbp
    bebe206c:	53                   	push   %rbx
    bebe206d:	48 83 ec 48          	sub    $0x48,%rsp
    bebe2071:	48 89 7d d8          	mov    %rdi,-0x28(%rbp)
    bebe2075:	48 89 75 d0          	mov    %rsi,-0x30(%rbp)
    bebe2079:	89 d0                	mov    %edx,%eax
    bebe207b:	48 89 4d c0          	mov    %rcx,-0x40(%rbp)
    bebe207f:	4c 89 45 b8          	mov    %r8,-0x48(%rbp)
    bebe2083:	88 45 cc             	mov    %al,-0x34(%rbp)
    bebe2086:	bf e8 00 00 00       	mov    $0xe8,%edi
    bebe208b:	48 b8 83 54 be be 00 	movabs $0xbebe5483,%rax
    bebe2092:	00 00 00 
    bebe2095:	ff d0                	call   *%rax
    bebe2097:	48 89 c3             	mov    %rax,%rbx
    bebe209a:	0f b6 4d cc          	movzbl -0x34(%rbp),%ecx
    bebe209e:	48 8b 7d b8          	mov    -0x48(%rbp),%rdi
    bebe20a2:	48 8b 75 c0          	mov    -0x40(%rbp),%rsi
    bebe20a6:	48 8b 55 d0          	mov    -0x30(%rbp),%rdx
    bebe20aa:	48 8b 45 d8          	mov    -0x28(%rbp),%rax
    bebe20ae:	49 89 f9             	mov    %rdi,%r9
    bebe20b1:	49 89 f0             	mov    %rsi,%r8
    bebe20b4:	48 89 c6             	mov    %rax,%rsi
    bebe20b7:	48 89 df             	mov    %rbx,%rdi
    bebe20ba:	48 b8 3e 23 be be 00 	movabs $0xbebe233e,%rax
    bebe20c1:	00 00 00 
    bebe20c4:	ff d0                	call   *%rax
    bebe20c6:	48 89 5d e8          	mov    %rbx,-0x18(%rbp)
    bebe20ca:	48 8b 45 d8          	mov    -0x28(%rbp),%rax
    bebe20ce:	48 8d 90 98 00 00 00 	lea    0x98(%rax),%rdx
    bebe20d5:	48 8b 45 e8          	mov    -0x18(%rbp),%rax
    bebe20d9:	48 89 45 e0          	mov    %rax,-0x20(%rbp)
    bebe20dd:	48 8d 45 e0          	lea    -0x20(%rbp),%rax
    bebe20e1:	48 89 c6             	mov    %rax,%rsi
    bebe20e4:	48 89 d7             	mov    %rdx,%rdi
    bebe20e7:	48 b8 bc 21 be be 00 	movabs $0xbebe21bc,%rax
    bebe20ee:	00 00 00 
    bebe20f1:	ff d0                	call   *%rax
    bebe20f3:	48 8b 45 e8          	mov    -0x18(%rbp),%rax
    bebe20f7:	48 8b 5d f8          	mov    -0x8(%rbp),%rbx
    bebe20fb:	c9                   	leave
    bebe20fc:	c3                   	ret
    bebe20fd:	90                   	nop

00000000bebe20fe <_ZN3idk13static_vectorIP8vfsEntryLm16EEC1Em>:
    bebe20fe:	55                   	push   %rbp
    bebe20ff:	48 89 e5             	mov    %rsp,%rbp
    bebe2102:	48 83 ec 10          	sub    $0x10,%rsp
    bebe2106:	48 89 7d f8          	mov    %rdi,-0x8(%rbp)
    bebe210a:	48 89 75 f0          	mov    %rsi,-0x10(%rbp)
    bebe210e:	48 8b 45 f8          	mov    -0x8(%rbp),%rax
    bebe2112:	48 89 c7             	mov    %rax,%rdi
    bebe2115:	48 b8 1e 22 be be 00 	movabs $0xbebe221e,%rax
    bebe211c:	00 00 00 
    bebe211f:	ff d0                	call   *%rax
    bebe2121:	48 8b 45 f8          	mov    -0x8(%rbp),%rax
    bebe2125:	48 8b 55 f0          	mov    -0x10(%rbp),%rdx
    bebe2129:	48 c1 e2 03          	shl    $0x3,%rdx
    bebe212d:	48 01 c2             	add    %rax,%rdx
    bebe2130:	48 8b 45 f8          	mov    -0x8(%rbp),%rax
    bebe2134:	48 89 90 80 00 00 00 	mov    %rdx,0x80(%rax)
    bebe213b:	90                   	nop
    bebe213c:	c9                   	leave
    bebe213d:	c3                   	ret

00000000bebe213e <_ZN3idk13static_vectorIP8vfsEntryLm16EE8iteratorneERKS4_>:
    bebe213e:	55                   	push   %rbp
    bebe213f:	48 89 e5             	mov    %rsp,%rbp
    bebe2142:	48 83 ec 10          	sub    $0x10,%rsp
    bebe2146:	48 89 7d f8          	mov    %rdi,-0x8(%rbp)
    bebe214a:	48 89 75 f0          	mov    %rsi,-0x10(%rbp)
    bebe214e:	48 8b 45 f8          	mov    -0x8(%rbp),%rax
    bebe2152:	48 8b 10             	mov    (%rax),%rdx
    bebe2155:	48 8b 45 f0          	mov    -0x10(%rbp),%rax
    bebe2159:	48 8b 00             	mov    (%rax),%rax
    bebe215c:	48 39 c2             	cmp    %rax,%rdx
    bebe215f:	0f 95 c0             	setne  %al
    bebe2162:	c9                   	leave
    bebe2163:	c3                   	ret

00000000bebe2164 <_ZN3idk13static_vectorIP8vfsEntryLm16EE8iteratorppEv>:
    bebe2164:	55                   	push   %rbp
    bebe2165:	48 89 e5             	mov    %rsp,%rbp
    bebe2168:	48 83 ec 08          	sub    $0x8,%rsp
    bebe216c:	48 89 7d f8          	mov    %rdi,-0x8(%rbp)
    bebe2170:	48 8b 45 f8          	mov    -0x8(%rbp),%rax
    bebe2174:	48 8b 00             	mov    (%rax),%rax
    bebe2177:	48 8d 50 08          	lea    0x8(%rax),%rdx
    bebe217b:	48 8b 45 f8          	mov    -0x8(%rbp),%rax
    bebe217f:	48 89 10             	mov    %rdx,(%rax)
    bebe2182:	48 8b 45 f8          	mov    -0x8(%rbp),%rax
    bebe2186:	c9                   	leave
    bebe2187:	c3                   	ret

00000000bebe2188 <_ZN3idk13static_vectorIP8vfsEntryLm16EE8iteratordeEv>:
    bebe2188:	55                   	push   %rbp
    bebe2189:	48 89 e5             	mov    %rsp,%rbp
    bebe218c:	48 83 ec 08          	sub    $0x8,%rsp
    bebe2190:	48 89 7d f8          	mov    %rdi,-0x8(%rbp)
    bebe2194:	48 8b 45 f8          	mov    -0x8(%rbp),%rax
    bebe2198:	48 8b 00             	mov    (%rax),%rax
    bebe219b:	c9                   	leave
    bebe219c:	c3                   	ret
    bebe219d:	90                   	nop

00000000bebe219e <_ZN3idk13static_vectorIP8vfsEntryLm16EE8iteratorC1EPS2_>:
    bebe219e:	55                   	push   %rbp
    bebe219f:	48 89 e5             	mov    %rsp,%rbp
    bebe21a2:	48 83 ec 10          	sub    $0x10,%rsp
    bebe21a6:	48 89 7d f8          	mov    %rdi,-0x8(%rbp)
    bebe21aa:	48 89 75 f0          	mov    %rsi,-0x10(%rbp)
    bebe21ae:	48 8b 45 f8          	mov    -0x8(%rbp),%rax
    bebe21b2:	48 8b 55 f0          	mov    -0x10(%rbp),%rdx
    bebe21b6:	48 89 10             	mov    %rdx,(%rax)
    bebe21b9:	90                   	nop
    bebe21ba:	c9                   	leave
    bebe21bb:	c3                   	ret

00000000bebe21bc <_ZN3idk13static_vectorIP8vfsEntryLm16EE9push_backERKS2_>:
    bebe21bc:	55                   	push   %rbp
    bebe21bd:	48 89 e5             	mov    %rsp,%rbp
    bebe21c0:	48 83 ec 10          	sub    $0x10,%rsp
    bebe21c4:	48 89 7d f8          	mov    %rdi,-0x8(%rbp)
    bebe21c8:	48 89 75 f0          	mov    %rsi,-0x10(%rbp)
    bebe21cc:	48 8b 45 f8          	mov    -0x8(%rbp),%rax
    bebe21d0:	48 8b 80 80 00 00 00 	mov    0x80(%rax),%rax
    bebe21d7:	48 89 c6             	mov    %rax,%rsi
    bebe21da:	bf 08 00 00 00       	mov    $0x8,%edi
    bebe21df:	48 b8 2e 1d be be 00 	movabs $0xbebe1d2e,%rax
    bebe21e6:	00 00 00 
    bebe21e9:	ff d0                	call   *%rax
    bebe21eb:	48 8b 55 f0          	mov    -0x10(%rbp),%rdx
    bebe21ef:	48 8b 12             	mov    (%rdx),%rdx
    bebe21f2:	48 89 10             	mov    %rdx,(%rax)
    bebe21f5:	48 8b 55 f8          	mov    -0x8(%rbp),%rdx
    bebe21f9:	48 89 82 80 00 00 00 	mov    %rax,0x80(%rdx)
    bebe2200:	48 8b 45 f8          	mov    -0x8(%rbp),%rax
    bebe2204:	48 8b 80 80 00 00 00 	mov    0x80(%rax),%rax
    bebe220b:	48 8d 50 08          	lea    0x8(%rax),%rdx
    bebe220f:	48 8b 45 f8          	mov    -0x8(%rbp),%rax
    bebe2213:	48 89 90 80 00 00 00 	mov    %rdx,0x80(%rax)
    bebe221a:	90                   	nop
    bebe221b:	c9                   	leave
    bebe221c:	c3                   	ret
    bebe221d:	90                   	nop

00000000bebe221e <_ZN3idk13static_vectorIP8vfsEntryLm16EEC1Ev>:
    bebe221e:	55                   	push   %rbp
    bebe221f:	48 89 e5             	mov    %rsp,%rbp
    bebe2222:	48 83 ec 08          	sub    $0x8,%rsp
    bebe2226:	48 89 7d f8          	mov    %rdi,-0x8(%rbp)
    bebe222a:	48 8b 55 f8          	mov    -0x8(%rbp),%rdx
    bebe222e:	48 8b 45 f8          	mov    -0x8(%rbp),%rax
    bebe2232:	48 89 90 80 00 00 00 	mov    %rdx,0x80(%rax)
    bebe2239:	48 8b 45 f8          	mov    -0x8(%rbp),%rax
    bebe223d:	48 8d 90 80 00 00 00 	lea    0x80(%rax),%rdx
    bebe2244:	48 8b 45 f8          	mov    -0x8(%rbp),%rax
    bebe2248:	48 89 90 88 00 00 00 	mov    %rdx,0x88(%rax)
    bebe224f:	90                   	nop
    bebe2250:	c9                   	leave
    bebe2251:	c3                   	ret

00000000bebe2252 <_ZN8vfsEntryC1EP11vfsDirEntryPKc>:
    bebe2252:	55                   	push   %rbp
    bebe2253:	48 89 e5             	mov    %rsp,%rbp
    bebe2256:	48 83 ec 20          	sub    $0x20,%rsp
    bebe225a:	48 89 7d f8          	mov    %rdi,-0x8(%rbp)
    bebe225e:	48 89 75 f0          	mov    %rsi,-0x10(%rbp)
    bebe2262:	48 89 55 e8          	mov    %rdx,-0x18(%rbp)
    bebe2266:	48 ba 80 56 be be 00 	movabs $0xbebe5680,%rdx
    bebe226d:	00 00 00 
    bebe2270:	48 8b 45 f8          	mov    -0x8(%rbp),%rax
    bebe2274:	48 89 10             	mov    %rdx,(%rax)
    bebe2277:	48 8b 45 f8          	mov    -0x8(%rbp),%rax
    bebe227b:	48 8b 55 f0          	mov    -0x10(%rbp),%rdx
    bebe227f:	48 89 90 90 00 00 00 	mov    %rdx,0x90(%rax)
    bebe2286:	48 8b 45 f8          	mov    -0x8(%rbp),%rax
    bebe228a:	48 83 c0 09          	add    $0x9,%rax
    bebe228e:	ba 80 00 00 00       	mov    $0x80,%edx
    bebe2293:	be 00 00 00 00       	mov    $0x0,%esi
    bebe2298:	48 89 c7             	mov    %rax,%rdi
    bebe229b:	48 b8 83 52 be be 00 	movabs $0xbebe5283,%rax
    bebe22a2:	00 00 00 
    bebe22a5:	ff d0                	call   *%rax
    bebe22a7:	48 8b 45 f8          	mov    -0x8(%rbp),%rax
    bebe22ab:	48 8d 50 09          	lea    0x9(%rax),%rdx
    bebe22af:	48 8b 45 e8          	mov    -0x18(%rbp),%rax
    bebe22b3:	48 89 c6             	mov    %rax,%rsi
    bebe22b6:	48 89 d7             	mov    %rdx,%rdi
    bebe22b9:	48 b8 94 53 be be 00 	movabs $0xbebe5394,%rax
    bebe22c0:	00 00 00 
    bebe22c3:	ff d0                	call   *%rax
    bebe22c5:	90                   	nop
    bebe22c6:	c9                   	leave
    bebe22c7:	c3                   	ret

00000000bebe22c8 <_ZN12vfsFileEntryC1EP11vfsDirEntryPKc>:
    bebe22c8:	55                   	push   %rbp
    bebe22c9:	48 89 e5             	mov    %rsp,%rbp
    bebe22cc:	48 83 ec 20          	sub    $0x20,%rsp
    bebe22d0:	48 89 7d f8          	mov    %rdi,-0x8(%rbp)
    bebe22d4:	48 89 75 f0          	mov    %rsi,-0x10(%rbp)
    bebe22d8:	48 89 55 e8          	mov    %rdx,-0x18(%rbp)
    bebe22dc:	48 8b 45 f8          	mov    -0x8(%rbp),%rax
    bebe22e0:	48 8b 55 e8          	mov    -0x18(%rbp),%rdx
    bebe22e4:	48 8b 4d f0          	mov    -0x10(%rbp),%rcx
    bebe22e8:	48 89 ce             	mov    %rcx,%rsi
    bebe22eb:	48 89 c7             	mov    %rax,%rdi
    bebe22ee:	48 b8 52 22 be be 00 	movabs $0xbebe2252,%rax
    bebe22f5:	00 00 00 
    bebe22f8:	ff d0                	call   *%rax
    bebe22fa:	48 ba 50 56 be be 00 	movabs $0xbebe5650,%rdx
    bebe2301:	00 00 00 
    bebe2304:	48 8b 45 f8          	mov    -0x8(%rbp),%rax
    bebe2308:	48 89 10             	mov    %rdx,(%rax)
    bebe230b:	48 8b 45 f8          	mov    -0x8(%rbp),%rax
    bebe230f:	c7 80 9c 00 00 00 00 	movl   $0x0,0x9c(%rax)
    bebe2316:	00 00 00 
    bebe2319:	48 8b 45 f8          	mov    -0x8(%rbp),%rax
    bebe231d:	48 05 b0 00 00 00    	add    $0xb0,%rax
    bebe2323:	48 89 c7             	mov    %rax,%rdi
    bebe2326:	48 b8 c6 2f be be 00 	movabs $0xbebe2fc6,%rax
    bebe232d:	00 00 00 
    bebe2330:	ff d0                	call   *%rax
    bebe2332:	48 8b 45 f8          	mov    -0x8(%rbp),%rax
    bebe2336:	c6 40 08 00          	movb   $0x0,0x8(%rax)
    bebe233a:	90                   	nop
    bebe233b:	c9                   	leave
    bebe233c:	c3                   	ret
    bebe233d:	90                   	nop

00000000bebe233e <_ZN12vfsFileEntryC1EP11vfsDirEntryPKchPvm>:
    bebe233e:	55                   	push   %rbp
    bebe233f:	48 89 e5             	mov    %rsp,%rbp
    bebe2342:	48 83 ec 30          	sub    $0x30,%rsp
    bebe2346:	48 89 7d f8          	mov    %rdi,-0x8(%rbp)
    bebe234a:	48 89 75 f0          	mov    %rsi,-0x10(%rbp)
    bebe234e:	48 89 55 e8          	mov    %rdx,-0x18(%rbp)
    bebe2352:	89 c8                	mov    %ecx,%eax
    bebe2354:	4c 89 45 d8          	mov    %r8,-0x28(%rbp)
    bebe2358:	4c 89 4d d0          	mov    %r9,-0x30(%rbp)
    bebe235c:	88 45 e4             	mov    %al,-0x1c(%rbp)
    bebe235f:	48 8b 45 f8          	mov    -0x8(%rbp),%rax
    bebe2363:	48 8b 55 e8          	mov    -0x18(%rbp),%rdx
    bebe2367:	48 8b 4d f0          	mov    -0x10(%rbp),%rcx
    bebe236b:	48 89 ce             	mov    %rcx,%rsi
    bebe236e:	48 89 c7             	mov    %rax,%rdi
    bebe2371:	48 b8 52 22 be be 00 	movabs $0xbebe2252,%rax
    bebe2378:	00 00 00 
    bebe237b:	ff d0                	call   *%rax
    bebe237d:	48 ba 50 56 be be 00 	movabs $0xbebe5650,%rdx
    bebe2384:	00 00 00 
    bebe2387:	48 8b 45 f8          	mov    -0x8(%rbp),%rax
    bebe238b:	48 89 10             	mov    %rdx,(%rax)
    bebe238e:	48 8b 45 f8          	mov    -0x8(%rbp),%rax
    bebe2392:	0f b6 55 e4          	movzbl -0x1c(%rbp),%edx
    bebe2396:	88 90 98 00 00 00    	mov    %dl,0x98(%rax)
    bebe239c:	48 8b 45 f8          	mov    -0x8(%rbp),%rax
    bebe23a0:	c7 80 9c 00 00 00 00 	movl   $0x0,0x9c(%rax)
    bebe23a7:	00 00 00 
    bebe23aa:	48 8b 45 f8          	mov    -0x8(%rbp),%rax
    bebe23ae:	48 8b 55 d8          	mov    -0x28(%rbp),%rdx
    bebe23b2:	48 89 90 a0 00 00 00 	mov    %rdx,0xa0(%rax)
    bebe23b9:	48 8b 45 f8          	mov    -0x8(%rbp),%rax
    bebe23bd:	48 8b 55 d0          	mov    -0x30(%rbp),%rdx
    bebe23c1:	48 89 90 a8 00 00 00 	mov    %rdx,0xa8(%rax)
    bebe23c8:	48 8b 45 f8          	mov    -0x8(%rbp),%rax
    bebe23cc:	48 8d b8 b0 00 00 00 	lea    0xb0(%rax),%rdi
    bebe23d3:	48 8b 55 d0          	mov    -0x30(%rbp),%rdx
    bebe23d7:	48 8b 45 d8          	mov    -0x28(%rbp),%rax
    bebe23db:	b9 00 00 00 00       	mov    $0x0,%ecx
    bebe23e0:	48 89 c6             	mov    %rax,%rsi
    bebe23e3:	48 b8 6c 30 be be 00 	movabs $0xbebe306c,%rax
    bebe23ea:	00 00 00 
    bebe23ed:	ff d0                	call   *%rax
    bebe23ef:	48 8b 45 f8          	mov    -0x8(%rbp),%rax
    bebe23f3:	c6 40 08 00          	movb   $0x0,0x8(%rax)
    bebe23f7:	90                   	nop
    bebe23f8:	c9                   	leave
    bebe23f9:	c3                   	ret

00000000bebe23fa <_ZN11vfsDirEntry8get_pathEv>:
    bebe23fa:	55                   	push   %rbp
    bebe23fb:	48 89 e5             	mov    %rsp,%rbp
    bebe23fe:	48 81 ec 30 01 00 00 	sub    $0x130,%rsp
    bebe2405:	48 89 bd d8 fe ff ff 	mov    %rdi,-0x128(%rbp)
    bebe240c:	ba 80 00 00 00       	mov    $0x80,%edx
    bebe2411:	be 00 00 00 00       	mov    $0x0,%esi
    bebe2416:	48 b8 80 66 be be 00 	movabs $0xbebe6680,%rax
    bebe241d:	00 00 00 
    bebe2420:	48 89 c7             	mov    %rax,%rdi
    bebe2423:	48 b8 83 52 be be 00 	movabs $0xbebe5283,%rax
    bebe242a:	00 00 00 
    bebe242d:	ff d0                	call   *%rax
    bebe242f:	48 b8 80 66 be be 00 	movabs $0xbebe6680,%rax
    bebe2436:	00 00 00 
    bebe2439:	48 89 45 f8          	mov    %rax,-0x8(%rbp)
    bebe243d:	c7 45 f4 00 00 00 00 	movl   $0x0,-0xc(%rbp)
    bebe2444:	48 8b 85 d8 fe ff ff 	mov    -0x128(%rbp),%rax
    bebe244b:	48 89 45 e8          	mov    %rax,-0x18(%rbp)
    bebe244f:	eb 26                	jmp    bebe2477 <_ZN11vfsDirEntry8get_pathEv+0x7d>
    bebe2451:	48 8b 55 e8          	mov    -0x18(%rbp),%rdx
    bebe2455:	8b 45 f4             	mov    -0xc(%rbp),%eax
    bebe2458:	8d 48 01             	lea    0x1(%rax),%ecx
    bebe245b:	89 4d f4             	mov    %ecx,-0xc(%rbp)
    bebe245e:	48 98                	cltq
    bebe2460:	48 89 94 c5 e0 fe ff 	mov    %rdx,-0x120(%rbp,%rax,8)
    bebe2467:	ff 
    bebe2468:	48 8b 45 e8          	mov    -0x18(%rbp),%rax
    bebe246c:	48 8b 80 90 00 00 00 	mov    0x90(%rax),%rax
    bebe2473:	48 89 45 e8          	mov    %rax,-0x18(%rbp)
    bebe2477:	48 83 7d e8 00       	cmpq   $0x0,-0x18(%rbp)
    bebe247c:	75 d3                	jne    bebe2451 <_ZN11vfsDirEntry8get_pathEv+0x57>
    bebe247e:	83 6d f4 01          	subl   $0x1,-0xc(%rbp)
    bebe2482:	8b 45 f4             	mov    -0xc(%rbp),%eax
    bebe2485:	8d 50 ff             	lea    -0x1(%rax),%edx
    bebe2488:	89 55 f4             	mov    %edx,-0xc(%rbp)
    bebe248b:	48 98                	cltq
    bebe248d:	48 8b 84 c5 e0 fe ff 	mov    -0x120(%rbp,%rax,8),%rax
    bebe2494:	ff 
    bebe2495:	48 89 45 e8          	mov    %rax,-0x18(%rbp)
    bebe2499:	48 8b 45 e8          	mov    -0x18(%rbp),%rax
    bebe249d:	48 8d 50 09          	lea    0x9(%rax),%rdx
    bebe24a1:	48 8b 45 f8          	mov    -0x8(%rbp),%rax
    bebe24a5:	48 b9 32 56 be be 00 	movabs $0xbebe5632,%rcx
    bebe24ac:	00 00 00 
    bebe24af:	48 89 ce             	mov    %rcx,%rsi
    bebe24b2:	48 89 c7             	mov    %rax,%rdi
    bebe24b5:	b8 00 00 00 00       	mov    $0x0,%eax
    bebe24ba:	48 b9 3e 4b be be 00 	movabs $0xbebe4b3e,%rcx
    bebe24c1:	00 00 00 
    bebe24c4:	ff d1                	call   *%rcx
    bebe24c6:	48 98                	cltq
    bebe24c8:	48 01 45 f8          	add    %rax,-0x8(%rbp)
    bebe24cc:	eb 48                	jmp    bebe2516 <_ZN11vfsDirEntry8get_pathEv+0x11c>
    bebe24ce:	8b 45 f4             	mov    -0xc(%rbp),%eax
    bebe24d1:	48 98                	cltq
    bebe24d3:	48 8b 84 c5 e0 fe ff 	mov    -0x120(%rbp,%rax,8),%rax
    bebe24da:	ff 
    bebe24db:	48 89 45 e8          	mov    %rax,-0x18(%rbp)
    bebe24df:	48 8b 45 e8          	mov    -0x18(%rbp),%rax
    bebe24e3:	48 8d 50 09          	lea    0x9(%rax),%rdx
    bebe24e7:	48 8b 45 f8          	mov    -0x8(%rbp),%rax
    bebe24eb:	48 b9 36 56 be be 00 	movabs $0xbebe5636,%rcx
    bebe24f2:	00 00 00 
    bebe24f5:	48 89 ce             	mov    %rcx,%rsi
    bebe24f8:	48 89 c7             	mov    %rax,%rdi
    bebe24fb:	b8 00 00 00 00       	mov    $0x0,%eax
    bebe2500:	48 b9 3e 4b be be 00 	movabs $0xbebe4b3e,%rcx
    bebe2507:	00 00 00 
    bebe250a:	ff d1                	call   *%rcx
    bebe250c:	48 98                	cltq
    bebe250e:	48 01 45 f8          	add    %rax,-0x8(%rbp)
    bebe2512:	83 6d f4 01          	subl   $0x1,-0xc(%rbp)
    bebe2516:	83 7d f4 00          	cmpl   $0x0,-0xc(%rbp)
    bebe251a:	79 b2                	jns    bebe24ce <_ZN11vfsDirEntry8get_pathEv+0xd4>
    bebe251c:	48 b8 80 66 be be 00 	movabs $0xbebe6680,%rax
    bebe2523:	00 00 00 
    bebe2526:	c9                   	leave
    bebe2527:	c3                   	ret

00000000bebe2528 <_ZN12vfsFileEntry8get_pathEv>:
    bebe2528:	55                   	push   %rbp
    bebe2529:	48 89 e5             	mov    %rsp,%rbp
    bebe252c:	48 83 ec 20          	sub    $0x20,%rsp
    bebe2530:	48 89 7d e8          	mov    %rdi,-0x18(%rbp)
    bebe2534:	ba 80 00 00 00       	mov    $0x80,%edx
    bebe2539:	be 00 00 00 00       	mov    $0x0,%esi
    bebe253e:	48 b8 80 66 be be 00 	movabs $0xbebe6680,%rax
    bebe2545:	00 00 00 
    bebe2548:	48 89 c7             	mov    %rax,%rdi
    bebe254b:	48 b8 83 52 be be 00 	movabs $0xbebe5283,%rax
    bebe2552:	00 00 00 
    bebe2555:	ff d0                	call   *%rax
    bebe2557:	48 b8 80 66 be be 00 	movabs $0xbebe6680,%rax
    bebe255e:	00 00 00 
    bebe2561:	48 89 45 f8          	mov    %rax,-0x8(%rbp)
    bebe2565:	48 8b 45 e8          	mov    -0x18(%rbp),%rax
    bebe2569:	48 8b 80 90 00 00 00 	mov    0x90(%rax),%rax
    bebe2570:	48 8b 00             	mov    (%rax),%rax
    bebe2573:	48 8b 10             	mov    (%rax),%rdx
    bebe2576:	48 8b 45 e8          	mov    -0x18(%rbp),%rax
    bebe257a:	48 8b 80 90 00 00 00 	mov    0x90(%rax),%rax
    bebe2581:	48 89 c7             	mov    %rax,%rdi
    bebe2584:	ff d2                	call   *%rdx
    bebe2586:	48 89 c2             	mov    %rax,%rdx
    bebe2589:	48 8b 45 f8          	mov    -0x8(%rbp),%rax
    bebe258d:	48 b9 36 56 be be 00 	movabs $0xbebe5636,%rcx
    bebe2594:	00 00 00 
    bebe2597:	48 89 ce             	mov    %rcx,%rsi
    bebe259a:	48 89 c7             	mov    %rax,%rdi
    bebe259d:	b8 00 00 00 00       	mov    $0x0,%eax
    bebe25a2:	48 b9 3e 4b be be 00 	movabs $0xbebe4b3e,%rcx
    bebe25a9:	00 00 00 
    bebe25ac:	ff d1                	call   *%rcx
    bebe25ae:	48 98                	cltq
    bebe25b0:	48 01 45 f8          	add    %rax,-0x8(%rbp)
    bebe25b4:	48 8b 45 e8          	mov    -0x18(%rbp),%rax
    bebe25b8:	48 8d 50 09          	lea    0x9(%rax),%rdx
    bebe25bc:	48 8b 45 f8          	mov    -0x8(%rbp),%rax
    bebe25c0:	48 b9 36 56 be be 00 	movabs $0xbebe5636,%rcx
    bebe25c7:	00 00 00 
    bebe25ca:	48 89 ce             	mov    %rcx,%rsi
    bebe25cd:	48 89 c7             	mov    %rax,%rdi
    bebe25d0:	b8 00 00 00 00       	mov    $0x0,%eax
    bebe25d5:	48 b9 3e 4b be be 00 	movabs $0xbebe4b3e,%rcx
    bebe25dc:	00 00 00 
    bebe25df:	ff d1                	call   *%rcx
    bebe25e1:	48 98                	cltq
    bebe25e3:	48 01 45 f8          	add    %rax,-0x8(%rbp)
    bebe25e7:	48 b8 80 66 be be 00 	movabs $0xbebe6680,%rax
    bebe25ee:	00 00 00 
    bebe25f1:	c9                   	leave
    bebe25f2:	c3                   	ret
    bebe25f3:	90                   	nop

00000000bebe25f4 <_Z8tokenizeRSt6vectorIPcEPKcc>:
    bebe25f4:	55                   	push   %rbp
    bebe25f5:	48 89 e5             	mov    %rsp,%rbp
    bebe25f8:	53                   	push   %rbx
    bebe25f9:	48 83 ec 48          	sub    $0x48,%rsp
    bebe25fd:	48 89 7d c8          	mov    %rdi,-0x38(%rbp)
    bebe2601:	48 89 75 c0          	mov    %rsi,-0x40(%rbp)
    bebe2605:	89 d0                	mov    %edx,%eax
    bebe2607:	88 45 bc             	mov    %al,-0x44(%rbp)
    bebe260a:	48 8b 45 c0          	mov    -0x40(%rbp),%rax
    bebe260e:	48 89 c7             	mov    %rax,%rdi
    bebe2611:	48 b8 3d 54 be be 00 	movabs $0xbebe543d,%rax
    bebe2618:	00 00 00 
    bebe261b:	ff d0                	call   *%rax
    bebe261d:	89 45 e4             	mov    %eax,-0x1c(%rbp)
    bebe2620:	48 8b 45 c0          	mov    -0x40(%rbp),%rax
    bebe2624:	48 89 45 e8          	mov    %rax,-0x18(%rbp)
    bebe2628:	48 8b 45 e8          	mov    -0x18(%rbp),%rax
    bebe262c:	48 89 45 d8          	mov    %rax,-0x28(%rbp)
    bebe2630:	e9 a0 00 00 00       	jmp    bebe26d5 <_Z8tokenizeRSt6vectorIPcEPKcc+0xe1>
    bebe2635:	0f be 45 bc          	movsbl -0x44(%rbp),%eax
    bebe2639:	48 8b 55 e8          	mov    -0x18(%rbp),%rdx
    bebe263d:	48 83 c2 01          	add    $0x1,%rdx
    bebe2641:	89 c6                	mov    %eax,%esi
    bebe2643:	48 89 d7             	mov    %rdx,%rdi
    bebe2646:	48 b8 3d 35 be be 00 	movabs $0xbebe353d,%rax
    bebe264d:	00 00 00 
    bebe2650:	ff d0                	call   *%rax
    bebe2652:	48 89 45 d8          	mov    %rax,-0x28(%rbp)
    bebe2656:	48 8b 45 d8          	mov    -0x28(%rbp),%rax
    bebe265a:	48 2b 45 e8          	sub    -0x18(%rbp),%rax
    bebe265e:	48 83 c0 01          	add    $0x1,%rax
    bebe2662:	48 89 c7             	mov    %rax,%rdi
    bebe2665:	48 b8 a4 54 be be 00 	movabs $0xbebe54a4,%rax
    bebe266c:	00 00 00 
    bebe266f:	ff d0                	call   *%rax
    bebe2671:	48 89 45 d0          	mov    %rax,-0x30(%rbp)
    bebe2675:	48 8d 55 d0          	lea    -0x30(%rbp),%rdx
    bebe2679:	48 8b 45 c8          	mov    -0x38(%rbp),%rax
    bebe267d:	48 89 d6             	mov    %rdx,%rsi
    bebe2680:	48 89 c7             	mov    %rax,%rdi
    bebe2683:	48 b8 0c 2b be be 00 	movabs $0xbebe2b0c,%rax
    bebe268a:	00 00 00 
    bebe268d:	ff d0                	call   *%rax
    bebe268f:	48 8b 45 d8          	mov    -0x28(%rbp),%rax
    bebe2693:	48 2b 45 e8          	sub    -0x18(%rbp),%rax
    bebe2697:	48 89 c3             	mov    %rax,%rbx
    bebe269a:	48 8b 45 c8          	mov    -0x38(%rbp),%rax
    bebe269e:	48 89 c7             	mov    %rax,%rdi
    bebe26a1:	48 b8 9c 2b be be 00 	movabs $0xbebe2b9c,%rax
    bebe26a8:	00 00 00 
    bebe26ab:	ff d0                	call   *%rax
    bebe26ad:	48 8b 00             	mov    (%rax),%rax
    bebe26b0:	48 8b 4d e8          	mov    -0x18(%rbp),%rcx
    bebe26b4:	48 89 da             	mov    %rbx,%rdx
    bebe26b7:	48 89 ce             	mov    %rcx,%rsi
    bebe26ba:	48 89 c7             	mov    %rax,%rdi
    bebe26bd:	48 b8 db 53 be be 00 	movabs $0xbebe53db,%rax
    bebe26c4:	00 00 00 
    bebe26c7:	ff d0                	call   *%rax
    bebe26c9:	48 8b 45 d8          	mov    -0x28(%rbp),%rax
    bebe26cd:	48 83 c0 01          	add    $0x1,%rax
    bebe26d1:	48 89 45 e8          	mov    %rax,-0x18(%rbp)
    bebe26d5:	8b 45 e4             	mov    -0x1c(%rbp),%eax
    bebe26d8:	48 63 d0             	movslq %eax,%rdx
    bebe26db:	48 8b 45 c0          	mov    -0x40(%rbp),%rax
    bebe26df:	48 01 d0             	add    %rdx,%rax
    bebe26e2:	48 39 45 e8          	cmp    %rax,-0x18(%rbp)
    bebe26e6:	0f 82 49 ff ff ff    	jb     bebe2635 <_Z8tokenizeRSt6vectorIPcEPKcc+0x41>
    bebe26ec:	48 8b 45 c8          	mov    -0x38(%rbp),%rax
    bebe26f0:	48 8b 5d f8          	mov    -0x8(%rbp),%rbx
    bebe26f4:	c9                   	leave
    bebe26f5:	c3                   	ret

00000000bebe26f6 <_ZN10filesystem4pathC1EPKc>:
    bebe26f6:	55                   	push   %rbp
    bebe26f7:	48 89 e5             	mov    %rsp,%rbp
    bebe26fa:	48 83 ec 40          	sub    $0x40,%rsp
    bebe26fe:	48 89 7d c8          	mov    %rdi,-0x38(%rbp)
    bebe2702:	48 89 75 c0          	mov    %rsi,-0x40(%rbp)
    bebe2706:	48 8b 45 c8          	mov    -0x38(%rbp),%rax
    bebe270a:	be 00 00 00 00       	mov    $0x0,%esi
    bebe270f:	48 89 c7             	mov    %rax,%rdi
    bebe2712:	48 b8 f6 2b be be 00 	movabs $0xbebe2bf6,%rax
    bebe2719:	00 00 00 
    bebe271c:	ff d0                	call   *%rax
    bebe271e:	48 8b 45 c8          	mov    -0x38(%rbp),%rax
    bebe2722:	48 83 c0 20          	add    $0x20,%rax
    bebe2726:	48 89 c7             	mov    %rax,%rdi
    bebe2729:	48 b8 b6 2b be be 00 	movabs $0xbebe2bb6,%rax
    bebe2730:	00 00 00 
    bebe2733:	ff d0                	call   *%rax
    bebe2735:	48 8b 45 c8          	mov    -0x38(%rbp),%rax
    bebe2739:	48 be 20 67 be be 00 	movabs $0xbebe6720,%rsi
    bebe2740:	00 00 00 
    bebe2743:	48 89 70 40          	mov    %rsi,0x40(%rax)
    bebe2747:	48 8b 45 c8          	mov    -0x38(%rbp),%rax
    bebe274b:	48 89 70 48          	mov    %rsi,0x48(%rax)
    bebe274f:	48 8d 45 ef          	lea    -0x11(%rbp),%rax
    bebe2753:	48 ba a0 56 be be 00 	movabs $0xbebe56a0,%rdx
    bebe275a:	00 00 00 
    bebe275d:	48 89 d6             	mov    %rdx,%rsi
    bebe2760:	48 89 c7             	mov    %rax,%rdi
    bebe2763:	48 b8 12 11 be be 00 	movabs $0xbebe1112,%rax
    bebe276a:	00 00 00 
    bebe276d:	ff d0                	call   *%rax
    bebe276f:	48 8b 55 c0          	mov    -0x40(%rbp),%rdx
    bebe2773:	48 8d 45 ef          	lea    -0x11(%rbp),%rax
    bebe2777:	48 b9 b7 56 be be 00 	movabs $0xbebe56b7,%rcx
    bebe277e:	00 00 00 
    bebe2781:	48 89 ce             	mov    %rcx,%rsi
    bebe2784:	48 89 c7             	mov    %rax,%rdi
    bebe2787:	b8 00 00 00 00       	mov    $0x0,%eax
    bebe278c:	48 b9 fa 12 be be 00 	movabs $0xbebe12fa,%rcx
    bebe2793:	00 00 00 
    bebe2796:	ff d1                	call   *%rcx
    bebe2798:	48 8b 45 c8          	mov    -0x38(%rbp),%rax
    bebe279c:	48 8b 4d c0          	mov    -0x40(%rbp),%rcx
    bebe27a0:	ba 2f 00 00 00       	mov    $0x2f,%edx
    bebe27a5:	48 89 ce             	mov    %rcx,%rsi
    bebe27a8:	48 89 c7             	mov    %rax,%rdi
    bebe27ab:	48 b8 f4 25 be be 00 	movabs $0xbebe25f4,%rax
    bebe27b2:	00 00 00 
    bebe27b5:	ff d0                	call   *%rax
    bebe27b7:	48 89 c1             	mov    %rax,%rcx
    bebe27ba:	48 8b 75 c8          	mov    -0x38(%rbp),%rsi
    bebe27be:	48 8b 01             	mov    (%rcx),%rax
    bebe27c1:	48 8b 51 08          	mov    0x8(%rcx),%rdx
    bebe27c5:	48 89 06             	mov    %rax,(%rsi)
    bebe27c8:	48 89 56 08          	mov    %rdx,0x8(%rsi)
    bebe27cc:	48 8b 41 10          	mov    0x10(%rcx),%rax
    bebe27d0:	48 8b 51 18          	mov    0x18(%rcx),%rdx
    bebe27d4:	48 89 46 10          	mov    %rax,0x10(%rsi)
    bebe27d8:	48 89 56 18          	mov    %rdx,0x18(%rsi)
    bebe27dc:	48 8b 45 c8          	mov    -0x38(%rbp),%rax
    bebe27e0:	48 89 c7             	mov    %rax,%rdi
    bebe27e3:	48 b8 9c 2b be be 00 	movabs $0xbebe2b9c,%rax
    bebe27ea:	00 00 00 
    bebe27ed:	ff d0                	call   *%rax
    bebe27ef:	48 8b 00             	mov    (%rax),%rax
    bebe27f2:	be 2e 00 00 00       	mov    $0x2e,%esi
    bebe27f7:	48 89 c7             	mov    %rax,%rdi
    bebe27fa:	48 b8 72 35 be be 00 	movabs $0xbebe3572,%rax
    bebe2801:	00 00 00 
    bebe2804:	ff d0                	call   *%rax
    bebe2806:	48 83 f8 01          	cmp    $0x1,%rax
    bebe280a:	0f 94 c0             	sete   %al
    bebe280d:	84 c0                	test   %al,%al
    bebe280f:	0f 84 a2 01 00 00    	je     bebe29b7 <_ZN10filesystem4pathC1EPKc+0x2c1>
    bebe2815:	48 8b 45 c8          	mov    -0x38(%rbp),%rax
    bebe2819:	48 89 c7             	mov    %rax,%rdi
    bebe281c:	48 b8 9c 2b be be 00 	movabs $0xbebe2b9c,%rax
    bebe2823:	00 00 00 
    bebe2826:	ff d0                	call   *%rax
    bebe2828:	48 8b 00             	mov    (%rax),%rax
    bebe282b:	48 8b 55 c8          	mov    -0x38(%rbp),%rdx
    bebe282f:	48 8d 4a 20          	lea    0x20(%rdx),%rcx
    bebe2833:	ba 2e 00 00 00       	mov    $0x2e,%edx
    bebe2838:	48 89 c6             	mov    %rax,%rsi
    bebe283b:	48 89 cf             	mov    %rcx,%rdi
    bebe283e:	48 b8 f4 25 be be 00 	movabs $0xbebe25f4,%rax
    bebe2845:	00 00 00 
    bebe2848:	ff d0                	call   *%rax
    bebe284a:	48 89 c1             	mov    %rax,%rcx
    bebe284d:	48 8b 75 c8          	mov    -0x38(%rbp),%rsi
    bebe2851:	48 8b 01             	mov    (%rcx),%rax
    bebe2854:	48 8b 51 08          	mov    0x8(%rcx),%rdx
    bebe2858:	48 89 46 20          	mov    %rax,0x20(%rsi)
    bebe285c:	48 89 56 28          	mov    %rdx,0x28(%rsi)
    bebe2860:	48 8b 41 10          	mov    0x10(%rcx),%rax
    bebe2864:	48 8b 51 18          	mov    0x18(%rcx),%rdx
    bebe2868:	48 89 46 30          	mov    %rax,0x30(%rsi)
    bebe286c:	48 89 56 38          	mov    %rdx,0x38(%rsi)
    bebe2870:	48 8b 45 c8          	mov    -0x38(%rbp),%rax
    bebe2874:	48 89 c7             	mov    %rax,%rdi
    bebe2877:	48 b8 9c 2b be be 00 	movabs $0xbebe2b9c,%rax
    bebe287e:	00 00 00 
    bebe2881:	ff d0                	call   *%rax
    bebe2883:	48 8b 00             	mov    (%rax),%rax
    bebe2886:	48 85 c0             	test   %rax,%rax
    bebe2889:	74 0f                	je     bebe289a <_ZN10filesystem4pathC1EPKc+0x1a4>
    bebe288b:	48 89 c7             	mov    %rax,%rdi
    bebe288e:	48 b8 0d 55 be be 00 	movabs $0xbebe550d,%rax
    bebe2895:	00 00 00 
    bebe2898:	ff d0                	call   *%rax
    bebe289a:	48 8b 45 c8          	mov    -0x38(%rbp),%rax
    bebe289e:	48 89 c7             	mov    %rax,%rdi
    bebe28a1:	48 b8 b6 2c be be 00 	movabs $0xbebe2cb6,%rax
    bebe28a8:	00 00 00 
    bebe28ab:	ff d0                	call   *%rax
    bebe28ad:	48 8b 45 c8          	mov    -0x38(%rbp),%rax
    bebe28b1:	48 83 c0 20          	add    $0x20,%rax
    bebe28b5:	be 00 00 00 00       	mov    $0x0,%esi
    bebe28ba:	48 89 c7             	mov    %rax,%rdi
    bebe28bd:	48 b8 da 2c be be 00 	movabs $0xbebe2cda,%rax
    bebe28c4:	00 00 00 
    bebe28c7:	ff d0                	call   *%rax
    bebe28c9:	48 8b 00             	mov    (%rax),%rax
    bebe28cc:	48 89 c7             	mov    %rax,%rdi
    bebe28cf:	48 b8 3d 54 be be 00 	movabs $0xbebe543d,%rax
    bebe28d6:	00 00 00 
    bebe28d9:	ff d0                	call   *%rax
    bebe28db:	48 83 c0 01          	add    $0x1,%rax
    bebe28df:	48 89 c7             	mov    %rax,%rdi
    bebe28e2:	48 b8 a4 54 be be 00 	movabs $0xbebe54a4,%rax
    bebe28e9:	00 00 00 
    bebe28ec:	ff d0                	call   *%rax
    bebe28ee:	48 89 c2             	mov    %rax,%rdx
    bebe28f1:	48 8b 45 c8          	mov    -0x38(%rbp),%rax
    bebe28f5:	48 89 50 40          	mov    %rdx,0x40(%rax)
    bebe28f9:	48 8b 45 c8          	mov    -0x38(%rbp),%rax
    bebe28fd:	48 83 c0 20          	add    $0x20,%rax
    bebe2901:	be 01 00 00 00       	mov    $0x1,%esi
    bebe2906:	48 89 c7             	mov    %rax,%rdi
    bebe2909:	48 b8 da 2c be be 00 	movabs $0xbebe2cda,%rax
    bebe2910:	00 00 00 
    bebe2913:	ff d0                	call   *%rax
    bebe2915:	48 8b 00             	mov    (%rax),%rax
    bebe2918:	48 89 c7             	mov    %rax,%rdi
    bebe291b:	48 b8 3d 54 be be 00 	movabs $0xbebe543d,%rax
    bebe2922:	00 00 00 
    bebe2925:	ff d0                	call   *%rax
    bebe2927:	48 83 c0 01          	add    $0x1,%rax
    bebe292b:	48 89 c7             	mov    %rax,%rdi
    bebe292e:	48 b8 a4 54 be be 00 	movabs $0xbebe54a4,%rax
    bebe2935:	00 00 00 
    bebe2938:	ff d0                	call   *%rax
    bebe293a:	48 89 c2             	mov    %rax,%rdx
    bebe293d:	48 8b 45 c8          	mov    -0x38(%rbp),%rax
    bebe2941:	48 89 50 48          	mov    %rdx,0x48(%rax)
    bebe2945:	48 8b 45 c8          	mov    -0x38(%rbp),%rax
    bebe2949:	48 83 c0 20          	add    $0x20,%rax
    bebe294d:	be 00 00 00 00       	mov    $0x0,%esi
    bebe2952:	48 89 c7             	mov    %rax,%rdi
    bebe2955:	48 b8 da 2c be be 00 	movabs $0xbebe2cda,%rax
    bebe295c:	00 00 00 
    bebe295f:	ff d0                	call   *%rax
    bebe2961:	48 8b 10             	mov    (%rax),%rdx
    bebe2964:	48 8b 45 c8          	mov    -0x38(%rbp),%rax
    bebe2968:	48 8b 40 40          	mov    0x40(%rax),%rax
    bebe296c:	48 89 d6             	mov    %rdx,%rsi
    bebe296f:	48 89 c7             	mov    %rax,%rdi
    bebe2972:	48 b8 94 53 be be 00 	movabs $0xbebe5394,%rax
    bebe2979:	00 00 00 
    bebe297c:	ff d0                	call   *%rax
    bebe297e:	48 8b 45 c8          	mov    -0x38(%rbp),%rax
    bebe2982:	48 83 c0 20          	add    $0x20,%rax
    bebe2986:	be 01 00 00 00       	mov    $0x1,%esi
    bebe298b:	48 89 c7             	mov    %rax,%rdi
    bebe298e:	48 b8 da 2c be be 00 	movabs $0xbebe2cda,%rax
    bebe2995:	00 00 00 
    bebe2998:	ff d0                	call   *%rax
    bebe299a:	48 8b 10             	mov    (%rax),%rdx
    bebe299d:	48 8b 45 c8          	mov    -0x38(%rbp),%rax
    bebe29a1:	48 8b 40 48          	mov    0x48(%rax),%rax
    bebe29a5:	48 89 d6             	mov    %rdx,%rsi
    bebe29a8:	48 89 c7             	mov    %rax,%rdi
    bebe29ab:	48 b8 94 53 be be 00 	movabs $0xbebe5394,%rax
    bebe29b2:	00 00 00 
    bebe29b5:	ff d0                	call   *%rax
    bebe29b7:	48 8b 45 c8          	mov    -0x38(%rbp),%rax
    bebe29bb:	48 89 45 f8          	mov    %rax,-0x8(%rbp)
    bebe29bf:	48 8d 45 e0          	lea    -0x20(%rbp),%rax
    bebe29c3:	48 8b 55 f8          	mov    -0x8(%rbp),%rdx
    bebe29c7:	48 89 d6             	mov    %rdx,%rsi
    bebe29ca:	48 89 c7             	mov    %rax,%rdi
    bebe29cd:	48 b8 00 2d be be 00 	movabs $0xbebe2d00,%rax
    bebe29d4:	00 00 00 
    bebe29d7:	ff d0                	call   *%rax
    bebe29d9:	48 8d 45 d8          	lea    -0x28(%rbp),%rax
    bebe29dd:	48 8b 55 f8          	mov    -0x8(%rbp),%rdx
    bebe29e1:	48 89 d6             	mov    %rdx,%rsi
    bebe29e4:	48 89 c7             	mov    %rax,%rdi
    bebe29e7:	48 b8 34 2d be be 00 	movabs $0xbebe2d34,%rax
    bebe29ee:	00 00 00 
    bebe29f1:	ff d0                	call   *%rax
    bebe29f3:	eb 56                	jmp    bebe2a4b <_ZN10filesystem4pathC1EPKc+0x355>
    bebe29f5:	48 8d 45 e0          	lea    -0x20(%rbp),%rax
    bebe29f9:	48 89 c7             	mov    %rax,%rdi
    bebe29fc:	48 b8 b2 2d be be 00 	movabs $0xbebe2db2,%rax
    bebe2a03:	00 00 00 
    bebe2a06:	ff d0                	call   *%rax
    bebe2a08:	48 8b 00             	mov    (%rax),%rax
    bebe2a0b:	48 89 45 f0          	mov    %rax,-0x10(%rbp)
    bebe2a0f:	48 8b 55 f0          	mov    -0x10(%rbp),%rdx
    bebe2a13:	48 8d 45 ef          	lea    -0x11(%rbp),%rax
    bebe2a17:	48 b9 c3 56 be be 00 	movabs $0xbebe56c3,%rcx
    bebe2a1e:	00 00 00 
    bebe2a21:	48 89 ce             	mov    %rcx,%rsi
    bebe2a24:	48 89 c7             	mov    %rax,%rdi
    bebe2a27:	b8 00 00 00 00       	mov    $0x0,%eax
    bebe2a2c:	48 b9 fa 12 be be 00 	movabs $0xbebe12fa,%rcx
    bebe2a33:	00 00 00 
    bebe2a36:	ff d1                	call   *%rcx
    bebe2a38:	48 8d 45 e0          	lea    -0x20(%rbp),%rax
    bebe2a3c:	48 89 c7             	mov    %rax,%rdi
    bebe2a3f:	48 b8 8e 2d be be 00 	movabs $0xbebe2d8e,%rax
    bebe2a46:	00 00 00 
    bebe2a49:	ff d0                	call   *%rax
    bebe2a4b:	48 8d 55 d8          	lea    -0x28(%rbp),%rdx
    bebe2a4f:	48 8d 45 e0          	lea    -0x20(%rbp),%rax
    bebe2a53:	48 89 d6             	mov    %rdx,%rsi
    bebe2a56:	48 89 c7             	mov    %rax,%rdi
    bebe2a59:	48 b8 68 2d be be 00 	movabs $0xbebe2d68,%rax
    bebe2a60:	00 00 00 
    bebe2a63:	ff d0                	call   *%rax
    bebe2a65:	84 c0                	test   %al,%al
    bebe2a67:	75 8c                	jne    bebe29f5 <_ZN10filesystem4pathC1EPKc+0x2ff>
    bebe2a69:	48 8b 45 c8          	mov    -0x38(%rbp),%rax
    bebe2a6d:	48 8b 50 40          	mov    0x40(%rax),%rdx
    bebe2a71:	48 8d 45 ef          	lea    -0x11(%rbp),%rax
    bebe2a75:	48 b9 ce 56 be be 00 	movabs $0xbebe56ce,%rcx
    bebe2a7c:	00 00 00 
    bebe2a7f:	48 89 ce             	mov    %rcx,%rsi
    bebe2a82:	48 89 c7             	mov    %rax,%rdi
    bebe2a85:	b8 00 00 00 00       	mov    $0x0,%eax
    bebe2a8a:	48 b9 fa 12 be be 00 	movabs $0xbebe12fa,%rcx
    bebe2a91:	00 00 00 
    bebe2a94:	ff d1                	call   *%rcx
    bebe2a96:	48 8b 45 c8          	mov    -0x38(%rbp),%rax
    bebe2a9a:	48 8b 50 48          	mov    0x48(%rax),%rdx
    bebe2a9e:	48 8d 45 ef          	lea    -0x11(%rbp),%rax
    bebe2aa2:	48 b9 d9 56 be be 00 	movabs $0xbebe56d9,%rcx
    bebe2aa9:	00 00 00 
    bebe2aac:	48 89 ce             	mov    %rcx,%rsi
    bebe2aaf:	48 89 c7             	mov    %rax,%rdi
    bebe2ab2:	b8 00 00 00 00       	mov    $0x0,%eax
    bebe2ab7:	48 b9 fa 12 be be 00 	movabs $0xbebe12fa,%rcx
    bebe2abe:	00 00 00 
    bebe2ac1:	ff d1                	call   *%rcx
    bebe2ac3:	48 8d 45 ef          	lea    -0x11(%rbp),%rax
    bebe2ac7:	48 89 c7             	mov    %rax,%rdi
    bebe2aca:	48 b8 8e 11 be be 00 	movabs $0xbebe118e,%rax
    bebe2ad1:	00 00 00 
    bebe2ad4:	ff d0                	call   *%rax
    bebe2ad6:	90                   	nop
    bebe2ad7:	c9                   	leave
    bebe2ad8:	c3                   	ret

00000000bebe2ad9 <_Z41__static_initialization_and_destruction_0v>:
    bebe2ad9:	55                   	push   %rbp
    bebe2ada:	48 89 e5             	mov    %rsp,%rbp
    bebe2add:	48 b8 00 67 be be 00 	movabs $0xbebe6700,%rax
    bebe2ae4:	00 00 00 
    bebe2ae7:	48 89 c7             	mov    %rax,%rdi
    bebe2aea:	48 b8 b6 2b be be 00 	movabs $0xbebe2bb6,%rax
    bebe2af1:	00 00 00 
    bebe2af4:	ff d0                	call   *%rax
    bebe2af6:	90                   	nop
    bebe2af7:	5d                   	pop    %rbp
    bebe2af8:	c3                   	ret

00000000bebe2af9 <_GLOBAL__sub_I__Z8tokenizeRSt6vectorIPcEPKcc>:
    bebe2af9:	55                   	push   %rbp
    bebe2afa:	48 89 e5             	mov    %rsp,%rbp
    bebe2afd:	48 b8 d9 2a be be 00 	movabs $0xbebe2ad9,%rax
    bebe2b04:	00 00 00 
    bebe2b07:	ff d0                	call   *%rax
    bebe2b09:	5d                   	pop    %rbp
    bebe2b0a:	c3                   	ret
    bebe2b0b:	90                   	nop

00000000bebe2b0c <_ZNSt6vectorIPcE9push_backERKS0_>:
    bebe2b0c:	55                   	push   %rbp
    bebe2b0d:	48 89 e5             	mov    %rsp,%rbp
    bebe2b10:	48 83 ec 10          	sub    $0x10,%rsp
    bebe2b14:	48 89 7d f8          	mov    %rdi,-0x8(%rbp)
    bebe2b18:	48 89 75 f0          	mov    %rsi,-0x10(%rbp)
    bebe2b1c:	48 8b 45 f8          	mov    -0x8(%rbp),%rax
    bebe2b20:	48 8b 40 10          	mov    0x10(%rax),%rax
    bebe2b24:	48 8d 50 08          	lea    0x8(%rax),%rdx
    bebe2b28:	48 8b 45 f8          	mov    -0x8(%rbp),%rax
    bebe2b2c:	48 8b 40 18          	mov    0x18(%rax),%rax
    bebe2b30:	48 39 c2             	cmp    %rax,%rdx
    bebe2b33:	75 21                	jne    bebe2b56 <_ZNSt6vectorIPcE9push_backERKS0_+0x4a>
    bebe2b35:	48 8b 45 f8          	mov    -0x8(%rbp),%rax
    bebe2b39:	48 8b 00             	mov    (%rax),%rax
    bebe2b3c:	48 8d 14 00          	lea    (%rax,%rax,1),%rdx
    bebe2b40:	48 8b 45 f8          	mov    -0x8(%rbp),%rax
    bebe2b44:	48 89 d6             	mov    %rdx,%rsi
    bebe2b47:	48 89 c7             	mov    %rax,%rdi
    bebe2b4a:	48 b8 c8 2d be be 00 	movabs $0xbebe2dc8,%rax
    bebe2b51:	00 00 00 
    bebe2b54:	ff d0                	call   *%rax
    bebe2b56:	48 8b 45 f8          	mov    -0x8(%rbp),%rax
    bebe2b5a:	48 8b 40 10          	mov    0x10(%rax),%rax
    bebe2b5e:	48 89 c6             	mov    %rax,%rsi
    bebe2b61:	bf 08 00 00 00       	mov    $0x8,%edi
    bebe2b66:	48 b8 2e 1d be be 00 	movabs $0xbebe1d2e,%rax
    bebe2b6d:	00 00 00 
    bebe2b70:	ff d0                	call   *%rax
    bebe2b72:	48 8b 55 f0          	mov    -0x10(%rbp),%rdx
    bebe2b76:	48 8b 12             	mov    (%rdx),%rdx
    bebe2b79:	48 89 10             	mov    %rdx,(%rax)
    bebe2b7c:	48 8b 55 f8          	mov    -0x8(%rbp),%rdx
    bebe2b80:	48 89 42 10          	mov    %rax,0x10(%rdx)
    bebe2b84:	48 8b 45 f8          	mov    -0x8(%rbp),%rax
    bebe2b88:	48 8b 40 10          	mov    0x10(%rax),%rax
    bebe2b8c:	48 8d 50 08          	lea    0x8(%rax),%rdx
    bebe2b90:	48 8b 45 f8          	mov    -0x8(%rbp),%rax
    bebe2b94:	48 89 50 10          	mov    %rdx,0x10(%rax)
    bebe2b98:	90                   	nop
    bebe2b99:	c9                   	leave
    bebe2b9a:	c3                   	ret
    bebe2b9b:	90                   	nop

00000000bebe2b9c <_ZNSt6vectorIPcE4backEv>:
    bebe2b9c:	55                   	push   %rbp
    bebe2b9d:	48 89 e5             	mov    %rsp,%rbp
    bebe2ba0:	48 83 ec 08          	sub    $0x8,%rsp
    bebe2ba4:	48 89 7d f8          	mov    %rdi,-0x8(%rbp)
    bebe2ba8:	48 8b 45 f8          	mov    -0x8(%rbp),%rax
    bebe2bac:	48 8b 40 10          	mov    0x10(%rax),%rax
    bebe2bb0:	48 83 e8 08          	sub    $0x8,%rax
    bebe2bb4:	c9                   	leave
    bebe2bb5:	c3                   	ret

00000000bebe2bb6 <_ZNSt6vectorIPcEC1Ev>:
    bebe2bb6:	55                   	push   %rbp
    bebe2bb7:	48 89 e5             	mov    %rsp,%rbp
    bebe2bba:	48 83 ec 10          	sub    $0x10,%rsp
    bebe2bbe:	48 89 7d f8          	mov    %rdi,-0x8(%rbp)
    bebe2bc2:	48 8b 45 f8          	mov    -0x8(%rbp),%rax
    bebe2bc6:	be 10 00 00 00       	mov    $0x10,%esi
    bebe2bcb:	48 89 c7             	mov    %rax,%rdi
    bebe2bce:	48 b8 f6 2b be be 00 	movabs $0xbebe2bf6,%rax
    bebe2bd5:	00 00 00 
    bebe2bd8:	ff d0                	call   *%rax
    bebe2bda:	48 8b 45 f8          	mov    -0x8(%rbp),%rax
    bebe2bde:	be 00 00 00 00       	mov    $0x0,%esi
    bebe2be3:	48 89 c7             	mov    %rax,%rdi
    bebe2be6:	48 b8 c8 2e be be 00 	movabs $0xbebe2ec8,%rax
    bebe2bed:	00 00 00 
    bebe2bf0:	ff d0                	call   *%rax
    bebe2bf2:	90                   	nop
    bebe2bf3:	c9                   	leave
    bebe2bf4:	c3                   	ret
    bebe2bf5:	90                   	nop

00000000bebe2bf6 <_ZNSt6vectorIPcEC1Em>:
    bebe2bf6:	55                   	push   %rbp
    bebe2bf7:	48 89 e5             	mov    %rsp,%rbp
    bebe2bfa:	48 83 ec 20          	sub    $0x20,%rsp
    bebe2bfe:	48 89 7d e8          	mov    %rdi,-0x18(%rbp)
    bebe2c02:	48 89 75 e0          	mov    %rsi,-0x20(%rbp)
    bebe2c06:	48 c7 45 f0 08 00 00 	movq   $0x8,-0x10(%rbp)
    bebe2c0d:	00 
    bebe2c0e:	48 8b 45 e0          	mov    -0x20(%rbp),%rax
    bebe2c12:	48 01 c0             	add    %rax,%rax
    bebe2c15:	48 89 45 f8          	mov    %rax,-0x8(%rbp)
    bebe2c19:	48 8d 55 f0          	lea    -0x10(%rbp),%rdx
    bebe2c1d:	48 8d 45 f8          	lea    -0x8(%rbp),%rax
    bebe2c21:	48 89 d6             	mov    %rdx,%rsi
    bebe2c24:	48 89 c7             	mov    %rax,%rdi
    bebe2c27:	48 b8 51 2f be be 00 	movabs $0xbebe2f51,%rax
    bebe2c2e:	00 00 00 
    bebe2c31:	ff d0                	call   *%rax
    bebe2c33:	48 8b 10             	mov    (%rax),%rdx
    bebe2c36:	48 8b 45 e8          	mov    -0x18(%rbp),%rax
    bebe2c3a:	48 89 10             	mov    %rdx,(%rax)
    bebe2c3d:	48 8b 45 e8          	mov    -0x18(%rbp),%rax
    bebe2c41:	48 8b 00             	mov    (%rax),%rax
    bebe2c44:	48 ba ff ff ff ff ff 	movabs $0xfffffffffffffff,%rdx
    bebe2c4b:	ff ff 0f 
    bebe2c4e:	48 39 c2             	cmp    %rax,%rdx
    bebe2c51:	72 06                	jb     bebe2c59 <_ZNSt6vectorIPcEC1Em+0x63>
    bebe2c53:	48 c1 e0 03          	shl    $0x3,%rax
    bebe2c57:	eb 07                	jmp    bebe2c60 <_ZNSt6vectorIPcEC1Em+0x6a>
    bebe2c59:	48 c7 c0 ff ff ff ff 	mov    $0xffffffffffffffff,%rax
    bebe2c60:	48 89 c7             	mov    %rax,%rdi
    bebe2c63:	48 b8 a4 54 be be 00 	movabs $0xbebe54a4,%rax
    bebe2c6a:	00 00 00 
    bebe2c6d:	ff d0                	call   *%rax
    bebe2c6f:	48 89 c2             	mov    %rax,%rdx
    bebe2c72:	48 8b 45 e8          	mov    -0x18(%rbp),%rax
    bebe2c76:	48 89 50 08          	mov    %rdx,0x8(%rax)
    bebe2c7a:	48 8b 45 e8          	mov    -0x18(%rbp),%rax
    bebe2c7e:	48 8b 40 08          	mov    0x8(%rax),%rax
    bebe2c82:	48 8b 55 e0          	mov    -0x20(%rbp),%rdx
    bebe2c86:	48 c1 e2 03          	shl    $0x3,%rdx
    bebe2c8a:	48 01 c2             	add    %rax,%rdx
    bebe2c8d:	48 8b 45 e8          	mov    -0x18(%rbp),%rax
    bebe2c91:	48 89 50 10          	mov    %rdx,0x10(%rax)
    bebe2c95:	48 8b 45 e8          	mov    -0x18(%rbp),%rax
    bebe2c99:	48 8b 50 08          	mov    0x8(%rax),%rdx
    bebe2c9d:	48 8b 45 e8          	mov    -0x18(%rbp),%rax
    bebe2ca1:	48 8b 00             	mov    (%rax),%rax
    bebe2ca4:	48 c1 e0 03          	shl    $0x3,%rax
    bebe2ca8:	48 01 c2             	add    %rax,%rdx
    bebe2cab:	48 8b 45 e8          	mov    -0x18(%rbp),%rax
    bebe2caf:	48 89 50 18          	mov    %rdx,0x18(%rax)
    bebe2cb3:	90                   	nop
    bebe2cb4:	c9                   	leave
    bebe2cb5:	c3                   	ret

00000000bebe2cb6 <_ZNSt6vectorIPcE8pop_backEv>:
    bebe2cb6:	55                   	push   %rbp
    bebe2cb7:	48 89 e5             	mov    %rsp,%rbp
    bebe2cba:	48 83 ec 08          	sub    $0x8,%rsp
    bebe2cbe:	48 89 7d f8          	mov    %rdi,-0x8(%rbp)
    bebe2cc2:	48 8b 45 f8          	mov    -0x8(%rbp),%rax
    bebe2cc6:	48 8b 40 10          	mov    0x10(%rax),%rax
    bebe2cca:	48 8d 50 f8          	lea    -0x8(%rax),%rdx
    bebe2cce:	48 8b 45 f8          	mov    -0x8(%rbp),%rax
    bebe2cd2:	48 89 50 10          	mov    %rdx,0x10(%rax)
    bebe2cd6:	90                   	nop
    bebe2cd7:	c9                   	leave
    bebe2cd8:	c3                   	ret
    bebe2cd9:	90                   	nop

00000000bebe2cda <_ZNSt6vectorIPcEixEm>:
    bebe2cda:	55                   	push   %rbp
    bebe2cdb:	48 89 e5             	mov    %rsp,%rbp
    bebe2cde:	48 83 ec 10          	sub    $0x10,%rsp
    bebe2ce2:	48 89 7d f8          	mov    %rdi,-0x8(%rbp)
    bebe2ce6:	48 89 75 f0          	mov    %rsi,-0x10(%rbp)
    bebe2cea:	48 8b 45 f8          	mov    -0x8(%rbp),%rax
    bebe2cee:	48 8b 40 08          	mov    0x8(%rax),%rax
    bebe2cf2:	48 8b 55 f0          	mov    -0x10(%rbp),%rdx
    bebe2cf6:	48 c1 e2 03          	shl    $0x3,%rdx
    bebe2cfa:	48 01 d0             	add    %rdx,%rax
    bebe2cfd:	c9                   	leave
    bebe2cfe:	c3                   	ret
    bebe2cff:	90                   	nop

00000000bebe2d00 <_ZNSt6vectorIPcE5beginEv>:
    bebe2d00:	55                   	push   %rbp
    bebe2d01:	48 89 e5             	mov    %rsp,%rbp
    bebe2d04:	48 83 ec 10          	sub    $0x10,%rsp
    bebe2d08:	48 89 7d f8          	mov    %rdi,-0x8(%rbp)
    bebe2d0c:	48 89 75 f0          	mov    %rsi,-0x10(%rbp)
    bebe2d10:	48 8b 45 f0          	mov    -0x10(%rbp),%rax
    bebe2d14:	48 8b 50 08          	mov    0x8(%rax),%rdx
    bebe2d18:	48 8b 45 f8          	mov    -0x8(%rbp),%rax
    bebe2d1c:	48 89 d6             	mov    %rdx,%rsi
    bebe2d1f:	48 89 c7             	mov    %rax,%rdi
    bebe2d22:	48 b8 80 2f be be 00 	movabs $0xbebe2f80,%rax
    bebe2d29:	00 00 00 
    bebe2d2c:	ff d0                	call   *%rax
    bebe2d2e:	48 8b 45 f8          	mov    -0x8(%rbp),%rax
    bebe2d32:	c9                   	leave
    bebe2d33:	c3                   	ret

00000000bebe2d34 <_ZNSt6vectorIPcE3endEv>:
    bebe2d34:	55                   	push   %rbp
    bebe2d35:	48 89 e5             	mov    %rsp,%rbp
    bebe2d38:	48 83 ec 10          	sub    $0x10,%rsp
    bebe2d3c:	48 89 7d f8          	mov    %rdi,-0x8(%rbp)
    bebe2d40:	48 89 75 f0          	mov    %rsi,-0x10(%rbp)
    bebe2d44:	48 8b 45 f0          	mov    -0x10(%rbp),%rax
    bebe2d48:	48 8b 50 10          	mov    0x10(%rax),%rdx
    bebe2d4c:	48 8b 45 f8          	mov    -0x8(%rbp),%rax
    bebe2d50:	48 89 d6             	mov    %rdx,%rsi
    bebe2d53:	48 89 c7             	mov    %rax,%rdi
    bebe2d56:	48 b8 80 2f be be 00 	movabs $0xbebe2f80,%rax
    bebe2d5d:	00 00 00 
    bebe2d60:	ff d0                	call   *%rax
    bebe2d62:	48 8b 45 f8          	mov    -0x8(%rbp),%rax
    bebe2d66:	c9                   	leave
    bebe2d67:	c3                   	ret

00000000bebe2d68 <_ZNSt6vectorIPcE8iteratorneERKS2_>:
    bebe2d68:	55                   	push   %rbp
    bebe2d69:	48 89 e5             	mov    %rsp,%rbp
    bebe2d6c:	48 83 ec 10          	sub    $0x10,%rsp
    bebe2d70:	48 89 7d f8          	mov    %rdi,-0x8(%rbp)
    bebe2d74:	48 89 75 f0          	mov    %rsi,-0x10(%rbp)
    bebe2d78:	48 8b 45 f8          	mov    -0x8(%rbp),%rax
    bebe2d7c:	48 8b 10             	mov    (%rax),%rdx
    bebe2d7f:	48 8b 45 f0          	mov    -0x10(%rbp),%rax
    bebe2d83:	48 8b 00             	mov    (%rax),%rax
    bebe2d86:	48 39 c2             	cmp    %rax,%rdx
    bebe2d89:	0f 95 c0             	setne  %al
    bebe2d8c:	c9                   	leave
    bebe2d8d:	c3                   	ret

00000000bebe2d8e <_ZNSt6vectorIPcE8iteratorppEv>:
    bebe2d8e:	55                   	push   %rbp
    bebe2d8f:	48 89 e5             	mov    %rsp,%rbp
    bebe2d92:	48 83 ec 08          	sub    $0x8,%rsp
    bebe2d96:	48 89 7d f8          	mov    %rdi,-0x8(%rbp)
    bebe2d9a:	48 8b 45 f8          	mov    -0x8(%rbp),%rax
    bebe2d9e:	48 8b 00             	mov    (%rax),%rax
    bebe2da1:	48 8d 50 08          	lea    0x8(%rax),%rdx
    bebe2da5:	48 8b 45 f8          	mov    -0x8(%rbp),%rax
    bebe2da9:	48 89 10             	mov    %rdx,(%rax)
    bebe2dac:	48 8b 45 f8          	mov    -0x8(%rbp),%rax
    bebe2db0:	c9                   	leave
    bebe2db1:	c3                   	ret

00000000bebe2db2 <_ZNSt6vectorIPcE8iteratordeEv>:
    bebe2db2:	55                   	push   %rbp
    bebe2db3:	48 89 e5             	mov    %rsp,%rbp
    bebe2db6:	48 83 ec 08          	sub    $0x8,%rsp
    bebe2dba:	48 89 7d f8          	mov    %rdi,-0x8(%rbp)
    bebe2dbe:	48 8b 45 f8          	mov    -0x8(%rbp),%rax
    bebe2dc2:	48 8b 00             	mov    (%rax),%rax
    bebe2dc5:	c9                   	leave
    bebe2dc6:	c3                   	ret
    bebe2dc7:	90                   	nop

00000000bebe2dc8 <_ZNSt6vectorIPcE8_reallocEm>:
    bebe2dc8:	55                   	push   %rbp
    bebe2dc9:	48 89 e5             	mov    %rsp,%rbp
    bebe2dcc:	48 83 ec 20          	sub    $0x20,%rsp
    bebe2dd0:	48 89 7d e8          	mov    %rdi,-0x18(%rbp)
    bebe2dd4:	48 89 75 e0          	mov    %rsi,-0x20(%rbp)
    bebe2dd8:	48 8b 45 e8          	mov    -0x18(%rbp),%rax
    bebe2ddc:	48 89 c7             	mov    %rax,%rdi
    bebe2ddf:	48 b8 9e 2f be be 00 	movabs $0xbebe2f9e,%rax
    bebe2de6:	00 00 00 
    bebe2de9:	ff d0                	call   *%rax
    bebe2deb:	48 89 45 f8          	mov    %rax,-0x8(%rbp)
    bebe2def:	48 8b 45 e0          	mov    -0x20(%rbp),%rax
    bebe2df3:	48 ba ff ff ff ff ff 	movabs $0xfffffffffffffff,%rdx
    bebe2dfa:	ff ff 0f 
    bebe2dfd:	48 39 c2             	cmp    %rax,%rdx
    bebe2e00:	72 06                	jb     bebe2e08 <_ZNSt6vectorIPcE8_reallocEm+0x40>
    bebe2e02:	48 c1 e0 03          	shl    $0x3,%rax
    bebe2e06:	eb 07                	jmp    bebe2e0f <_ZNSt6vectorIPcE8_reallocEm+0x47>
    bebe2e08:	48 c7 c0 ff ff ff ff 	mov    $0xffffffffffffffff,%rax
    bebe2e0f:	48 89 c7             	mov    %rax,%rdi
    bebe2e12:	48 b8 a4 54 be be 00 	movabs $0xbebe54a4,%rax
    bebe2e19:	00 00 00 
    bebe2e1c:	ff d0                	call   *%rax
    bebe2e1e:	48 89 45 f0          	mov    %rax,-0x10(%rbp)
    bebe2e22:	48 8b 45 e8          	mov    -0x18(%rbp),%rax
    bebe2e26:	48 8b 40 08          	mov    0x8(%rax),%rax
    bebe2e2a:	48 85 c0             	test   %rax,%rax
    bebe2e2d:	74 46                	je     bebe2e75 <_ZNSt6vectorIPcE8_reallocEm+0xad>
    bebe2e2f:	48 8b 45 e8          	mov    -0x18(%rbp),%rax
    bebe2e33:	48 8b 48 08          	mov    0x8(%rax),%rcx
    bebe2e37:	48 8b 55 f8          	mov    -0x8(%rbp),%rdx
    bebe2e3b:	48 8b 45 f0          	mov    -0x10(%rbp),%rax
    bebe2e3f:	48 89 ce             	mov    %rcx,%rsi
    bebe2e42:	48 89 c7             	mov    %rax,%rdi
    bebe2e45:	48 b8 25 51 be be 00 	movabs $0xbebe5125,%rax
    bebe2e4c:	00 00 00 
    bebe2e4f:	ff d0                	call   *%rax
    bebe2e51:	48 8b 45 e8          	mov    -0x18(%rbp),%rax
    bebe2e55:	48 8b 40 08          	mov    0x8(%rax),%rax
    bebe2e59:	48 85 c0             	test   %rax,%rax
    bebe2e5c:	74 17                	je     bebe2e75 <_ZNSt6vectorIPcE8_reallocEm+0xad>
    bebe2e5e:	48 8b 45 e8          	mov    -0x18(%rbp),%rax
    bebe2e62:	48 8b 40 08          	mov    0x8(%rax),%rax
    bebe2e66:	48 89 c7             	mov    %rax,%rdi
    bebe2e69:	48 b8 0d 55 be be 00 	movabs $0xbebe550d,%rax
    bebe2e70:	00 00 00 
    bebe2e73:	ff d0                	call   *%rax
    bebe2e75:	48 8b 45 e8          	mov    -0x18(%rbp),%rax
    bebe2e79:	48 8b 55 e0          	mov    -0x20(%rbp),%rdx
    bebe2e7d:	48 89 10             	mov    %rdx,(%rax)
    bebe2e80:	48 8b 45 e8          	mov    -0x18(%rbp),%rax
    bebe2e84:	48 8b 55 f0          	mov    -0x10(%rbp),%rdx
    bebe2e88:	48 89 50 08          	mov    %rdx,0x8(%rax)
    bebe2e8c:	48 8b 45 e8          	mov    -0x18(%rbp),%rax
    bebe2e90:	48 8b 40 08          	mov    0x8(%rax),%rax
    bebe2e94:	48 8b 55 f8          	mov    -0x8(%rbp),%rdx
    bebe2e98:	48 c1 e2 03          	shl    $0x3,%rdx
    bebe2e9c:	48 01 c2             	add    %rax,%rdx
    bebe2e9f:	48 8b 45 e8          	mov    -0x18(%rbp),%rax
    bebe2ea3:	48 89 50 10          	mov    %rdx,0x10(%rax)
    bebe2ea7:	48 8b 45 e8          	mov    -0x18(%rbp),%rax
    bebe2eab:	48 8b 50 08          	mov    0x8(%rax),%rdx
    bebe2eaf:	48 8b 45 e8          	mov    -0x18(%rbp),%rax
    bebe2eb3:	48 8b 00             	mov    (%rax),%rax
    bebe2eb6:	48 c1 e0 03          	shl    $0x3,%rax
    bebe2eba:	48 01 c2             	add    %rax,%rdx
    bebe2ebd:	48 8b 45 e8          	mov    -0x18(%rbp),%rax
    bebe2ec1:	48 89 50 18          	mov    %rdx,0x18(%rax)
    bebe2ec5:	90                   	nop
    bebe2ec6:	c9                   	leave
    bebe2ec7:	c3                   	ret

00000000bebe2ec8 <_ZNSt6vectorIPcE6resizeEm>:
    bebe2ec8:	55                   	push   %rbp
    bebe2ec9:	48 89 e5             	mov    %rsp,%rbp
    bebe2ecc:	48 83 ec 20          	sub    $0x20,%rsp
    bebe2ed0:	48 89 7d e8          	mov    %rdi,-0x18(%rbp)
    bebe2ed4:	48 89 75 e0          	mov    %rsi,-0x20(%rbp)
    bebe2ed8:	eb 13                	jmp    bebe2eed <_ZNSt6vectorIPcE6resizeEm+0x25>
    bebe2eda:	48 8b 45 e8          	mov    -0x18(%rbp),%rax
    bebe2ede:	48 89 c7             	mov    %rax,%rdi
    bebe2ee1:	48 b8 b6 2c be be 00 	movabs $0xbebe2cb6,%rax
    bebe2ee8:	00 00 00 
    bebe2eeb:	ff d0                	call   *%rax
    bebe2eed:	48 8b 45 e8          	mov    -0x18(%rbp),%rax
    bebe2ef1:	48 89 c7             	mov    %rax,%rdi
    bebe2ef4:	48 b8 9e 2f be be 00 	movabs $0xbebe2f9e,%rax
    bebe2efb:	00 00 00 
    bebe2efe:	ff d0                	call   *%rax
    bebe2f00:	48 39 45 e0          	cmp    %rax,-0x20(%rbp)
    bebe2f04:	0f 92 c0             	setb   %al
    bebe2f07:	84 c0                	test   %al,%al
    bebe2f09:	75 cf                	jne    bebe2eda <_ZNSt6vectorIPcE6resizeEm+0x12>
    bebe2f0b:	eb 22                	jmp    bebe2f2f <_ZNSt6vectorIPcE6resizeEm+0x67>
    bebe2f0d:	48 c7 45 f8 00 00 00 	movq   $0x0,-0x8(%rbp)
    bebe2f14:	00 
    bebe2f15:	48 8d 55 f8          	lea    -0x8(%rbp),%rdx
    bebe2f19:	48 8b 45 e8          	mov    -0x18(%rbp),%rax
    bebe2f1d:	48 89 d6             	mov    %rdx,%rsi
    bebe2f20:	48 89 c7             	mov    %rax,%rdi
    bebe2f23:	48 b8 0c 2b be be 00 	movabs $0xbebe2b0c,%rax
    bebe2f2a:	00 00 00 
    bebe2f2d:	ff d0                	call   *%rax
    bebe2f2f:	48 8b 45 e8          	mov    -0x18(%rbp),%rax
    bebe2f33:	48 89 c7             	mov    %rax,%rdi
    bebe2f36:	48 b8 9e 2f be be 00 	movabs $0xbebe2f9e,%rax
    bebe2f3d:	00 00 00 
    bebe2f40:	ff d0                	call   *%rax
    bebe2f42:	48 3b 45 e0          	cmp    -0x20(%rbp),%rax
    bebe2f46:	0f 92 c0             	setb   %al
    bebe2f49:	84 c0                	test   %al,%al
    bebe2f4b:	75 c0                	jne    bebe2f0d <_ZNSt6vectorIPcE6resizeEm+0x45>
    bebe2f4d:	90                   	nop
    bebe2f4e:	90                   	nop
    bebe2f4f:	c9                   	leave
    bebe2f50:	c3                   	ret

00000000bebe2f51 <_ZSt3maxImERKT_S2_S2_>:
    bebe2f51:	55                   	push   %rbp
    bebe2f52:	48 89 e5             	mov    %rsp,%rbp
    bebe2f55:	48 83 ec 10          	sub    $0x10,%rsp
    bebe2f59:	48 89 7d f8          	mov    %rdi,-0x8(%rbp)
    bebe2f5d:	48 89 75 f0          	mov    %rsi,-0x10(%rbp)
    bebe2f61:	48 8b 45 f8          	mov    -0x8(%rbp),%rax
    bebe2f65:	48 8b 00             	mov    (%rax),%rax
    bebe2f68:	48 8b 55 f0          	mov    -0x10(%rbp),%rdx
    bebe2f6c:	48 8b 12             	mov    (%rdx),%rdx
    bebe2f6f:	48 39 c2             	cmp    %rax,%rdx
    bebe2f72:	73 06                	jae    bebe2f7a <_ZSt3maxImERKT_S2_S2_+0x29>
    bebe2f74:	48 8b 45 f8          	mov    -0x8(%rbp),%rax
    bebe2f78:	eb 04                	jmp    bebe2f7e <_ZSt3maxImERKT_S2_S2_+0x2d>
    bebe2f7a:	48 8b 45 f0          	mov    -0x10(%rbp),%rax
    bebe2f7e:	c9                   	leave
    bebe2f7f:	c3                   	ret

00000000bebe2f80 <_ZNSt6vectorIPcE8iteratorC1EPS0_>:
    bebe2f80:	55                   	push   %rbp
    bebe2f81:	48 89 e5             	mov    %rsp,%rbp
    bebe2f84:	48 83 ec 10          	sub    $0x10,%rsp
    bebe2f88:	48 89 7d f8          	mov    %rdi,-0x8(%rbp)
    bebe2f8c:	48 89 75 f0          	mov    %rsi,-0x10(%rbp)
    bebe2f90:	48 8b 45 f8          	mov    -0x8(%rbp),%rax
    bebe2f94:	48 8b 55 f0          	mov    -0x10(%rbp),%rdx
    bebe2f98:	48 89 10             	mov    %rdx,(%rax)
    bebe2f9b:	90                   	nop
    bebe2f9c:	c9                   	leave
    bebe2f9d:	c3                   	ret

00000000bebe2f9e <_ZNKSt6vectorIPcE4sizeEv>:
    bebe2f9e:	55                   	push   %rbp
    bebe2f9f:	48 89 e5             	mov    %rsp,%rbp
    bebe2fa2:	48 83 ec 08          	sub    $0x8,%rsp
    bebe2fa6:	48 89 7d f8          	mov    %rdi,-0x8(%rbp)
    bebe2faa:	48 8b 45 f8          	mov    -0x8(%rbp),%rax
    bebe2fae:	48 8b 50 10          	mov    0x10(%rax),%rdx
    bebe2fb2:	48 8b 45 f8          	mov    -0x8(%rbp),%rax
    bebe2fb6:	48 8b 40 08          	mov    0x8(%rax),%rax
    bebe2fba:	48 29 c2             	sub    %rax,%rdx
    bebe2fbd:	48 89 d0             	mov    %rdx,%rax
    bebe2fc0:	48 c1 f8 03          	sar    $0x3,%rax
    bebe2fc4:	c9                   	leave
    bebe2fc5:	c3                   	ret

00000000bebe2fc6 <_ZN8kfstreamC1Ev>:
    bebe2fc6:	55                   	push   %rbp
    bebe2fc7:	48 89 e5             	mov    %rsp,%rbp
    bebe2fca:	48 83 ec 08          	sub    $0x8,%rsp
    bebe2fce:	48 89 7d f8          	mov    %rdi,-0x8(%rbp)
    bebe2fd2:	48 8b 45 f8          	mov    -0x8(%rbp),%rax
    bebe2fd6:	48 c7 00 00 00 00 00 	movq   $0x0,(%rax)
    bebe2fdd:	48 8b 45 f8          	mov    -0x8(%rbp),%rax
    bebe2fe1:	48 c7 40 08 00 00 00 	movq   $0x0,0x8(%rax)
    bebe2fe8:	00 
    bebe2fe9:	48 8b 45 f8          	mov    -0x8(%rbp),%rax
    bebe2fed:	48 c7 40 10 00 00 00 	movq   $0x0,0x10(%rax)
    bebe2ff4:	00 
    bebe2ff5:	48 8b 45 f8          	mov    -0x8(%rbp),%rax
    bebe2ff9:	48 c7 40 18 00 00 00 	movq   $0x0,0x18(%rax)
    bebe3000:	00 
    bebe3001:	48 8b 45 f8          	mov    -0x8(%rbp),%rax
    bebe3005:	48 c7 40 20 00 00 00 	movq   $0x0,0x20(%rax)
    bebe300c:	00 
    bebe300d:	48 8b 45 f8          	mov    -0x8(%rbp),%rax
    bebe3011:	c6 40 28 00          	movb   $0x0,0x28(%rax)
    bebe3015:	48 8b 45 f8          	mov    -0x8(%rbp),%rax
    bebe3019:	48 c7 40 30 00 00 00 	movq   $0x0,0x30(%rax)
    bebe3020:	00 
    bebe3021:	90                   	nop
    bebe3022:	c9                   	leave
    bebe3023:	c3                   	ret

00000000bebe3024 <_ZN8kfstreamC1EmPFvPS_E>:
    bebe3024:	55                   	push   %rbp
    bebe3025:	48 89 e5             	mov    %rsp,%rbp
    bebe3028:	48 83 ec 20          	sub    $0x20,%rsp
    bebe302c:	48 89 7d f8          	mov    %rdi,-0x8(%rbp)
    bebe3030:	48 89 75 f0          	mov    %rsi,-0x10(%rbp)
    bebe3034:	48 89 55 e8          	mov    %rdx,-0x18(%rbp)
    bebe3038:	48 8b 45 f0          	mov    -0x10(%rbp),%rax
    bebe303c:	48 89 c7             	mov    %rax,%rdi
    bebe303f:	48 b8 a4 54 be be 00 	movabs $0xbebe54a4,%rax
    bebe3046:	00 00 00 
    bebe3049:	ff d0                	call   *%rax
    bebe304b:	48 89 c6             	mov    %rax,%rsi
    bebe304e:	48 8b 4d e8          	mov    -0x18(%rbp),%rcx
    bebe3052:	48 8b 55 f0          	mov    -0x10(%rbp),%rdx
    bebe3056:	48 8b 45 f8          	mov    -0x8(%rbp),%rax
    bebe305a:	48 89 c7             	mov    %rax,%rdi
    bebe305d:	48 b8 6c 30 be be 00 	movabs $0xbebe306c,%rax
    bebe3064:	00 00 00 
    bebe3067:	ff d0                	call   *%rax
    bebe3069:	90                   	nop
    bebe306a:	c9                   	leave
    bebe306b:	c3                   	ret

00000000bebe306c <_ZN8kfstreamC1EPvmPFvPS_E>:
    bebe306c:	55                   	push   %rbp
    bebe306d:	48 89 e5             	mov    %rsp,%rbp
    bebe3070:	48 83 ec 20          	sub    $0x20,%rsp
    bebe3074:	48 89 7d f8          	mov    %rdi,-0x8(%rbp)
    bebe3078:	48 89 75 f0          	mov    %rsi,-0x10(%rbp)
    bebe307c:	48 89 55 e8          	mov    %rdx,-0x18(%rbp)
    bebe3080:	48 89 4d e0          	mov    %rcx,-0x20(%rbp)
    bebe3084:	48 8b 45 f8          	mov    -0x8(%rbp),%rax
    bebe3088:	48 8b 55 f0          	mov    -0x10(%rbp),%rdx
    bebe308c:	48 89 10             	mov    %rdx,(%rax)
    bebe308f:	48 8b 45 f8          	mov    -0x8(%rbp),%rax
    bebe3093:	48 8b 10             	mov    (%rax),%rdx
    bebe3096:	48 8b 45 e8          	mov    -0x18(%rbp),%rax
    bebe309a:	48 01 c2             	add    %rax,%rdx
    bebe309d:	48 8b 45 f8          	mov    -0x8(%rbp),%rax
    bebe30a1:	48 89 50 08          	mov    %rdx,0x8(%rax)
    bebe30a5:	48 8b 45 f8          	mov    -0x8(%rbp),%rax
    bebe30a9:	48 8b 55 e8          	mov    -0x18(%rbp),%rdx
    bebe30ad:	48 89 50 10          	mov    %rdx,0x10(%rax)
    bebe30b1:	48 8b 45 f8          	mov    -0x8(%rbp),%rax
    bebe30b5:	48 8b 10             	mov    (%rax),%rdx
    bebe30b8:	48 8b 45 f8          	mov    -0x8(%rbp),%rax
    bebe30bc:	48 89 50 18          	mov    %rdx,0x18(%rax)
    bebe30c0:	48 8b 45 f8          	mov    -0x8(%rbp),%rax
    bebe30c4:	48 8b 10             	mov    (%rax),%rdx
    bebe30c7:	48 8b 45 f8          	mov    -0x8(%rbp),%rax
    bebe30cb:	48 89 50 20          	mov    %rdx,0x20(%rax)
    bebe30cf:	48 8b 45 f8          	mov    -0x8(%rbp),%rax
    bebe30d3:	c6 40 28 00          	movb   $0x0,0x28(%rax)
    bebe30d7:	48 8b 45 f8          	mov    -0x8(%rbp),%rax
    bebe30db:	48 8b 55 e0          	mov    -0x20(%rbp),%rdx
    bebe30df:	48 89 50 30          	mov    %rdx,0x30(%rax)
    bebe30e3:	90                   	nop
    bebe30e4:	c9                   	leave
    bebe30e5:	c3                   	ret

00000000bebe30e6 <_ZN8kfstream4readEPvm>:
    bebe30e6:	55                   	push   %rbp
    bebe30e7:	48 89 e5             	mov    %rsp,%rbp
    bebe30ea:	48 83 ec 28          	sub    $0x28,%rsp
    bebe30ee:	48 89 7d e8          	mov    %rdi,-0x18(%rbp)
    bebe30f2:	48 89 75 e0          	mov    %rsi,-0x20(%rbp)
    bebe30f6:	48 89 55 d8          	mov    %rdx,-0x28(%rbp)
    bebe30fa:	48 c7 45 f8 00 00 00 	movq   $0x0,-0x8(%rbp)
    bebe3101:	00 
    bebe3102:	48 8b 45 e0          	mov    -0x20(%rbp),%rax
    bebe3106:	48 89 45 f0          	mov    %rax,-0x10(%rbp)
    bebe310a:	eb 2a                	jmp    bebe3136 <_ZN8kfstream4readEPvm+0x50>
    bebe310c:	48 8b 45 e8          	mov    -0x18(%rbp),%rax
    bebe3110:	48 8b 40 18          	mov    0x18(%rax),%rax
    bebe3114:	48 8d 48 01          	lea    0x1(%rax),%rcx
    bebe3118:	48 8b 55 e8          	mov    -0x18(%rbp),%rdx
    bebe311c:	48 89 4a 18          	mov    %rcx,0x18(%rdx)
    bebe3120:	0f b6 10             	movzbl (%rax),%edx
    bebe3123:	48 8b 45 f0          	mov    -0x10(%rbp),%rax
    bebe3127:	48 8d 48 01          	lea    0x1(%rax),%rcx
    bebe312b:	48 89 4d f0          	mov    %rcx,-0x10(%rbp)
    bebe312f:	88 10                	mov    %dl,(%rax)
    bebe3131:	48 83 45 f8 01       	addq   $0x1,-0x8(%rbp)
    bebe3136:	48 8b 45 f8          	mov    -0x8(%rbp),%rax
    bebe313a:	48 3b 45 d8          	cmp    -0x28(%rbp),%rax
    bebe313e:	73 15                	jae    bebe3155 <_ZN8kfstream4readEPvm+0x6f>
    bebe3140:	48 8b 45 e8          	mov    -0x18(%rbp),%rax
    bebe3144:	48 8b 50 18          	mov    0x18(%rax),%rdx
    bebe3148:	48 8b 45 e8          	mov    -0x18(%rbp),%rax
    bebe314c:	48 8b 40 20          	mov    0x20(%rax),%rax
    bebe3150:	48 39 c2             	cmp    %rax,%rdx
    bebe3153:	72 b7                	jb     bebe310c <_ZN8kfstream4readEPvm+0x26>
    bebe3155:	48 8b 45 f8          	mov    -0x8(%rbp),%rax
    bebe3159:	c9                   	leave
    bebe315a:	c3                   	ret
    bebe315b:	90                   	nop

00000000bebe315c <_ZN8kfstream5writeEPKvm>:
    bebe315c:	55                   	push   %rbp
    bebe315d:	48 89 e5             	mov    %rsp,%rbp
    bebe3160:	48 83 ec 30          	sub    $0x30,%rsp
    bebe3164:	48 89 7d e8          	mov    %rdi,-0x18(%rbp)
    bebe3168:	48 89 75 e0          	mov    %rsi,-0x20(%rbp)
    bebe316c:	48 89 55 d8          	mov    %rdx,-0x28(%rbp)
    bebe3170:	48 8b 45 e0          	mov    -0x20(%rbp),%rax
    bebe3174:	48 89 45 f8          	mov    %rax,-0x8(%rbp)
    bebe3178:	48 c7 45 f0 00 00 00 	movq   $0x0,-0x10(%rbp)
    bebe317f:	00 
    bebe3180:	eb 2a                	jmp    bebe31ac <_ZN8kfstream5writeEPKvm+0x50>
    bebe3182:	48 8b 45 f8          	mov    -0x8(%rbp),%rax
    bebe3186:	48 8d 50 01          	lea    0x1(%rax),%rdx
    bebe318a:	48 89 55 f8          	mov    %rdx,-0x8(%rbp)
    bebe318e:	0f b6 10             	movzbl (%rax),%edx
    bebe3191:	48 8b 45 e8          	mov    -0x18(%rbp),%rax
    bebe3195:	48 8b 40 20          	mov    0x20(%rax),%rax
    bebe3199:	48 8d 70 01          	lea    0x1(%rax),%rsi
    bebe319d:	48 8b 4d e8          	mov    -0x18(%rbp),%rcx
    bebe31a1:	48 89 71 20          	mov    %rsi,0x20(%rcx)
    bebe31a5:	88 10                	mov    %dl,(%rax)
    bebe31a7:	48 83 45 f0 01       	addq   $0x1,-0x10(%rbp)
    bebe31ac:	48 8b 45 f0          	mov    -0x10(%rbp),%rax
    bebe31b0:	48 3b 45 d8          	cmp    -0x28(%rbp),%rax
    bebe31b4:	73 15                	jae    bebe31cb <_ZN8kfstream5writeEPKvm+0x6f>
    bebe31b6:	48 8b 45 e8          	mov    -0x18(%rbp),%rax
    bebe31ba:	48 8b 50 20          	mov    0x20(%rax),%rdx
    bebe31be:	48 8b 45 e8          	mov    -0x18(%rbp),%rax
    bebe31c2:	48 8b 40 08          	mov    0x8(%rax),%rax
    bebe31c6:	48 39 c2             	cmp    %rax,%rdx
    bebe31c9:	72 b7                	jb     bebe3182 <_ZN8kfstream5writeEPKvm+0x26>
    bebe31cb:	48 8b 45 e8          	mov    -0x18(%rbp),%rax
    bebe31cf:	48 8b 50 20          	mov    0x20(%rax),%rdx
    bebe31d3:	48 8b 45 e8          	mov    -0x18(%rbp),%rax
    bebe31d7:	48 8b 40 08          	mov    0x8(%rax),%rax
    bebe31db:	48 39 c2             	cmp    %rax,%rdx
    bebe31de:	72 13                	jb     bebe31f3 <_ZN8kfstream5writeEPKvm+0x97>
    bebe31e0:	48 8b 45 e8          	mov    -0x18(%rbp),%rax
    bebe31e4:	48 89 c7             	mov    %rax,%rdi
    bebe31e7:	48 b8 0e 33 be be 00 	movabs $0xbebe330e,%rax
    bebe31ee:	00 00 00 
    bebe31f1:	ff d0                	call   *%rax
    bebe31f3:	48 8b 45 f0          	mov    -0x10(%rbp),%rax
    bebe31f7:	c9                   	leave
    bebe31f8:	c3                   	ret
    bebe31f9:	90                   	nop

00000000bebe31fa <_ZN8kfstream7readstrEPc>:
    bebe31fa:	55                   	push   %rbp
    bebe31fb:	48 89 e5             	mov    %rsp,%rbp
    bebe31fe:	48 83 ec 20          	sub    $0x20,%rsp
    bebe3202:	48 89 7d e8          	mov    %rdi,-0x18(%rbp)
    bebe3206:	48 89 75 e0          	mov    %rsi,-0x20(%rbp)
    bebe320a:	48 b8 04 37 be be 00 	movabs $0xbebe3704,%rax
    bebe3211:	00 00 00 
    bebe3214:	ff d0                	call   *%rax
    bebe3216:	48 8b 45 e8          	mov    -0x18(%rbp),%rax
    bebe321a:	48 8b 40 18          	mov    0x18(%rax),%rax
    bebe321e:	48 89 45 f8          	mov    %rax,-0x8(%rbp)
    bebe3222:	eb 27                	jmp    bebe324b <_ZN8kfstream7readstrEPc+0x51>
    bebe3224:	48 8b 45 e8          	mov    -0x18(%rbp),%rax
    bebe3228:	48 8b 40 18          	mov    0x18(%rax),%rax
    bebe322c:	48 8d 48 01          	lea    0x1(%rax),%rcx
    bebe3230:	48 8b 55 e8          	mov    -0x18(%rbp),%rdx
    bebe3234:	48 89 4a 18          	mov    %rcx,0x18(%rdx)
    bebe3238:	0f b6 00             	movzbl (%rax),%eax
    bebe323b:	89 c1                	mov    %eax,%ecx
    bebe323d:	48 8b 45 e0          	mov    -0x20(%rbp),%rax
    bebe3241:	48 8d 50 01          	lea    0x1(%rax),%rdx
    bebe3245:	48 89 55 e0          	mov    %rdx,-0x20(%rbp)
    bebe3249:	88 08                	mov    %cl,(%rax)
    bebe324b:	48 8b 45 e8          	mov    -0x18(%rbp),%rax
    bebe324f:	48 8b 40 18          	mov    0x18(%rax),%rax
    bebe3253:	0f b6 00             	movzbl (%rax),%eax
    bebe3256:	84 c0                	test   %al,%al
    bebe3258:	74 15                	je     bebe326f <_ZN8kfstream7readstrEPc+0x75>
    bebe325a:	48 8b 45 e8          	mov    -0x18(%rbp),%rax
    bebe325e:	48 8b 50 18          	mov    0x18(%rax),%rdx
    bebe3262:	48 8b 45 e8          	mov    -0x18(%rbp),%rax
    bebe3266:	48 8b 40 20          	mov    0x20(%rax),%rax
    bebe326a:	48 39 c2             	cmp    %rax,%rdx
    bebe326d:	72 b5                	jb     bebe3224 <_ZN8kfstream7readstrEPc+0x2a>
    bebe326f:	48 b8 1a 37 be be 00 	movabs $0xbebe371a,%rax
    bebe3276:	00 00 00 
    bebe3279:	ff d0                	call   *%rax
    bebe327b:	48 8b 45 e8          	mov    -0x18(%rbp),%rax
    bebe327f:	48 8b 40 18          	mov    0x18(%rax),%rax
    bebe3283:	48 2b 45 f8          	sub    -0x8(%rbp),%rax
    bebe3287:	c9                   	leave
    bebe3288:	c3                   	ret
    bebe3289:	90                   	nop

00000000bebe328a <_ZN8kfstream8writestrEPKc>:
    bebe328a:	55                   	push   %rbp
    bebe328b:	48 89 e5             	mov    %rsp,%rbp
    bebe328e:	48 83 ec 20          	sub    $0x20,%rsp
    bebe3292:	48 89 7d e8          	mov    %rdi,-0x18(%rbp)
    bebe3296:	48 89 75 e0          	mov    %rsi,-0x20(%rbp)
    bebe329a:	48 b8 04 37 be be 00 	movabs $0xbebe3704,%rax
    bebe32a1:	00 00 00 
    bebe32a4:	ff d0                	call   *%rax
    bebe32a6:	48 8b 45 e0          	mov    -0x20(%rbp),%rax
    bebe32aa:	48 89 45 f8          	mov    %rax,-0x8(%rbp)
    bebe32ae:	eb 28                	jmp    bebe32d8 <_ZN8kfstream8writestrEPKc+0x4e>
    bebe32b0:	48 8b 45 e0          	mov    -0x20(%rbp),%rax
    bebe32b4:	48 8d 50 01          	lea    0x1(%rax),%rdx
    bebe32b8:	48 89 55 e0          	mov    %rdx,-0x20(%rbp)
    bebe32bc:	0f b6 00             	movzbl (%rax),%eax
    bebe32bf:	89 c6                	mov    %eax,%esi
    bebe32c1:	48 8b 45 e8          	mov    -0x18(%rbp),%rax
    bebe32c5:	48 8b 40 20          	mov    0x20(%rax),%rax
    bebe32c9:	48 8d 48 01          	lea    0x1(%rax),%rcx
    bebe32cd:	48 8b 55 e8          	mov    -0x18(%rbp),%rdx
    bebe32d1:	48 89 4a 20          	mov    %rcx,0x20(%rdx)
    bebe32d5:	40 88 30             	mov    %sil,(%rax)
    bebe32d8:	48 8b 45 e0          	mov    -0x20(%rbp),%rax
    bebe32dc:	0f b6 00             	movzbl (%rax),%eax
    bebe32df:	84 c0                	test   %al,%al
    bebe32e1:	74 15                	je     bebe32f8 <_ZN8kfstream8writestrEPKc+0x6e>
    bebe32e3:	48 8b 45 e8          	mov    -0x18(%rbp),%rax
    bebe32e7:	48 8b 50 20          	mov    0x20(%rax),%rdx
    bebe32eb:	48 8b 45 e8          	mov    -0x18(%rbp),%rax
    bebe32ef:	48 8b 40 08          	mov    0x8(%rax),%rax
    bebe32f3:	48 39 c2             	cmp    %rax,%rdx
    bebe32f6:	72 b8                	jb     bebe32b0 <_ZN8kfstream8writestrEPKc+0x26>
    bebe32f8:	48 b8 1a 37 be be 00 	movabs $0xbebe371a,%rax
    bebe32ff:	00 00 00 
    bebe3302:	ff d0                	call   *%rax
    bebe3304:	48 8b 45 e0          	mov    -0x20(%rbp),%rax
    bebe3308:	48 2b 45 f8          	sub    -0x8(%rbp),%rax
    bebe330c:	c9                   	leave
    bebe330d:	c3                   	ret

00000000bebe330e <_ZN8kfstream5flushEv>:
    bebe330e:	55                   	push   %rbp
    bebe330f:	48 89 e5             	mov    %rsp,%rbp
    bebe3312:	48 83 ec 10          	sub    $0x10,%rsp
    bebe3316:	48 89 7d f8          	mov    %rdi,-0x8(%rbp)
    bebe331a:	48 8b 45 f8          	mov    -0x8(%rbp),%rax
    bebe331e:	48 8b 40 30          	mov    0x30(%rax),%rax
    bebe3322:	48 85 c0             	test   %rax,%rax
    bebe3325:	74 13                	je     bebe333a <_ZN8kfstream5flushEv+0x2c>
    bebe3327:	48 8b 45 f8          	mov    -0x8(%rbp),%rax
    bebe332b:	48 8b 50 30          	mov    0x30(%rax),%rdx
    bebe332f:	48 8b 45 f8          	mov    -0x8(%rbp),%rax
    bebe3333:	48 89 c7             	mov    %rax,%rdi
    bebe3336:	ff d2                	call   *%rdx
    bebe3338:	eb 1e                	jmp    bebe3358 <_ZN8kfstream5flushEv+0x4a>
    bebe333a:	48 8b 45 f8          	mov    -0x8(%rbp),%rax
    bebe333e:	48 8b 10             	mov    (%rax),%rdx
    bebe3341:	48 8b 45 f8          	mov    -0x8(%rbp),%rax
    bebe3345:	48 89 50 18          	mov    %rdx,0x18(%rax)
    bebe3349:	48 8b 45 f8          	mov    -0x8(%rbp),%rax
    bebe334d:	48 8b 10             	mov    (%rax),%rdx
    bebe3350:	48 8b 45 f8          	mov    -0x8(%rbp),%rax
    bebe3354:	48 89 50 20          	mov    %rdx,0x20(%rax)
    bebe3358:	90                   	nop
    bebe3359:	c9                   	leave
    bebe335a:	c3                   	ret

00000000bebe335b <_Z7kmallocm>:
    bebe335b:	55                   	push   %rbp
    bebe335c:	48 89 e5             	mov    %rsp,%rbp
    bebe335f:	48 83 ec 10          	sub    $0x10,%rsp
    bebe3363:	48 89 7d f8          	mov    %rdi,-0x8(%rbp)
    bebe3367:	48 8b 45 f8          	mov    -0x8(%rbp),%rax
    bebe336b:	ba 08 00 00 00       	mov    $0x8,%edx
    bebe3370:	48 89 c6             	mov    %rax,%rsi
    bebe3373:	48 b8 60 67 be be 00 	movabs $0xbebe6760,%rax
    bebe337a:	00 00 00 
    bebe337d:	48 89 c7             	mov    %rax,%rdi
    bebe3380:	48 b8 c2 0a be be 00 	movabs $0xbebe0ac2,%rax
    bebe3387:	00 00 00 
    bebe338a:	ff d0                	call   *%rax
    bebe338c:	c9                   	leave
    bebe338d:	c3                   	ret

00000000bebe338e <_Z5kfreePv>:
    bebe338e:	55                   	push   %rbp
    bebe338f:	48 89 e5             	mov    %rsp,%rbp
    bebe3392:	48 83 ec 10          	sub    $0x10,%rsp
    bebe3396:	48 89 7d f8          	mov    %rdi,-0x8(%rbp)
    bebe339a:	48 8b 45 f8          	mov    -0x8(%rbp),%rax
    bebe339e:	48 89 c6             	mov    %rax,%rsi
    bebe33a1:	48 b8 60 67 be be 00 	movabs $0xbebe6760,%rax
    bebe33a8:	00 00 00 
    bebe33ab:	48 89 c7             	mov    %rax,%rdi
    bebe33ae:	48 b8 82 0b be be 00 	movabs $0xbebe0b82,%rax
    bebe33b5:	00 00 00 
    bebe33b8:	ff d0                	call   *%rax
    bebe33ba:	90                   	nop
    bebe33bb:	c9                   	leave
    bebe33bc:	c3                   	ret

00000000bebe33bd <_Z12kmalloc_initRKN3idk9MemoryMapE>:
    bebe33bd:	55                   	push   %rbp
    bebe33be:	48 89 e5             	mov    %rsp,%rbp
    bebe33c1:	48 83 ec 50          	sub    $0x50,%rsp
    bebe33c5:	48 89 7d b8          	mov    %rdi,-0x48(%rbp)
    bebe33c9:	48 8b 45 b8          	mov    -0x48(%rbp),%rax
    bebe33cd:	48 8b 50 10          	mov    0x10(%rax),%rdx
    bebe33d1:	48 8b 45 b8          	mov    -0x48(%rbp),%rax
    bebe33d5:	48 8b 40 08          	mov    0x8(%rax),%rax
    bebe33d9:	48 89 c1             	mov    %rax,%rcx
    bebe33dc:	48 8d 45 c0          	lea    -0x40(%rbp),%rax
    bebe33e0:	48 89 ce             	mov    %rcx,%rsi
    bebe33e3:	48 89 c7             	mov    %rax,%rdi
    bebe33e6:	48 b8 a4 0f be be 00 	movabs $0xbebe0fa4,%rax
    bebe33ed:	00 00 00 
    bebe33f0:	ff d0                	call   *%rax
    bebe33f2:	48 8d 4d c0          	lea    -0x40(%rbp),%rcx
    bebe33f6:	48 be 40 67 be be 00 	movabs $0xbebe6740,%rsi
    bebe33fd:	00 00 00 
    bebe3400:	48 8b 01             	mov    (%rcx),%rax
    bebe3403:	48 8b 51 08          	mov    0x8(%rcx),%rdx
    bebe3407:	48 89 06             	mov    %rax,(%rsi)
    bebe340a:	48 89 56 08          	mov    %rdx,0x8(%rsi)
    bebe340e:	48 8b 41 10          	mov    0x10(%rcx),%rax
    bebe3412:	48 8b 51 18          	mov    0x18(%rcx),%rdx
    bebe3416:	48 89 46 10          	mov    %rax,0x10(%rsi)
    bebe341a:	48 89 56 18          	mov    %rdx,0x18(%rsi)
    bebe341e:	48 8d 45 c0          	lea    -0x40(%rbp),%rax
    bebe3422:	48 89 c7             	mov    %rax,%rdi
    bebe3425:	48 b8 fa 0f be be 00 	movabs $0xbebe0ffa,%rax
    bebe342c:	00 00 00 
    bebe342f:	ff d0                	call   *%rax
    bebe3431:	48 8d 45 e0          	lea    -0x20(%rbp),%rax
    bebe3435:	48 ba 40 67 be be 00 	movabs $0xbebe6740,%rdx
    bebe343c:	00 00 00 
    bebe343f:	48 89 d6             	mov    %rdx,%rsi
    bebe3442:	48 89 c7             	mov    %rax,%rdi
    bebe3445:	48 b8 a0 04 be be 00 	movabs $0xbebe04a0,%rax
    bebe344c:	00 00 00 
    bebe344f:	ff d0                	call   *%rax
    bebe3451:	48 b9 60 67 be be 00 	movabs $0xbebe6760,%rcx
    bebe3458:	00 00 00 
    bebe345b:	48 8b 45 e0          	mov    -0x20(%rbp),%rax
    bebe345f:	48 8b 55 e8          	mov    -0x18(%rbp),%rdx
    bebe3463:	48 89 01             	mov    %rax,(%rcx)
    bebe3466:	48 89 51 08          	mov    %rdx,0x8(%rcx)
    bebe346a:	48 8b 45 f0          	mov    -0x10(%rbp),%rax
    bebe346e:	48 89 41 10          	mov    %rax,0x10(%rcx)
    bebe3472:	90                   	nop
    bebe3473:	c9                   	leave
    bebe3474:	c3                   	ret

00000000bebe3475 <_Z41__static_initialization_and_destruction_0v>:
    bebe3475:	55                   	push   %rbp
    bebe3476:	48 89 e5             	mov    %rsp,%rbp
    bebe3479:	48 b8 40 67 be be 00 	movabs $0xbebe6740,%rax
    bebe3480:	00 00 00 
    bebe3483:	48 89 c7             	mov    %rax,%rdi
    bebe3486:	48 b8 f4 34 be be 00 	movabs $0xbebe34f4,%rax
    bebe348d:	00 00 00 
    bebe3490:	ff d0                	call   *%rax
    bebe3492:	48 b8 a8 64 be be 00 	movabs $0xbebe64a8,%rax
    bebe3499:	00 00 00 
    bebe349c:	48 89 c2             	mov    %rax,%rdx
    bebe349f:	48 b8 40 67 be be 00 	movabs $0xbebe6740,%rax
    bebe34a6:	00 00 00 
    bebe34a9:	48 89 c6             	mov    %rax,%rsi
    bebe34ac:	48 b8 fa 0f be be 00 	movabs $0xbebe0ffa,%rax
    bebe34b3:	00 00 00 
    bebe34b6:	48 89 c7             	mov    %rax,%rdi
    bebe34b9:	48 b8 00 00 be be 00 	movabs $0xbebe0000,%rax
    bebe34c0:	00 00 00 
    bebe34c3:	ff d0                	call   *%rax
    bebe34c5:	48 b8 60 67 be be 00 	movabs $0xbebe6760,%rax
    bebe34cc:	00 00 00 
    bebe34cf:	48 89 c7             	mov    %rax,%rdi
    bebe34d2:	48 b8 6e 04 be be 00 	movabs $0xbebe046e,%rax
    bebe34d9:	00 00 00 
    bebe34dc:	ff d0                	call   *%rax
    bebe34de:	90                   	nop
    bebe34df:	5d                   	pop    %rbp
    bebe34e0:	c3                   	ret

00000000bebe34e1 <_GLOBAL__sub_I__Z7kmallocm>:
    bebe34e1:	55                   	push   %rbp
    bebe34e2:	48 89 e5             	mov    %rsp,%rbp
    bebe34e5:	48 b8 75 34 be be 00 	movabs $0xbebe3475,%rax
    bebe34ec:	00 00 00 
    bebe34ef:	ff d0                	call   *%rax
    bebe34f1:	5d                   	pop    %rbp
    bebe34f2:	c3                   	ret
    bebe34f3:	90                   	nop

00000000bebe34f4 <_ZN3idk16linear_allocatorC1Ev>:
    bebe34f4:	55                   	push   %rbp
    bebe34f5:	48 89 e5             	mov    %rsp,%rbp
    bebe34f8:	48 83 ec 08          	sub    $0x8,%rsp
    bebe34fc:	48 89 7d f8          	mov    %rdi,-0x8(%rbp)
    bebe3500:	90                   	nop
    bebe3501:	c9                   	leave
    bebe3502:	c3                   	ret
    bebe3503:	66 2e 0f 1f 84 00 00 	cs nopw 0x0(%rax,%rax,1)
    bebe350a:	00 00 00 
    bebe350d:	0f 1f 00             	nopl   (%rax)

00000000bebe3510 <kpanic>:
    bebe3510:	cd 62                	int    $0x62
    bebe3512:	c3                   	ret

00000000bebe3513 <_Z7skip_chPKcc>:
    bebe3513:	55                   	push   %rbp
    bebe3514:	48 89 e5             	mov    %rsp,%rbp
    bebe3517:	48 83 ec 10          	sub    $0x10,%rsp
    bebe351b:	48 89 7d f8          	mov    %rdi,-0x8(%rbp)
    bebe351f:	89 f0                	mov    %esi,%eax
    bebe3521:	88 45 f4             	mov    %al,-0xc(%rbp)
    bebe3524:	eb 05                	jmp    bebe352b <_Z7skip_chPKcc+0x18>
    bebe3526:	48 83 45 f8 01       	addq   $0x1,-0x8(%rbp)
    bebe352b:	48 8b 45 f8          	mov    -0x8(%rbp),%rax
    bebe352f:	0f b6 00             	movzbl (%rax),%eax
    bebe3532:	38 45 f4             	cmp    %al,-0xc(%rbp)
    bebe3535:	74 ef                	je     bebe3526 <_Z7skip_chPKcc+0x13>
    bebe3537:	48 8b 45 f8          	mov    -0x8(%rbp),%rax
    bebe353b:	c9                   	leave
    bebe353c:	c3                   	ret

00000000bebe353d <_Z7seek_chPKcc>:
    bebe353d:	55                   	push   %rbp
    bebe353e:	48 89 e5             	mov    %rsp,%rbp
    bebe3541:	48 83 ec 10          	sub    $0x10,%rsp
    bebe3545:	48 89 7d f8          	mov    %rdi,-0x8(%rbp)
    bebe3549:	89 f0                	mov    %esi,%eax
    bebe354b:	88 45 f4             	mov    %al,-0xc(%rbp)
    bebe354e:	eb 05                	jmp    bebe3555 <_Z7seek_chPKcc+0x18>
    bebe3550:	48 83 45 f8 01       	addq   $0x1,-0x8(%rbp)
    bebe3555:	48 8b 45 f8          	mov    -0x8(%rbp),%rax
    bebe3559:	0f b6 00             	movzbl (%rax),%eax
    bebe355c:	84 c0                	test   %al,%al
    bebe355e:	74 0c                	je     bebe356c <_Z7seek_chPKcc+0x2f>
    bebe3560:	48 8b 45 f8          	mov    -0x8(%rbp),%rax
    bebe3564:	0f b6 00             	movzbl (%rax),%eax
    bebe3567:	38 45 f4             	cmp    %al,-0xc(%rbp)
    bebe356a:	75 e4                	jne    bebe3550 <_Z7seek_chPKcc+0x13>
    bebe356c:	48 8b 45 f8          	mov    -0x8(%rbp),%rax
    bebe3570:	c9                   	leave
    bebe3571:	c3                   	ret

00000000bebe3572 <_Z8count_chPKcc>:
    bebe3572:	55                   	push   %rbp
    bebe3573:	48 89 e5             	mov    %rsp,%rbp
    bebe3576:	48 83 ec 20          	sub    $0x20,%rsp
    bebe357a:	48 89 7d e8          	mov    %rdi,-0x18(%rbp)
    bebe357e:	89 f0                	mov    %esi,%eax
    bebe3580:	88 45 e4             	mov    %al,-0x1c(%rbp)
    bebe3583:	48 c7 45 f8 00 00 00 	movq   $0x0,-0x8(%rbp)
    bebe358a:	00 
    bebe358b:	eb 16                	jmp    bebe35a3 <_Z8count_chPKcc+0x31>
    bebe358d:	48 8b 45 e8          	mov    -0x18(%rbp),%rax
    bebe3591:	0f b6 00             	movzbl (%rax),%eax
    bebe3594:	38 45 e4             	cmp    %al,-0x1c(%rbp)
    bebe3597:	75 05                	jne    bebe359e <_Z8count_chPKcc+0x2c>
    bebe3599:	48 83 45 f8 01       	addq   $0x1,-0x8(%rbp)
    bebe359e:	48 83 45 e8 01       	addq   $0x1,-0x18(%rbp)
    bebe35a3:	48 8b 45 e8          	mov    -0x18(%rbp),%rax
    bebe35a7:	0f b6 00             	movzbl (%rax),%eax
    bebe35aa:	84 c0                	test   %al,%al
    bebe35ac:	75 df                	jne    bebe358d <_Z8count_chPKcc+0x1b>
    bebe35ae:	48 8b 45 f8          	mov    -0x8(%rbp),%rax
    bebe35b2:	c9                   	leave
    bebe35b3:	c3                   	ret

00000000bebe35b4 <_Z8skip_brkPKcS0_>:
    bebe35b4:	55                   	push   %rbp
    bebe35b5:	48 89 e5             	mov    %rsp,%rbp
    bebe35b8:	48 83 ec 30          	sub    $0x30,%rsp
    bebe35bc:	48 89 7d d8          	mov    %rdi,-0x28(%rbp)
    bebe35c0:	48 89 75 d0          	mov    %rsi,-0x30(%rbp)
    bebe35c4:	48 8b 45 d8          	mov    -0x28(%rbp),%rax
    bebe35c8:	48 89 c7             	mov    %rax,%rdi
    bebe35cb:	48 b8 3d 54 be be 00 	movabs $0xbebe543d,%rax
    bebe35d2:	00 00 00 
    bebe35d5:	ff d0                	call   *%rax
    bebe35d7:	48 89 45 e8          	mov    %rax,-0x18(%rbp)
    bebe35db:	48 8b 45 d0          	mov    -0x30(%rbp),%rax
    bebe35df:	48 89 c7             	mov    %rax,%rdi
    bebe35e2:	48 b8 3d 54 be be 00 	movabs $0xbebe543d,%rax
    bebe35e9:	00 00 00 
    bebe35ec:	ff d0                	call   *%rax
    bebe35ee:	48 89 45 e0          	mov    %rax,-0x20(%rbp)
    bebe35f2:	eb 50                	jmp    bebe3644 <_Z8skip_brkPKcS0_+0x90>
    bebe35f4:	c6 45 ff 00          	movb   $0x0,-0x1(%rbp)
    bebe35f8:	48 c7 45 f0 00 00 00 	movq   $0x0,-0x10(%rbp)
    bebe35ff:	00 
    bebe3600:	eb 22                	jmp    bebe3624 <_Z8skip_brkPKcS0_+0x70>
    bebe3602:	48 8b 45 d8          	mov    -0x28(%rbp),%rax
    bebe3606:	0f b6 10             	movzbl (%rax),%edx
    bebe3609:	48 8b 4d d0          	mov    -0x30(%rbp),%rcx
    bebe360d:	48 8b 45 f0          	mov    -0x10(%rbp),%rax
    bebe3611:	48 01 c8             	add    %rcx,%rax
    bebe3614:	0f b6 00             	movzbl (%rax),%eax
    bebe3617:	38 c2                	cmp    %al,%dl
    bebe3619:	75 04                	jne    bebe361f <_Z8skip_brkPKcS0_+0x6b>
    bebe361b:	c6 45 ff 01          	movb   $0x1,-0x1(%rbp)
    bebe361f:	48 83 45 f0 01       	addq   $0x1,-0x10(%rbp)
    bebe3624:	48 8b 45 f0          	mov    -0x10(%rbp),%rax
    bebe3628:	48 3b 45 e0          	cmp    -0x20(%rbp),%rax
    bebe362c:	72 d4                	jb     bebe3602 <_Z8skip_brkPKcS0_+0x4e>
    bebe362e:	0f b6 45 ff          	movzbl -0x1(%rbp),%eax
    bebe3632:	83 f0 01             	xor    $0x1,%eax
    bebe3635:	84 c0                	test   %al,%al
    bebe3637:	74 06                	je     bebe363f <_Z8skip_brkPKcS0_+0x8b>
    bebe3639:	48 8b 45 d8          	mov    -0x28(%rbp),%rax
    bebe363d:	eb 14                	jmp    bebe3653 <_Z8skip_brkPKcS0_+0x9f>
    bebe363f:	48 83 45 d8 01       	addq   $0x1,-0x28(%rbp)
    bebe3644:	48 8b 45 d8          	mov    -0x28(%rbp),%rax
    bebe3648:	0f b6 00             	movzbl (%rax),%eax
    bebe364b:	84 c0                	test   %al,%al
    bebe364d:	75 a5                	jne    bebe35f4 <_Z8skip_brkPKcS0_+0x40>
    bebe364f:	48 8b 45 d8          	mov    -0x28(%rbp),%rax
    bebe3653:	c9                   	leave
    bebe3654:	c3                   	ret

00000000bebe3655 <_Z8seek_brkPKcS0_>:
    bebe3655:	55                   	push   %rbp
    bebe3656:	48 89 e5             	mov    %rsp,%rbp
    bebe3659:	48 83 ec 40          	sub    $0x40,%rsp
    bebe365d:	48 89 7d c8          	mov    %rdi,-0x38(%rbp)
    bebe3661:	48 89 75 c0          	mov    %rsi,-0x40(%rbp)
    bebe3665:	48 8b 45 c8          	mov    -0x38(%rbp),%rax
    bebe3669:	48 89 c7             	mov    %rax,%rdi
    bebe366c:	48 b8 3d 54 be be 00 	movabs $0xbebe543d,%rax
    bebe3673:	00 00 00 
    bebe3676:	ff d0                	call   *%rax
    bebe3678:	48 89 45 e8          	mov    %rax,-0x18(%rbp)
    bebe367c:	48 8b 45 c0          	mov    -0x40(%rbp),%rax
    bebe3680:	48 89 c7             	mov    %rax,%rdi
    bebe3683:	48 b8 3d 54 be be 00 	movabs $0xbebe543d,%rax
    bebe368a:	00 00 00 
    bebe368d:	ff d0                	call   *%rax
    bebe368f:	48 89 45 e0          	mov    %rax,-0x20(%rbp)
    bebe3693:	48 8b 55 c8          	mov    -0x38(%rbp),%rdx
    bebe3697:	48 8b 45 e8          	mov    -0x18(%rbp),%rax
    bebe369b:	48 01 d0             	add    %rdx,%rax
    bebe369e:	48 89 45 f8          	mov    %rax,-0x8(%rbp)
    bebe36a2:	48 c7 45 f0 00 00 00 	movq   $0x0,-0x10(%rbp)
    bebe36a9:	00 
    bebe36aa:	eb 41                	jmp    bebe36ed <_Z8seek_brkPKcS0_+0x98>
    bebe36ac:	48 8b 55 c0          	mov    -0x40(%rbp),%rdx
    bebe36b0:	48 8b 45 f0          	mov    -0x10(%rbp),%rax
    bebe36b4:	48 01 d0             	add    %rdx,%rax
    bebe36b7:	0f b6 00             	movzbl (%rax),%eax
    bebe36ba:	0f be d0             	movsbl %al,%edx
    bebe36bd:	48 8b 45 c8          	mov    -0x38(%rbp),%rax
    bebe36c1:	89 d6                	mov    %edx,%esi
    bebe36c3:	48 89 c7             	mov    %rax,%rdi
    bebe36c6:	48 b8 3d 35 be be 00 	movabs $0xbebe353d,%rax
    bebe36cd:	00 00 00 
    bebe36d0:	ff d0                	call   *%rax
    bebe36d2:	48 89 45 d8          	mov    %rax,-0x28(%rbp)
    bebe36d6:	48 8b 45 d8          	mov    -0x28(%rbp),%rax
    bebe36da:	48 3b 45 f8          	cmp    -0x8(%rbp),%rax
    bebe36de:	73 08                	jae    bebe36e8 <_Z8seek_brkPKcS0_+0x93>
    bebe36e0:	48 8b 45 d8          	mov    -0x28(%rbp),%rax
    bebe36e4:	48 89 45 f8          	mov    %rax,-0x8(%rbp)
    bebe36e8:	48 83 45 f0 01       	addq   $0x1,-0x10(%rbp)
    bebe36ed:	48 8b 45 f0          	mov    -0x10(%rbp),%rax
    bebe36f1:	48 3b 45 e0          	cmp    -0x20(%rbp),%rax
    bebe36f5:	72 b5                	jb     bebe36ac <_Z8seek_brkPKcS0_+0x57>
    bebe36f7:	48 8b 45 f8          	mov    -0x8(%rbp),%rax
    bebe36fb:	c9                   	leave
    bebe36fc:	c3                   	ret
    bebe36fd:	0f 1f 00             	nopl   (%rax)

00000000bebe3700 <libk_syscall>:
    bebe3700:	cd 63                	int    $0x63
    bebe3702:	c3                   	ret
    bebe3703:	90                   	nop

00000000bebe3704 <_ZN7kthread11global_lockEv>:
    bebe3704:	55                   	push   %rbp
    bebe3705:	48 89 e5             	mov    %rsp,%rbp
    bebe3708:	fa                   	cli
    bebe3709:	48 b8 80 67 be be 00 	movabs $0xbebe6780,%rax
    bebe3710:	00 00 00 
    bebe3713:	c6 00 01             	movb   $0x1,(%rax)
    bebe3716:	90                   	nop
    bebe3717:	5d                   	pop    %rbp
    bebe3718:	c3                   	ret
    bebe3719:	90                   	nop

00000000bebe371a <_ZN7kthread13global_unlockEv>:
    bebe371a:	55                   	push   %rbp
    bebe371b:	48 89 e5             	mov    %rsp,%rbp
    bebe371e:	48 b8 80 67 be be 00 	movabs $0xbebe6780,%rax
    bebe3725:	00 00 00 
    bebe3728:	c6 00 00             	movb   $0x0,(%rax)
    bebe372b:	fb                   	sti
    bebe372c:	90                   	nop
    bebe372d:	5d                   	pop    %rbp
    bebe372e:	c3                   	ret
    bebe372f:	90                   	nop

00000000bebe3730 <_ZN7kthread8this_tidEv>:
    bebe3730:	55                   	push   %rbp
    bebe3731:	48 89 e5             	mov    %rsp,%rbp
    bebe3734:	48 83 ec 10          	sub    $0x10,%rsp
    bebe3738:	48 c7 45 f8 00 00 00 	movq   $0x0,-0x8(%rbp)
    bebe373f:	00 
    bebe3740:	48 b8 04 37 be be 00 	movabs $0xbebe3704,%rax
    bebe3747:	00 00 00 
    bebe374a:	ff d0                	call   *%rax
    bebe374c:	48 b8 88 67 be be 00 	movabs $0xbebe6788,%rax
    bebe3753:	00 00 00 
    bebe3756:	48 8b 00             	mov    (%rax),%rax
    bebe3759:	48 8b 00             	mov    (%rax),%rax
    bebe375c:	48 89 45 f8          	mov    %rax,-0x8(%rbp)
    bebe3760:	48 b8 1a 37 be be 00 	movabs $0xbebe371a,%rax
    bebe3767:	00 00 00 
    bebe376a:	ff d0                	call   *%rax
    bebe376c:	48 8b 45 f8          	mov    -0x8(%rbp),%rax
    bebe3770:	c9                   	leave
    bebe3771:	c3                   	ret

00000000bebe3772 <_ZN7kthread5yieldEv>:
    bebe3772:	55                   	push   %rbp
    bebe3773:	48 89 e5             	mov    %rsp,%rbp
    bebe3776:	48 b8 f5 3e be be 00 	movabs $0xbebe3ef5,%rax
    bebe377d:	00 00 00 
    bebe3780:	ff d0                	call   *%rax
    bebe3782:	90                   	nop
    bebe3783:	5d                   	pop    %rbp
    bebe3784:	c3                   	ret
    bebe3785:	90                   	nop

00000000bebe3786 <_ZN7kthread4exitEv>:
    bebe3786:	55                   	push   %rbp
    bebe3787:	48 89 e5             	mov    %rsp,%rbp
    bebe378a:	48 b8 88 67 be be 00 	movabs $0xbebe6788,%rax
    bebe3791:	00 00 00 
    bebe3794:	48 8b 00             	mov    (%rax),%rax
    bebe3797:	c6 40 08 00          	movb   $0x0,0x8(%rax)
    bebe379b:	90                   	nop
    bebe379c:	5d                   	pop    %rbp
    bebe379d:	c3                   	ret

00000000bebe379e <_ZN7kthread8scheduleEP11kstackframe>:
    bebe379e:	55                   	push   %rbp
    bebe379f:	48 89 e5             	mov    %rsp,%rbp
    bebe37a2:	48 83 ec 08          	sub    $0x8,%rsp
    bebe37a6:	48 89 7d f8          	mov    %rdi,-0x8(%rbp)
    bebe37aa:	48 b8 80 67 be be 00 	movabs $0xbebe6780,%rax
    bebe37b1:	00 00 00 
    bebe37b4:	0f b6 00             	movzbl (%rax),%eax
    bebe37b7:	0f b6 c0             	movzbl %al,%eax
    bebe37ba:	83 f8 01             	cmp    $0x1,%eax
    bebe37bd:	0f 84 5b 02 00 00    	je     bebe3a1e <_ZN7kthread8scheduleEP11kstackframe+0x280>
    bebe37c3:	48 b8 88 67 be be 00 	movabs $0xbebe6788,%rax
    bebe37ca:	00 00 00 
    bebe37cd:	48 8b 00             	mov    (%rax),%rax
    bebe37d0:	48 85 c0             	test   %rax,%rax
    bebe37d3:	0f 84 48 02 00 00    	je     bebe3a21 <_ZN7kthread8scheduleEP11kstackframe+0x283>
    bebe37d9:	48 b8 62 58 be be 00 	movabs $0xbebe5862,%rax
    bebe37e0:	00 00 00 
    bebe37e3:	0f b6 00             	movzbl (%rax),%eax
    bebe37e6:	0f b6 c0             	movzbl %al,%eax
    bebe37e9:	85 c0                	test   %eax,%eax
    bebe37eb:	0f 85 00 01 00 00    	jne    bebe38f1 <_ZN7kthread8scheduleEP11kstackframe+0x153>
    bebe37f1:	48 b8 88 67 be be 00 	movabs $0xbebe6788,%rax
    bebe37f8:	00 00 00 
    bebe37fb:	48 8b 00             	mov    (%rax),%rax
    bebe37fe:	48 8b 55 f8          	mov    -0x8(%rbp),%rdx
    bebe3802:	48 8b 52 28          	mov    0x28(%rdx),%rdx
    bebe3806:	48 89 50 48          	mov    %rdx,0x48(%rax)
    bebe380a:	48 b8 88 67 be be 00 	movabs $0xbebe6788,%rax
    bebe3811:	00 00 00 
    bebe3814:	48 8b 00             	mov    (%rax),%rax
    bebe3817:	48 8b 55 f8          	mov    -0x8(%rbp),%rdx
    bebe381b:	48 8b 52 30          	mov    0x30(%rdx),%rdx
    bebe381f:	48 89 50 50          	mov    %rdx,0x50(%rax)
    bebe3823:	48 b8 88 67 be be 00 	movabs $0xbebe6788,%rax
    bebe382a:	00 00 00 
    bebe382d:	48 8b 00             	mov    (%rax),%rax
    bebe3830:	48 8b 55 f8          	mov    -0x8(%rbp),%rdx
    bebe3834:	48 8b 52 38          	mov    0x38(%rdx),%rdx
    bebe3838:	48 89 50 58          	mov    %rdx,0x58(%rax)
    bebe383c:	48 b8 88 67 be be 00 	movabs $0xbebe6788,%rax
    bebe3843:	00 00 00 
    bebe3846:	48 8b 00             	mov    (%rax),%rax
    bebe3849:	48 8b 55 f8          	mov    -0x8(%rbp),%rdx
    bebe384d:	48 8b 52 40          	mov    0x40(%rdx),%rdx
    bebe3851:	48 89 50 60          	mov    %rdx,0x60(%rax)
    bebe3855:	48 b8 88 67 be be 00 	movabs $0xbebe6788,%rax
    bebe385c:	00 00 00 
    bebe385f:	48 8b 00             	mov    (%rax),%rax
    bebe3862:	48 8b 55 f8          	mov    -0x8(%rbp),%rdx
    bebe3866:	48 8b 92 88 00 00 00 	mov    0x88(%rdx),%rdx
    bebe386d:	48 89 50 20          	mov    %rdx,0x20(%rax)
    bebe3871:	48 b8 88 67 be be 00 	movabs $0xbebe6788,%rax
    bebe3878:	00 00 00 
    bebe387b:	48 8b 00             	mov    (%rax),%rax
    bebe387e:	48 8b 55 f8          	mov    -0x8(%rbp),%rdx
    bebe3882:	48 8b 52 70          	mov    0x70(%rdx),%rdx
    bebe3886:	48 89 50 18          	mov    %rdx,0x18(%rax)
    bebe388a:	48 b8 88 67 be be 00 	movabs $0xbebe6788,%rax
    bebe3891:	00 00 00 
    bebe3894:	48 8b 00             	mov    (%rax),%rax
    bebe3897:	48 8b 55 f8          	mov    -0x8(%rbp),%rdx
    bebe389b:	48 8b 52 48          	mov    0x48(%rdx),%rdx
    bebe389f:	48 89 50 28          	mov    %rdx,0x28(%rax)
    bebe38a3:	48 b8 88 67 be be 00 	movabs $0xbebe6788,%rax
    bebe38aa:	00 00 00 
    bebe38ad:	48 8b 00             	mov    (%rax),%rax
    bebe38b0:	48 8b 55 f8          	mov    -0x8(%rbp),%rdx
    bebe38b4:	48 8b 52 50          	mov    0x50(%rdx),%rdx
    bebe38b8:	48 89 50 30          	mov    %rdx,0x30(%rax)
    bebe38bc:	48 b8 88 67 be be 00 	movabs $0xbebe6788,%rax
    bebe38c3:	00 00 00 
    bebe38c6:	48 8b 00             	mov    (%rax),%rax
    bebe38c9:	48 8b 55 f8          	mov    -0x8(%rbp),%rdx
    bebe38cd:	48 8b 52 58          	mov    0x58(%rdx),%rdx
    bebe38d1:	48 89 50 38          	mov    %rdx,0x38(%rax)
    bebe38d5:	48 b8 88 67 be be 00 	movabs $0xbebe6788,%rax
    bebe38dc:	00 00 00 
    bebe38df:	48 8b 00             	mov    (%rax),%rax
    bebe38e2:	48 8b 55 f8          	mov    -0x8(%rbp),%rdx
    bebe38e6:	48 8b 92 80 00 00 00 	mov    0x80(%rdx),%rdx
    bebe38ed:	48 89 50 40          	mov    %rdx,0x40(%rax)
    bebe38f1:	48 b8 62 58 be be 00 	movabs $0xbebe5862,%rax
    bebe38f8:	00 00 00 
    bebe38fb:	c6 00 00             	movb   $0x0,(%rax)
    bebe38fe:	48 b8 88 67 be be 00 	movabs $0xbebe6788,%rax
    bebe3905:	00 00 00 
    bebe3908:	48 8b 00             	mov    (%rax),%rax
    bebe390b:	48 8b 40 68          	mov    0x68(%rax),%rax
    bebe390f:	48 ba 88 67 be be 00 	movabs $0xbebe6788,%rdx
    bebe3916:	00 00 00 
    bebe3919:	48 89 02             	mov    %rax,(%rdx)
    bebe391c:	48 b8 88 67 be be 00 	movabs $0xbebe6788,%rax
    bebe3923:	00 00 00 
    bebe3926:	48 8b 00             	mov    (%rax),%rax
    bebe3929:	48 8b 50 48          	mov    0x48(%rax),%rdx
    bebe392d:	48 8b 45 f8          	mov    -0x8(%rbp),%rax
    bebe3931:	48 89 50 28          	mov    %rdx,0x28(%rax)
    bebe3935:	48 b8 88 67 be be 00 	movabs $0xbebe6788,%rax
    bebe393c:	00 00 00 
    bebe393f:	48 8b 00             	mov    (%rax),%rax
    bebe3942:	48 8b 50 50          	mov    0x50(%rax),%rdx
    bebe3946:	48 8b 45 f8          	mov    -0x8(%rbp),%rax
    bebe394a:	48 89 50 30          	mov    %rdx,0x30(%rax)
    bebe394e:	48 b8 88 67 be be 00 	movabs $0xbebe6788,%rax
    bebe3955:	00 00 00 
    bebe3958:	48 8b 00             	mov    (%rax),%rax
    bebe395b:	48 8b 50 58          	mov    0x58(%rax),%rdx
    bebe395f:	48 8b 45 f8          	mov    -0x8(%rbp),%rax
    bebe3963:	48 89 50 38          	mov    %rdx,0x38(%rax)
    bebe3967:	48 b8 88 67 be be 00 	movabs $0xbebe6788,%rax
    bebe396e:	00 00 00 
    bebe3971:	48 8b 00             	mov    (%rax),%rax
    bebe3974:	48 8b 50 60          	mov    0x60(%rax),%rdx
    bebe3978:	48 8b 45 f8          	mov    -0x8(%rbp),%rax
    bebe397c:	48 89 50 40          	mov    %rdx,0x40(%rax)
    bebe3980:	48 b8 88 67 be be 00 	movabs $0xbebe6788,%rax
    bebe3987:	00 00 00 
    bebe398a:	48 8b 00             	mov    (%rax),%rax
    bebe398d:	48 8b 50 20          	mov    0x20(%rax),%rdx
    bebe3991:	48 8b 45 f8          	mov    -0x8(%rbp),%rax
    bebe3995:	48 89 90 88 00 00 00 	mov    %rdx,0x88(%rax)
    bebe399c:	48 b8 88 67 be be 00 	movabs $0xbebe6788,%rax
    bebe39a3:	00 00 00 
    bebe39a6:	48 8b 00             	mov    (%rax),%rax
    bebe39a9:	48 8b 50 18          	mov    0x18(%rax),%rdx
    bebe39ad:	48 8b 45 f8          	mov    -0x8(%rbp),%rax
    bebe39b1:	48 89 50 70          	mov    %rdx,0x70(%rax)
    bebe39b5:	48 b8 88 67 be be 00 	movabs $0xbebe6788,%rax
    bebe39bc:	00 00 00 
    bebe39bf:	48 8b 00             	mov    (%rax),%rax
    bebe39c2:	48 8b 50 40          	mov    0x40(%rax),%rdx
    bebe39c6:	48 8b 45 f8          	mov    -0x8(%rbp),%rax
    bebe39ca:	48 89 90 80 00 00 00 	mov    %rdx,0x80(%rax)
    bebe39d1:	48 b8 88 67 be be 00 	movabs $0xbebe6788,%rax
    bebe39d8:	00 00 00 
    bebe39db:	48 8b 00             	mov    (%rax),%rax
    bebe39de:	48 8b 50 28          	mov    0x28(%rax),%rdx
    bebe39e2:	48 8b 45 f8          	mov    -0x8(%rbp),%rax
    bebe39e6:	48 89 50 48          	mov    %rdx,0x48(%rax)
    bebe39ea:	48 b8 88 67 be be 00 	movabs $0xbebe6788,%rax
    bebe39f1:	00 00 00 
    bebe39f4:	48 8b 00             	mov    (%rax),%rax
    bebe39f7:	48 8b 50 30          	mov    0x30(%rax),%rdx
    bebe39fb:	48 8b 45 f8          	mov    -0x8(%rbp),%rax
    bebe39ff:	48 89 50 50          	mov    %rdx,0x50(%rax)
    bebe3a03:	48 b8 88 67 be be 00 	movabs $0xbebe6788,%rax
    bebe3a0a:	00 00 00 
    bebe3a0d:	48 8b 00             	mov    (%rax),%rax
    bebe3a10:	48 8b 50 38          	mov    0x38(%rax),%rdx
    bebe3a14:	48 8b 45 f8          	mov    -0x8(%rbp),%rax
    bebe3a18:	48 89 50 58          	mov    %rdx,0x58(%rax)
    bebe3a1c:	eb 04                	jmp    bebe3a22 <_ZN7kthread8scheduleEP11kstackframe+0x284>
    bebe3a1e:	90                   	nop
    bebe3a1f:	eb 01                	jmp    bebe3a22 <_ZN7kthread8scheduleEP11kstackframe+0x284>
    bebe3a21:	90                   	nop
    bebe3a22:	c9                   	leave
    bebe3a23:	c3                   	ret

00000000bebe3a24 <_ZL10kproc_idlePv>:
    bebe3a24:	55                   	push   %rbp
    bebe3a25:	48 89 e5             	mov    %rsp,%rbp
    bebe3a28:	48 83 ec 10          	sub    $0x10,%rsp
    bebe3a2c:	48 89 7d f8          	mov    %rdi,-0x8(%rbp)
    bebe3a30:	48 b8 e8 56 be be 00 	movabs $0xbebe56e8,%rax
    bebe3a37:	00 00 00 
    bebe3a3a:	48 89 c7             	mov    %rax,%rdi
    bebe3a3d:	b8 00 00 00 00       	mov    $0x0,%eax
    bebe3a42:	48 ba cf 49 be be 00 	movabs $0xbebe49cf,%rdx
    bebe3a49:	00 00 00 
    bebe3a4c:	ff d2                	call   *%rdx
    bebe3a4e:	90                   	nop
    bebe3a4f:	90                   	nop
    bebe3a50:	eb de                	jmp    bebe3a30 <_ZL10kproc_idlePv+0xc>

00000000bebe3a52 <_ZN7kthread7wrapperEPFvPvES0_>:
    bebe3a52:	55                   	push   %rbp
    bebe3a53:	48 89 e5             	mov    %rsp,%rbp
    bebe3a56:	48 83 ec 10          	sub    $0x10,%rsp
    bebe3a5a:	48 89 7d f8          	mov    %rdi,-0x8(%rbp)
    bebe3a5e:	48 89 75 f0          	mov    %rsi,-0x10(%rbp)
    bebe3a62:	48 8b 55 f8          	mov    -0x8(%rbp),%rdx
    bebe3a66:	48 8b 45 f0          	mov    -0x10(%rbp),%rax
    bebe3a6a:	48 89 c7             	mov    %rax,%rdi
    bebe3a6d:	ff d2                	call   *%rdx
    bebe3a6f:	48 b8 88 67 be be 00 	movabs $0xbebe6788,%rax
    bebe3a76:	00 00 00 
    bebe3a79:	48 8b 00             	mov    (%rax),%rax
    bebe3a7c:	c6 40 08 00          	movb   $0x0,0x8(%rax)
    bebe3a80:	48 b8 ee 56 be be 00 	movabs $0xbebe56ee,%rax
    bebe3a87:	00 00 00 
    bebe3a8a:	48 89 c7             	mov    %rax,%rdi
    bebe3a8d:	b8 00 00 00 00       	mov    $0x0,%eax
    bebe3a92:	48 ba cf 49 be be 00 	movabs $0xbebe49cf,%rdx
    bebe3a99:	00 00 00 
    bebe3a9c:	ff d2                	call   *%rdx
    bebe3a9e:	f4                   	hlt
    bebe3a9f:	eb fd                	jmp    bebe3a9e <_ZN7kthread7wrapperEPFvPvES0_+0x4c>
    bebe3aa1:	90                   	nop

00000000bebe3aa2 <_ZN7kthread3addEPS_>:
    bebe3aa2:	55                   	push   %rbp
    bebe3aa3:	48 89 e5             	mov    %rsp,%rbp
    bebe3aa6:	48 83 ec 08          	sub    $0x8,%rsp
    bebe3aaa:	48 89 7d f8          	mov    %rdi,-0x8(%rbp)
    bebe3aae:	48 b8 88 67 be be 00 	movabs $0xbebe6788,%rax
    bebe3ab5:	00 00 00 
    bebe3ab8:	48 8b 00             	mov    (%rax),%rax
    bebe3abb:	48 85 c0             	test   %rax,%rax
    bebe3abe:	75 31                	jne    bebe3af1 <_ZN7kthread3addEPS_+0x4f>
    bebe3ac0:	48 ba 88 67 be be 00 	movabs $0xbebe6788,%rdx
    bebe3ac7:	00 00 00 
    bebe3aca:	48 8b 45 f8          	mov    -0x8(%rbp),%rax
    bebe3ace:	48 89 02             	mov    %rax,(%rdx)
    bebe3ad1:	48 b8 88 67 be be 00 	movabs $0xbebe6788,%rax
    bebe3ad8:	00 00 00 
    bebe3adb:	48 8b 00             	mov    (%rax),%rax
    bebe3ade:	48 ba 88 67 be be 00 	movabs $0xbebe6788,%rdx
    bebe3ae5:	00 00 00 
    bebe3ae8:	48 8b 12             	mov    (%rdx),%rdx
    bebe3aeb:	48 89 50 68          	mov    %rdx,0x68(%rax)
    bebe3aef:	eb 7d                	jmp    bebe3b6e <_ZN7kthread3addEPS_+0xcc>
    bebe3af1:	48 b8 88 67 be be 00 	movabs $0xbebe6788,%rax
    bebe3af8:	00 00 00 
    bebe3afb:	48 8b 00             	mov    (%rax),%rax
    bebe3afe:	48 8b 50 68          	mov    0x68(%rax),%rdx
    bebe3b02:	48 b8 88 67 be be 00 	movabs $0xbebe6788,%rax
    bebe3b09:	00 00 00 
    bebe3b0c:	48 8b 00             	mov    (%rax),%rax
    bebe3b0f:	48 39 c2             	cmp    %rax,%rdx
    bebe3b12:	75 2c                	jne    bebe3b40 <_ZN7kthread3addEPS_+0x9e>
    bebe3b14:	48 b8 88 67 be be 00 	movabs $0xbebe6788,%rax
    bebe3b1b:	00 00 00 
    bebe3b1e:	48 8b 00             	mov    (%rax),%rax
    bebe3b21:	48 8b 55 f8          	mov    -0x8(%rbp),%rdx
    bebe3b25:	48 89 50 68          	mov    %rdx,0x68(%rax)
    bebe3b29:	48 b8 88 67 be be 00 	movabs $0xbebe6788,%rax
    bebe3b30:	00 00 00 
    bebe3b33:	48 8b 10             	mov    (%rax),%rdx
    bebe3b36:	48 8b 45 f8          	mov    -0x8(%rbp),%rax
    bebe3b3a:	48 89 50 68          	mov    %rdx,0x68(%rax)
    bebe3b3e:	eb 2e                	jmp    bebe3b6e <_ZN7kthread3addEPS_+0xcc>
    bebe3b40:	48 b8 88 67 be be 00 	movabs $0xbebe6788,%rax
    bebe3b47:	00 00 00 
    bebe3b4a:	48 8b 00             	mov    (%rax),%rax
    bebe3b4d:	48 8b 50 68          	mov    0x68(%rax),%rdx
    bebe3b51:	48 8b 45 f8          	mov    -0x8(%rbp),%rax
    bebe3b55:	48 89 50 68          	mov    %rdx,0x68(%rax)
    bebe3b59:	48 b8 88 67 be be 00 	movabs $0xbebe6788,%rax
    bebe3b60:	00 00 00 
    bebe3b63:	48 8b 00             	mov    (%rax),%rax
    bebe3b66:	48 8b 55 f8          	mov    -0x8(%rbp),%rdx
    bebe3b6a:	48 89 50 68          	mov    %rdx,0x68(%rax)
    bebe3b6e:	90                   	nop
    bebe3b6f:	c9                   	leave
    bebe3b70:	c3                   	ret
    bebe3b71:	90                   	nop

00000000bebe3b72 <_ZN7kthread6removeEPS_>:
    bebe3b72:	55                   	push   %rbp
    bebe3b73:	48 89 e5             	mov    %rsp,%rbp
    bebe3b76:	53                   	push   %rbx
    bebe3b77:	48 83 ec 28          	sub    $0x28,%rsp
    bebe3b7b:	48 89 7d d8          	mov    %rdi,-0x28(%rbp)
    bebe3b7f:	48 b8 04 37 be be 00 	movabs $0xbebe3704,%rax
    bebe3b86:	00 00 00 
    bebe3b89:	ff d0                	call   *%rax
    bebe3b8b:	48 8b 45 d8          	mov    -0x28(%rbp),%rax
    bebe3b8f:	48 8b 40 68          	mov    0x68(%rax),%rax
    bebe3b93:	48 85 c0             	test   %rax,%rax
    bebe3b96:	75 19                	jne    bebe3bb1 <_ZN7kthread6removeEPS_+0x3f>
    bebe3b98:	48 b8 0b 57 be be 00 	movabs $0xbebe570b,%rax
    bebe3b9f:	00 00 00 
    bebe3ba2:	48 89 c7             	mov    %rax,%rdi
    bebe3ba5:	48 b8 10 35 be be 00 	movabs $0xbebe3510,%rax
    bebe3bac:	00 00 00 
    bebe3baf:	ff d0                	call   *%rax
    bebe3bb1:	48 c7 45 e8 00 00 00 	movq   $0x0,-0x18(%rbp)
    bebe3bb8:	00 
    bebe3bb9:	48 8b 45 d8          	mov    -0x28(%rbp),%rax
    bebe3bbd:	48 8b 40 68          	mov    0x68(%rax),%rax
    bebe3bc1:	48 89 45 e0          	mov    %rax,-0x20(%rbp)
    bebe3bc5:	eb 14                	jmp    bebe3bdb <_ZN7kthread6removeEPS_+0x69>
    bebe3bc7:	48 8b 45 e0          	mov    -0x20(%rbp),%rax
    bebe3bcb:	48 89 45 e8          	mov    %rax,-0x18(%rbp)
    bebe3bcf:	48 8b 45 e0          	mov    -0x20(%rbp),%rax
    bebe3bd3:	48 8b 40 68          	mov    0x68(%rax),%rax
    bebe3bd7:	48 89 45 e0          	mov    %rax,-0x20(%rbp)
    bebe3bdb:	48 8b 45 e0          	mov    -0x20(%rbp),%rax
    bebe3bdf:	48 3b 45 d8          	cmp    -0x28(%rbp),%rax
    bebe3be3:	75 e2                	jne    bebe3bc7 <_ZN7kthread6removeEPS_+0x55>
    bebe3be5:	48 83 7d e8 00       	cmpq   $0x0,-0x18(%rbp)
    bebe3bea:	75 19                	jne    bebe3c05 <_ZN7kthread6removeEPS_+0x93>
    bebe3bec:	48 b8 1b 57 be be 00 	movabs $0xbebe571b,%rax
    bebe3bf3:	00 00 00 
    bebe3bf6:	48 89 c7             	mov    %rax,%rdi
    bebe3bf9:	48 b8 10 35 be be 00 	movabs $0xbebe3510,%rax
    bebe3c00:	00 00 00 
    bebe3c03:	ff d0                	call   *%rax
    bebe3c05:	48 8b 45 d8          	mov    -0x28(%rbp),%rax
    bebe3c09:	48 8b 50 68          	mov    0x68(%rax),%rdx
    bebe3c0d:	48 8b 45 e8          	mov    -0x18(%rbp),%rax
    bebe3c11:	48 89 50 68          	mov    %rdx,0x68(%rax)
    bebe3c15:	48 8b 5d d8          	mov    -0x28(%rbp),%rbx
    bebe3c19:	48 85 db             	test   %rbx,%rbx
    bebe3c1c:	74 23                	je     bebe3c41 <_ZN7kthread6removeEPS_+0xcf>
    bebe3c1e:	48 89 df             	mov    %rbx,%rdi
    bebe3c21:	48 b8 6a 3e be be 00 	movabs $0xbebe3e6a,%rax
    bebe3c28:	00 00 00 
    bebe3c2b:	ff d0                	call   *%rax
    bebe3c2d:	be 70 00 00 00       	mov    $0x70,%esi
    bebe3c32:	48 89 df             	mov    %rbx,%rdi
    bebe3c35:	48 b8 e7 54 be be 00 	movabs $0xbebe54e7,%rax
    bebe3c3c:	00 00 00 
    bebe3c3f:	ff d0                	call   *%rax
    bebe3c41:	48 b8 1a 37 be be 00 	movabs $0xbebe371a,%rax
    bebe3c48:	00 00 00 
    bebe3c4b:	ff d0                	call   *%rax
    bebe3c4d:	90                   	nop
    bebe3c4e:	48 8b 5d f8          	mov    -0x8(%rbp),%rbx
    bebe3c52:	c9                   	leave
    bebe3c53:	c3                   	ret

00000000bebe3c54 <_ZN7kthread9ted_bundyEPv>:
    bebe3c54:	55                   	push   %rbp
    bebe3c55:	48 89 e5             	mov    %rsp,%rbp
    bebe3c58:	48 83 ec 20          	sub    $0x20,%rsp
    bebe3c5c:	48 89 7d e8          	mov    %rdi,-0x18(%rbp)
    bebe3c60:	48 b8 88 67 be be 00 	movabs $0xbebe6788,%rax
    bebe3c67:	00 00 00 
    bebe3c6a:	48 8b 00             	mov    (%rax),%rax
    bebe3c6d:	48 8b 40 68          	mov    0x68(%rax),%rax
    bebe3c71:	48 89 45 f8          	mov    %rax,-0x8(%rbp)
    bebe3c75:	eb 55                	jmp    bebe3ccc <_ZN7kthread9ted_bundyEPv+0x78>
    bebe3c77:	48 8b 45 f8          	mov    -0x8(%rbp),%rax
    bebe3c7b:	0f b6 40 08          	movzbl 0x8(%rax),%eax
    bebe3c7f:	84 c0                	test   %al,%al
    bebe3c81:	75 3d                	jne    bebe3cc0 <_ZN7kthread9ted_bundyEPv+0x6c>
    bebe3c83:	48 8b 45 f8          	mov    -0x8(%rbp),%rax
    bebe3c87:	48 8b 00             	mov    (%rax),%rax
    bebe3c8a:	48 89 c6             	mov    %rax,%rsi
    bebe3c8d:	48 b8 30 57 be be 00 	movabs $0xbebe5730,%rax
    bebe3c94:	00 00 00 
    bebe3c97:	48 89 c7             	mov    %rax,%rdi
    bebe3c9a:	b8 00 00 00 00       	mov    $0x0,%eax
    bebe3c9f:	48 ba cf 49 be be 00 	movabs $0xbebe49cf,%rdx
    bebe3ca6:	00 00 00 
    bebe3ca9:	ff d2                	call   *%rdx
    bebe3cab:	48 8b 45 f8          	mov    -0x8(%rbp),%rax
    bebe3caf:	48 89 c7             	mov    %rax,%rdi
    bebe3cb2:	48 b8 72 3b be be 00 	movabs $0xbebe3b72,%rax
    bebe3cb9:	00 00 00 
    bebe3cbc:	ff d0                	call   *%rax
    bebe3cbe:	eb 1f                	jmp    bebe3cdf <_ZN7kthread9ted_bundyEPv+0x8b>
    bebe3cc0:	48 8b 45 f8          	mov    -0x8(%rbp),%rax
    bebe3cc4:	48 8b 40 68          	mov    0x68(%rax),%rax
    bebe3cc8:	48 89 45 f8          	mov    %rax,-0x8(%rbp)
    bebe3ccc:	48 b8 88 67 be be 00 	movabs $0xbebe6788,%rax
    bebe3cd3:	00 00 00 
    bebe3cd6:	48 8b 00             	mov    (%rax),%rax
    bebe3cd9:	48 39 45 f8          	cmp    %rax,-0x8(%rbp)
    bebe3cdd:	75 98                	jne    bebe3c77 <_ZN7kthread9ted_bundyEPv+0x23>
    bebe3cdf:	48 b8 72 37 be be 00 	movabs $0xbebe3772,%rax
    bebe3ce6:	00 00 00 
    bebe3ce9:	ff d0                	call   *%rax
    bebe3ceb:	e9 70 ff ff ff       	jmp    bebe3c60 <_ZN7kthread9ted_bundyEPv+0xc>

00000000bebe3cf0 <_ZN7kthreadC1EPFvPvES0_>:
    bebe3cf0:	55                   	push   %rbp
    bebe3cf1:	48 89 e5             	mov    %rsp,%rbp
    bebe3cf4:	48 83 ec 30          	sub    $0x30,%rsp
    bebe3cf8:	48 89 7d e8          	mov    %rdi,-0x18(%rbp)
    bebe3cfc:	48 89 75 e0          	mov    %rsi,-0x20(%rbp)
    bebe3d00:	48 89 55 d8          	mov    %rdx,-0x28(%rbp)
    bebe3d04:	48 b8 61 58 be be 00 	movabs $0xbebe5861,%rax
    bebe3d0b:	00 00 00 
    bebe3d0e:	0f b6 00             	movzbl (%rax),%eax
    bebe3d11:	84 c0                	test   %al,%al
    bebe3d13:	74 42                	je     bebe3d57 <_ZN7kthreadC1EPFvPvES0_+0x67>
    bebe3d15:	48 b8 61 58 be be 00 	movabs $0xbebe5861,%rax
    bebe3d1c:	00 00 00 
    bebe3d1f:	c6 00 00             	movb   $0x0,(%rax)
    bebe3d22:	bf 70 00 00 00       	mov    $0x70,%edi
    bebe3d27:	48 b8 83 54 be be 00 	movabs $0xbebe5483,%rax
    bebe3d2e:	00 00 00 
    bebe3d31:	ff d0                	call   *%rax
    bebe3d33:	48 89 c1             	mov    %rax,%rcx
    bebe3d36:	ba 00 00 00 00       	mov    $0x0,%edx
    bebe3d3b:	48 b8 54 3c be be 00 	movabs $0xbebe3c54,%rax
    bebe3d42:	00 00 00 
    bebe3d45:	48 89 c6             	mov    %rax,%rsi
    bebe3d48:	48 89 cf             	mov    %rcx,%rdi
    bebe3d4b:	48 b8 f0 3c be be 00 	movabs $0xbebe3cf0,%rax
    bebe3d52:	00 00 00 
    bebe3d55:	ff d0                	call   *%rax
    bebe3d57:	48 b8 04 37 be be 00 	movabs $0xbebe3704,%rax
    bebe3d5e:	00 00 00 
    bebe3d61:	ff d0                	call   *%rax
    bebe3d63:	bf 00 10 00 00       	mov    $0x1000,%edi
    bebe3d68:	48 b8 a4 54 be be 00 	movabs $0xbebe54a4,%rax
    bebe3d6f:	00 00 00 
    bebe3d72:	ff d0                	call   *%rax
    bebe3d74:	48 89 45 f8          	mov    %rax,-0x8(%rbp)
    bebe3d78:	48 8b 45 f8          	mov    -0x8(%rbp),%rax
    bebe3d7c:	48 05 00 10 00 00    	add    $0x1000,%rax
    bebe3d82:	48 89 45 f0          	mov    %rax,-0x10(%rbp)
    bebe3d86:	48 8b 45 f0          	mov    -0x10(%rbp),%rax
    bebe3d8a:	48 83 e0 f0          	and    $0xfffffffffffffff0,%rax
    bebe3d8e:	48 89 45 f0          	mov    %rax,-0x10(%rbp)
    bebe3d92:	48 83 6d f0 08       	subq   $0x8,-0x10(%rbp)
    bebe3d97:	48 8b 45 f8          	mov    -0x8(%rbp),%rax
    bebe3d9b:	ba 00 10 00 00       	mov    $0x1000,%edx
    bebe3da0:	be 00 00 00 00       	mov    $0x0,%esi
    bebe3da5:	48 89 c7             	mov    %rax,%rdi
    bebe3da8:	48 b8 83 52 be be 00 	movabs $0xbebe5283,%rax
    bebe3daf:	00 00 00 
    bebe3db2:	ff d0                	call   *%rax
    bebe3db4:	48 b8 78 67 be be 00 	movabs $0xbebe6778,%rax
    bebe3dbb:	00 00 00 
    bebe3dbe:	48 8b 00             	mov    (%rax),%rax
    bebe3dc1:	48 8d 50 01          	lea    0x1(%rax),%rdx
    bebe3dc5:	48 b9 78 67 be be 00 	movabs $0xbebe6778,%rcx
    bebe3dcc:	00 00 00 
    bebe3dcf:	48 89 11             	mov    %rdx,(%rcx)
    bebe3dd2:	48 8b 55 e8          	mov    -0x18(%rbp),%rdx
    bebe3dd6:	48 89 02             	mov    %rax,(%rdx)
    bebe3dd9:	48 8b 45 e8          	mov    -0x18(%rbp),%rax
    bebe3ddd:	c6 40 08 01          	movb   $0x1,0x8(%rax)
    bebe3de1:	48 8b 45 e8          	mov    -0x18(%rbp),%rax
    bebe3de5:	48 8b 55 f8          	mov    -0x8(%rbp),%rdx
    bebe3de9:	48 89 50 10          	mov    %rdx,0x10(%rax)
    bebe3ded:	48 8b 55 f0          	mov    -0x10(%rbp),%rdx
    bebe3df1:	48 8b 45 e8          	mov    -0x18(%rbp),%rax
    bebe3df5:	48 89 50 20          	mov    %rdx,0x20(%rax)
    bebe3df9:	48 ba 52 3a be be 00 	movabs $0xbebe3a52,%rdx
    bebe3e00:	00 00 00 
    bebe3e03:	48 8b 45 e8          	mov    -0x18(%rbp),%rax
    bebe3e07:	48 89 50 18          	mov    %rdx,0x18(%rax)
    bebe3e0b:	48 8b 55 e0          	mov    -0x20(%rbp),%rdx
    bebe3e0f:	48 8b 45 e8          	mov    -0x18(%rbp),%rax
    bebe3e13:	48 89 50 28          	mov    %rdx,0x28(%rax)
    bebe3e17:	48 8b 55 d8          	mov    -0x28(%rbp),%rdx
    bebe3e1b:	48 8b 45 e8          	mov    -0x18(%rbp),%rax
    bebe3e1f:	48 89 50 30          	mov    %rdx,0x30(%rax)
    bebe3e23:	48 8b 45 e8          	mov    -0x18(%rbp),%rax
    bebe3e27:	48 c7 40 38 00 00 00 	movq   $0x0,0x38(%rax)
    bebe3e2e:	00 
    bebe3e2f:	48 8b 45 e8          	mov    -0x18(%rbp),%rax
    bebe3e33:	48 c7 40 40 02 02 00 	movq   $0x202,0x40(%rax)
    bebe3e3a:	00 
    bebe3e3b:	48 8b 45 e8          	mov    -0x18(%rbp),%rax
    bebe3e3f:	48 c7 40 68 00 00 00 	movq   $0x0,0x68(%rax)
    bebe3e46:	00 
    bebe3e47:	48 8b 45 e8          	mov    -0x18(%rbp),%rax
    bebe3e4b:	48 89 c7             	mov    %rax,%rdi
    bebe3e4e:	48 b8 a2 3a be be 00 	movabs $0xbebe3aa2,%rax
    bebe3e55:	00 00 00 
    bebe3e58:	ff d0                	call   *%rax
    bebe3e5a:	48 b8 1a 37 be be 00 	movabs $0xbebe371a,%rax
    bebe3e61:	00 00 00 
    bebe3e64:	ff d0                	call   *%rax
    bebe3e66:	90                   	nop
    bebe3e67:	c9                   	leave
    bebe3e68:	c3                   	ret
    bebe3e69:	90                   	nop

00000000bebe3e6a <_ZN7kthreadD1Ev>:
    bebe3e6a:	55                   	push   %rbp
    bebe3e6b:	48 89 e5             	mov    %rsp,%rbp
    bebe3e6e:	48 83 ec 10          	sub    $0x10,%rsp
    bebe3e72:	48 89 7d f8          	mov    %rdi,-0x8(%rbp)
    bebe3e76:	48 b8 5a 57 be be 00 	movabs $0xbebe575a,%rax
    bebe3e7d:	00 00 00 
    bebe3e80:	48 89 c7             	mov    %rax,%rdi
    bebe3e83:	b8 00 00 00 00       	mov    $0x0,%eax
    bebe3e88:	48 ba cf 49 be be 00 	movabs $0xbebe49cf,%rdx
    bebe3e8f:	00 00 00 
    bebe3e92:	ff d2                	call   *%rdx
    bebe3e94:	48 8b 45 f8          	mov    -0x8(%rbp),%rax
    bebe3e98:	48 8b 40 10          	mov    0x10(%rax),%rax
    bebe3e9c:	48 85 c0             	test   %rax,%rax
    bebe3e9f:	74 17                	je     bebe3eb8 <_ZN7kthreadD1Ev+0x4e>
    bebe3ea1:	48 8b 45 f8          	mov    -0x8(%rbp),%rax
    bebe3ea5:	48 8b 40 10          	mov    0x10(%rax),%rax
    bebe3ea9:	48 89 c7             	mov    %rax,%rdi
    bebe3eac:	48 b8 0d 55 be be 00 	movabs $0xbebe550d,%rax
    bebe3eb3:	00 00 00 
    bebe3eb6:	ff d0                	call   *%rax
    bebe3eb8:	90                   	nop
    bebe3eb9:	c9                   	leave
    bebe3eba:	c3                   	ret

00000000bebe3ebb <_Z13klock_acquireP7klock_t>:
    bebe3ebb:	55                   	push   %rbp
    bebe3ebc:	48 89 e5             	mov    %rsp,%rbp
    bebe3ebf:	48 83 ec 08          	sub    $0x8,%rsp
    bebe3ec3:	48 89 7d f8          	mov    %rdi,-0x8(%rbp)
    bebe3ec7:	48 8b 45 f8          	mov    -0x8(%rbp),%rax
    bebe3ecb:	0f b6 00             	movzbl (%rax),%eax
    bebe3ece:	0f b6 c0             	movzbl %al,%eax
    bebe3ed1:	85 c0                	test   %eax,%eax
    bebe3ed3:	75 f2                	jne    bebe3ec7 <_Z13klock_acquireP7klock_t+0xc>
    bebe3ed5:	48 8b 45 f8          	mov    -0x8(%rbp),%rax
    bebe3ed9:	c6 00 01             	movb   $0x1,(%rax)
    bebe3edc:	90                   	nop
    bebe3edd:	c9                   	leave
    bebe3ede:	c3                   	ret

00000000bebe3edf <_Z13klock_releaseP7klock_t>:
    bebe3edf:	55                   	push   %rbp
    bebe3ee0:	48 89 e5             	mov    %rsp,%rbp
    bebe3ee3:	48 83 ec 08          	sub    $0x8,%rsp
    bebe3ee7:	48 89 7d f8          	mov    %rdi,-0x8(%rbp)
    bebe3eeb:	48 8b 45 f8          	mov    -0x8(%rbp),%rax
    bebe3eef:	c6 00 00             	movb   $0x0,(%rax)
    bebe3ef2:	90                   	nop
    bebe3ef3:	c9                   	leave
    bebe3ef4:	c3                   	ret

00000000bebe3ef5 <_Z10KInterruptILh97EEvv>:
    bebe3ef5:	55                   	push   %rbp
    bebe3ef6:	48 89 e5             	mov    %rsp,%rbp
    bebe3ef9:	cd 61                	int    $0x61
    bebe3efb:	90                   	nop
    bebe3efc:	5d                   	pop    %rbp
    bebe3efd:	c3                   	ret

00000000bebe3efe <libc_init>:
    bebe3efe:	55                   	push   %rbp
    bebe3eff:	48 89 e5             	mov    %rsp,%rbp
    bebe3f02:	48 b8 15 3f be be 00 	movabs $0xbebe3f15,%rax
    bebe3f09:	00 00 00 
    bebe3f0c:	ff d0                	call   *%rax
    bebe3f0e:	b8 01 00 00 00       	mov    $0x1,%eax
    bebe3f13:	5d                   	pop    %rbp
    bebe3f14:	c3                   	ret

00000000bebe3f15 <libc_init_stdio>:
    bebe3f15:	55                   	push   %rbp
    bebe3f16:	48 89 e5             	mov    %rsp,%rbp
    bebe3f19:	48 83 ec 60          	sub    $0x60,%rsp
    bebe3f1d:	c7 45 a0 05 00 00 00 	movl   $0x5,-0x60(%rbp)
    bebe3f24:	48 8d 45 a0          	lea    -0x60(%rbp),%rax
    bebe3f28:	48 83 c0 10          	add    $0x10,%rax
    bebe3f2c:	48 ba 6f 57 be be 00 	movabs $0xbebe576f,%rdx
    bebe3f33:	00 00 00 
    bebe3f36:	48 89 d6             	mov    %rdx,%rsi
    bebe3f39:	48 89 c7             	mov    %rax,%rdi
    bebe3f3c:	48 b8 94 53 be be 00 	movabs $0xbebe5394,%rax
    bebe3f43:	00 00 00 
    bebe3f46:	ff d0                	call   *%rax
    bebe3f48:	48 8d 45 a0          	lea    -0x60(%rbp),%rax
    bebe3f4c:	48 89 c7             	mov    %rax,%rdi
    bebe3f4f:	48 b8 80 54 be be 00 	movabs $0xbebe5480,%rax
    bebe3f56:	00 00 00 
    bebe3f59:	ff d0                	call   *%rax
    bebe3f5b:	48 8b 45 f0          	mov    -0x10(%rbp),%rax
    bebe3f5f:	48 ba a0 67 be be 00 	movabs $0xbebe67a0,%rdx
    bebe3f66:	00 00 00 
    bebe3f69:	48 89 02             	mov    %rax,(%rdx)
    bebe3f6c:	b8 01 00 00 00       	mov    $0x1,%eax
    bebe3f71:	c9                   	leave
    bebe3f72:	c3                   	ret

00000000bebe3f73 <_ZL7shitpowdd>:
    bebe3f73:	55                   	push   %rbp
    bebe3f74:	48 89 e5             	mov    %rsp,%rbp
    bebe3f77:	48 83 ec 20          	sub    $0x20,%rsp
    bebe3f7b:	f2 0f 11 45 e8       	movsd  %xmm0,-0x18(%rbp)
    bebe3f80:	f2 0f 11 4d e0       	movsd  %xmm1,-0x20(%rbp)
    bebe3f85:	48 b8 30 58 be be 00 	movabs $0xbebe5830,%rax
    bebe3f8c:	00 00 00 
    bebe3f8f:	f2 0f 10 00          	movsd  (%rax),%xmm0
    bebe3f93:	f2 0f 11 45 f8       	movsd  %xmm0,-0x8(%rbp)
    bebe3f98:	48 b8 38 58 be be 00 	movabs $0xbebe5838,%rax
    bebe3f9f:	00 00 00 
    bebe3fa2:	f2 0f 10 00          	movsd  (%rax),%xmm0
    bebe3fa6:	f2 0f 11 45 f0       	movsd  %xmm0,-0x10(%rbp)
    bebe3fab:	eb 2b                	jmp    bebe3fd8 <_ZL7shitpowdd+0x65>
    bebe3fad:	f2 0f 10 45 f8       	movsd  -0x8(%rbp),%xmm0
    bebe3fb2:	f2 0f 59 45 e8       	mulsd  -0x18(%rbp),%xmm0
    bebe3fb7:	f2 0f 11 45 f8       	movsd  %xmm0,-0x8(%rbp)
    bebe3fbc:	f2 0f 10 4d f0       	movsd  -0x10(%rbp),%xmm1
    bebe3fc1:	48 b8 30 58 be be 00 	movabs $0xbebe5830,%rax
    bebe3fc8:	00 00 00 
    bebe3fcb:	f2 0f 10 00          	movsd  (%rax),%xmm0
    bebe3fcf:	f2 0f 58 c1          	addsd  %xmm1,%xmm0
    bebe3fd3:	f2 0f 11 45 f0       	movsd  %xmm0,-0x10(%rbp)
    bebe3fd8:	f2 0f 10 45 e0       	movsd  -0x20(%rbp),%xmm0
    bebe3fdd:	66 0f 2f 45 f0       	comisd -0x10(%rbp),%xmm0
    bebe3fe2:	77 c9                	ja     bebe3fad <_ZL7shitpowdd+0x3a>
    bebe3fe4:	f2 0f 10 45 f8       	movsd  -0x8(%rbp),%xmm0
    bebe3fe9:	66 48 0f 7e c0       	movq   %xmm0,%rax
    bebe3fee:	66 48 0f 6e c0       	movq   %rax,%xmm0
    bebe3ff3:	c9                   	leave
    bebe3ff4:	c3                   	ret

00000000bebe3ff5 <_ZL6__dtoadiPc>:
    bebe3ff5:	55                   	push   %rbp
    bebe3ff6:	48 89 e5             	mov    %rsp,%rbp
    bebe3ff9:	48 83 ec 40          	sub    $0x40,%rsp
    bebe3ffd:	f2 0f 11 45 d8       	movsd  %xmm0,-0x28(%rbp)
    bebe4002:	89 7d d4             	mov    %edi,-0x2c(%rbp)
    bebe4005:	48 89 75 c8          	mov    %rsi,-0x38(%rbp)
    bebe4009:	f2 0f 10 45 d8       	movsd  -0x28(%rbp),%xmm0
    bebe400e:	48 b8 40 58 be be 00 	movabs $0xbebe5840,%rax
    bebe4015:	00 00 00 
    bebe4018:	f2 0f 10 08          	movsd  (%rax),%xmm1
    bebe401c:	66 0f 2f c1          	comisd %xmm1,%xmm0
    bebe4020:	73 10                	jae    bebe4032 <_ZL6__dtoadiPc+0x3d>
    bebe4022:	f2 0f 10 45 d8       	movsd  -0x28(%rbp),%xmm0
    bebe4027:	f2 48 0f 2c c0       	cvttsd2si %xmm0,%rax
    bebe402c:	48 89 45 f8          	mov    %rax,-0x8(%rbp)
    bebe4030:	eb 2e                	jmp    bebe4060 <_ZL6__dtoadiPc+0x6b>
    bebe4032:	f2 0f 10 45 d8       	movsd  -0x28(%rbp),%xmm0
    bebe4037:	48 b8 40 58 be be 00 	movabs $0xbebe5840,%rax
    bebe403e:	00 00 00 
    bebe4041:	f2 0f 10 08          	movsd  (%rax),%xmm1
    bebe4045:	f2 0f 5c c1          	subsd  %xmm1,%xmm0
    bebe4049:	f2 48 0f 2c c0       	cvttsd2si %xmm0,%rax
    bebe404e:	48 89 45 f8          	mov    %rax,-0x8(%rbp)
    bebe4052:	48 b8 00 00 00 00 00 	movabs $0x8000000000000000,%rax
    bebe4059:	00 00 80 
    bebe405c:	48 31 45 f8          	xor    %rax,-0x8(%rbp)
    bebe4060:	48 8b 45 f8          	mov    -0x8(%rbp),%rax
    bebe4064:	48 89 45 f8          	mov    %rax,-0x8(%rbp)
    bebe4068:	66 0f ef c0          	pxor   %xmm0,%xmm0
    bebe406c:	f2 0f 2a 45 d4       	cvtsi2sdl -0x2c(%rbp),%xmm0
    bebe4071:	48 b8 48 58 be be 00 	movabs $0xbebe5848,%rax
    bebe4078:	00 00 00 
    bebe407b:	48 8b 00             	mov    (%rax),%rax
    bebe407e:	66 0f 28 c8          	movapd %xmm0,%xmm1
    bebe4082:	66 48 0f 6e c0       	movq   %rax,%xmm0
    bebe4087:	48 b8 73 3f be be 00 	movabs $0xbebe3f73,%rax
    bebe408e:	00 00 00 
    bebe4091:	ff d0                	call   *%rax
    bebe4093:	f2 0f 10 4d d8       	movsd  -0x28(%rbp),%xmm1
    bebe4098:	f2 0f 59 c1          	mulsd  %xmm1,%xmm0
    bebe409c:	f2 0f 11 45 f0       	movsd  %xmm0,-0x10(%rbp)
    bebe40a1:	48 b8 38 58 be be 00 	movabs $0xbebe5838,%rax
    bebe40a8:	00 00 00 
    bebe40ab:	66 0f ef c0          	pxor   %xmm0,%xmm0
    bebe40af:	66 0f 2f 45 f0       	comisd -0x10(%rbp),%xmm0
    bebe40b4:	76 58                	jbe    bebe410e <_ZL6__dtoadiPc+0x119>
    bebe40b6:	f2 0f 10 45 f0       	movsd  -0x10(%rbp),%xmm0
    bebe40bb:	48 b8 50 58 be be 00 	movabs $0xbebe5850,%rax
    bebe40c2:	00 00 00 
    bebe40c5:	66 0f 28 08          	movapd (%rax),%xmm1
    bebe40c9:	66 0f 57 c1          	xorpd  %xmm1,%xmm0
    bebe40cd:	48 b8 40 58 be be 00 	movabs $0xbebe5840,%rax
    bebe40d4:	00 00 00 
    bebe40d7:	f2 0f 10 08          	movsd  (%rax),%xmm1
    bebe40db:	66 0f 2f c1          	comisd %xmm1,%xmm0
    bebe40df:	73 07                	jae    bebe40e8 <_ZL6__dtoadiPc+0xf3>
    bebe40e1:	f2 48 0f 2c c0       	cvttsd2si %xmm0,%rax
    bebe40e6:	eb 74                	jmp    bebe415c <_ZL6__dtoadiPc+0x167>
    bebe40e8:	48 b8 40 58 be be 00 	movabs $0xbebe5840,%rax
    bebe40ef:	00 00 00 
    bebe40f2:	f2 0f 10 08          	movsd  (%rax),%xmm1
    bebe40f6:	f2 0f 5c c1          	subsd  %xmm1,%xmm0
    bebe40fa:	f2 48 0f 2c c0       	cvttsd2si %xmm0,%rax
    bebe40ff:	48 ba 00 00 00 00 00 	movabs $0x8000000000000000,%rdx
    bebe4106:	00 00 80 
    bebe4109:	48 31 d0             	xor    %rdx,%rax
    bebe410c:	eb 4e                	jmp    bebe415c <_ZL6__dtoadiPc+0x167>
    bebe410e:	f2 0f 10 45 f0       	movsd  -0x10(%rbp),%xmm0
    bebe4113:	48 b8 40 58 be be 00 	movabs $0xbebe5840,%rax
    bebe411a:	00 00 00 
    bebe411d:	f2 0f 10 08          	movsd  (%rax),%xmm1
    bebe4121:	66 0f 2f c1          	comisd %xmm1,%xmm0
    bebe4125:	73 0c                	jae    bebe4133 <_ZL6__dtoadiPc+0x13e>
    bebe4127:	f2 0f 10 45 f0       	movsd  -0x10(%rbp),%xmm0
    bebe412c:	f2 48 0f 2c c0       	cvttsd2si %xmm0,%rax
    bebe4131:	eb 29                	jmp    bebe415c <_ZL6__dtoadiPc+0x167>
    bebe4133:	f2 0f 10 45 f0       	movsd  -0x10(%rbp),%xmm0
    bebe4138:	48 b8 40 58 be be 00 	movabs $0xbebe5840,%rax
    bebe413f:	00 00 00 
    bebe4142:	f2 0f 10 08          	movsd  (%rax),%xmm1
    bebe4146:	f2 0f 5c c1          	subsd  %xmm1,%xmm0
    bebe414a:	f2 48 0f 2c c0       	cvttsd2si %xmm0,%rax
    bebe414f:	48 ba 00 00 00 00 00 	movabs $0x8000000000000000,%rdx
    bebe4156:	00 00 80 
    bebe4159:	48 31 d0             	xor    %rdx,%rax
    bebe415c:	48 89 45 e8          	mov    %rax,-0x18(%rbp)
    bebe4160:	48 8b 4d c8          	mov    -0x38(%rbp),%rcx
    bebe4164:	48 8b 45 f8          	mov    -0x8(%rbp),%rax
    bebe4168:	ba 0a 00 00 00       	mov    $0xa,%edx
    bebe416d:	48 89 ce             	mov    %rcx,%rsi
    bebe4170:	48 89 c7             	mov    %rax,%rdi
    bebe4173:	48 b8 f1 4d be be 00 	movabs $0xbebe4df1,%rax
    bebe417a:	00 00 00 
    bebe417d:	ff d0                	call   *%rax
    bebe417f:	48 89 45 c8          	mov    %rax,-0x38(%rbp)
    bebe4183:	48 8b 45 c8          	mov    -0x38(%rbp),%rax
    bebe4187:	48 8d 50 01          	lea    0x1(%rax),%rdx
    bebe418b:	48 89 55 c8          	mov    %rdx,-0x38(%rbp)
    bebe418f:	c6 00 2e             	movb   $0x2e,(%rax)
    bebe4192:	48 8b 4d c8          	mov    -0x38(%rbp),%rcx
    bebe4196:	48 8b 45 e8          	mov    -0x18(%rbp),%rax
    bebe419a:	ba 0a 00 00 00       	mov    $0xa,%edx
    bebe419f:	48 89 ce             	mov    %rcx,%rsi
    bebe41a2:	48 89 c7             	mov    %rax,%rdi
    bebe41a5:	48 b8 f1 4d be be 00 	movabs $0xbebe4df1,%rax
    bebe41ac:	00 00 00 
    bebe41af:	ff d0                	call   *%rax
    bebe41b1:	48 89 45 c8          	mov    %rax,-0x38(%rbp)
    bebe41b5:	48 8b 45 c8          	mov    -0x38(%rbp),%rax
    bebe41b9:	c9                   	leave
    bebe41ba:	c3                   	ret

00000000bebe41bb <_ZL7strseekPKcc>:
    bebe41bb:	55                   	push   %rbp
    bebe41bc:	48 89 e5             	mov    %rsp,%rbp
    bebe41bf:	48 83 ec 10          	sub    $0x10,%rsp
    bebe41c3:	48 89 7d f8          	mov    %rdi,-0x8(%rbp)
    bebe41c7:	89 f0                	mov    %esi,%eax
    bebe41c9:	88 45 f4             	mov    %al,-0xc(%rbp)
    bebe41cc:	eb 05                	jmp    bebe41d3 <_ZL7strseekPKcc+0x18>
    bebe41ce:	48 83 45 f8 01       	addq   $0x1,-0x8(%rbp)
    bebe41d3:	48 8b 45 f8          	mov    -0x8(%rbp),%rax
    bebe41d7:	0f b6 00             	movzbl (%rax),%eax
    bebe41da:	84 c0                	test   %al,%al
    bebe41dc:	74 0c                	je     bebe41ea <_ZL7strseekPKcc+0x2f>
    bebe41de:	48 8b 45 f8          	mov    -0x8(%rbp),%rax
    bebe41e2:	0f b6 00             	movzbl (%rax),%eax
    bebe41e5:	38 45 f4             	cmp    %al,-0xc(%rbp)
    bebe41e8:	75 e4                	jne    bebe41ce <_ZL7strseekPKcc+0x13>
    bebe41ea:	48 8b 45 f8          	mov    -0x8(%rbp),%rax
    bebe41ee:	0f b6 00             	movzbl (%rax),%eax
    bebe41f1:	84 c0                	test   %al,%al
    bebe41f3:	75 07                	jne    bebe41fc <_ZL7strseekPKcc+0x41>
    bebe41f5:	b8 00 00 00 00       	mov    $0x0,%eax
    bebe41fa:	eb 04                	jmp    bebe4200 <_ZL7strseekPKcc+0x45>
    bebe41fc:	48 8b 45 f8          	mov    -0x8(%rbp),%rax
    bebe4200:	c9                   	leave
    bebe4201:	c3                   	ret

00000000bebe4202 <_ZL14__vsprintf_ssePcRPKcP13__va_list_tag>:
    bebe4202:	55                   	push   %rbp
    bebe4203:	48 89 e5             	mov    %rsp,%rbp
    bebe4206:	48 83 ec 40          	sub    $0x40,%rsp
    bebe420a:	48 89 7d d8          	mov    %rdi,-0x28(%rbp)
    bebe420e:	48 89 75 d0          	mov    %rsi,-0x30(%rbp)
    bebe4212:	48 89 55 c8          	mov    %rdx,-0x38(%rbp)
    bebe4216:	48 8b 45 d0          	mov    -0x30(%rbp),%rax
    bebe421a:	48 8b 00             	mov    (%rax),%rax
    bebe421d:	0f b6 00             	movzbl (%rax),%eax
    bebe4220:	3c 66                	cmp    $0x66,%al
    bebe4222:	75 6e                	jne    bebe4292 <_ZL14__vsprintf_ssePcRPKcP13__va_list_tag+0x90>
    bebe4224:	48 8b 45 c8          	mov    -0x38(%rbp),%rax
    bebe4228:	8b 40 04             	mov    0x4(%rax),%eax
    bebe422b:	3d af 00 00 00       	cmp    $0xaf,%eax
    bebe4230:	77 27                	ja     bebe4259 <_ZL14__vsprintf_ssePcRPKcP13__va_list_tag+0x57>
    bebe4232:	48 8b 45 c8          	mov    -0x38(%rbp),%rax
    bebe4236:	48 8b 50 10          	mov    0x10(%rax),%rdx
    bebe423a:	48 8b 45 c8          	mov    -0x38(%rbp),%rax
    bebe423e:	8b 40 04             	mov    0x4(%rax),%eax
    bebe4241:	89 c0                	mov    %eax,%eax
    bebe4243:	48 01 d0             	add    %rdx,%rax
    bebe4246:	48 8b 55 c8          	mov    -0x38(%rbp),%rdx
    bebe424a:	8b 52 04             	mov    0x4(%rdx),%edx
    bebe424d:	8d 4a 10             	lea    0x10(%rdx),%ecx
    bebe4250:	48 8b 55 c8          	mov    -0x38(%rbp),%rdx
    bebe4254:	89 4a 04             	mov    %ecx,0x4(%rdx)
    bebe4257:	eb 14                	jmp    bebe426d <_ZL14__vsprintf_ssePcRPKcP13__va_list_tag+0x6b>
    bebe4259:	48 8b 45 c8          	mov    -0x38(%rbp),%rax
    bebe425d:	48 8b 40 08          	mov    0x8(%rax),%rax
    bebe4261:	48 8d 48 08          	lea    0x8(%rax),%rcx
    bebe4265:	48 8b 55 c8          	mov    -0x38(%rbp),%rdx
    bebe4269:	48 89 4a 08          	mov    %rcx,0x8(%rdx)
    bebe426d:	48 8b 00             	mov    (%rax),%rax
    bebe4270:	48 8b 55 d8          	mov    -0x28(%rbp),%rdx
    bebe4274:	48 89 d6             	mov    %rdx,%rsi
    bebe4277:	bf 08 00 00 00       	mov    $0x8,%edi
    bebe427c:	66 48 0f 6e c0       	movq   %rax,%xmm0
    bebe4281:	48 b8 f5 3f be be 00 	movabs $0xbebe3ff5,%rax
    bebe4288:	00 00 00 
    bebe428b:	ff d0                	call   *%rax
    bebe428d:	e9 d3 00 00 00       	jmp    bebe4365 <_ZL14__vsprintf_ssePcRPKcP13__va_list_tag+0x163>
    bebe4292:	48 8b 45 d0          	mov    -0x30(%rbp),%rax
    bebe4296:	48 8b 00             	mov    (%rax),%rax
    bebe4299:	48 89 45 f8          	mov    %rax,-0x8(%rbp)
    bebe429d:	48 8b 45 d0          	mov    -0x30(%rbp),%rax
    bebe42a1:	48 8b 00             	mov    (%rax),%rax
    bebe42a4:	be 66 00 00 00       	mov    $0x66,%esi
    bebe42a9:	48 89 c7             	mov    %rax,%rdi
    bebe42ac:	48 b8 bb 41 be be 00 	movabs $0xbebe41bb,%rax
    bebe42b3:	00 00 00 
    bebe42b6:	ff d0                	call   *%rax
    bebe42b8:	48 89 45 f0          	mov    %rax,-0x10(%rbp)
    bebe42bc:	48 83 7d f0 00       	cmpq   $0x0,-0x10(%rbp)
    bebe42c1:	75 09                	jne    bebe42cc <_ZL14__vsprintf_ssePcRPKcP13__va_list_tag+0xca>
    bebe42c3:	48 8b 45 d8          	mov    -0x28(%rbp),%rax
    bebe42c7:	e9 99 00 00 00       	jmp    bebe4365 <_ZL14__vsprintf_ssePcRPKcP13__va_list_tag+0x163>
    bebe42cc:	48 8b 45 f8          	mov    -0x8(%rbp),%rax
    bebe42d0:	48 83 c0 01          	add    $0x1,%rax
    bebe42d4:	0f b6 00             	movzbl (%rax),%eax
    bebe42d7:	3c 2e                	cmp    $0x2e,%al
    bebe42d9:	74 09                	je     bebe42e4 <_ZL14__vsprintf_ssePcRPKcP13__va_list_tag+0xe2>
    bebe42db:	48 8b 45 d8          	mov    -0x28(%rbp),%rax
    bebe42df:	e9 81 00 00 00       	jmp    bebe4365 <_ZL14__vsprintf_ssePcRPKcP13__va_list_tag+0x163>
    bebe42e4:	48 83 45 f8 01       	addq   $0x1,-0x8(%rbp)
    bebe42e9:	48 83 45 f8 01       	addq   $0x1,-0x8(%rbp)
    bebe42ee:	48 8b 45 f8          	mov    -0x8(%rbp),%rax
    bebe42f2:	0f b6 00             	movzbl (%rax),%eax
    bebe42f5:	0f be c0             	movsbl %al,%eax
    bebe42f8:	89 45 ec             	mov    %eax,-0x14(%rbp)
    bebe42fb:	48 8b 45 c8          	mov    -0x38(%rbp),%rax
    bebe42ff:	8b 40 04             	mov    0x4(%rax),%eax
    bebe4302:	3d af 00 00 00       	cmp    $0xaf,%eax
    bebe4307:	77 27                	ja     bebe4330 <_ZL14__vsprintf_ssePcRPKcP13__va_list_tag+0x12e>
    bebe4309:	48 8b 45 c8          	mov    -0x38(%rbp),%rax
    bebe430d:	48 8b 50 10          	mov    0x10(%rax),%rdx
    bebe4311:	48 8b 45 c8          	mov    -0x38(%rbp),%rax
    bebe4315:	8b 40 04             	mov    0x4(%rax),%eax
    bebe4318:	89 c0                	mov    %eax,%eax
    bebe431a:	48 01 d0             	add    %rdx,%rax
    bebe431d:	48 8b 55 c8          	mov    -0x38(%rbp),%rdx
    bebe4321:	8b 52 04             	mov    0x4(%rdx),%edx
    bebe4324:	8d 4a 10             	lea    0x10(%rdx),%ecx
    bebe4327:	48 8b 55 c8          	mov    -0x38(%rbp),%rdx
    bebe432b:	89 4a 04             	mov    %ecx,0x4(%rdx)
    bebe432e:	eb 14                	jmp    bebe4344 <_ZL14__vsprintf_ssePcRPKcP13__va_list_tag+0x142>
    bebe4330:	48 8b 45 c8          	mov    -0x38(%rbp),%rax
    bebe4334:	48 8b 40 08          	mov    0x8(%rax),%rax
    bebe4338:	48 8d 48 08          	lea    0x8(%rax),%rcx
    bebe433c:	48 8b 55 c8          	mov    -0x38(%rbp),%rdx
    bebe4340:	48 89 4a 08          	mov    %rcx,0x8(%rdx)
    bebe4344:	48 8b 00             	mov    (%rax),%rax
    bebe4347:	48 8b 4d d8          	mov    -0x28(%rbp),%rcx
    bebe434b:	8b 55 ec             	mov    -0x14(%rbp),%edx
    bebe434e:	48 89 ce             	mov    %rcx,%rsi
    bebe4351:	89 d7                	mov    %edx,%edi
    bebe4353:	66 48 0f 6e c0       	movq   %rax,%xmm0
    bebe4358:	48 b8 f5 3f be be 00 	movabs $0xbebe3ff5,%rax
    bebe435f:	00 00 00 
    bebe4362:	ff d0                	call   *%rax
    bebe4364:	90                   	nop
    bebe4365:	c9                   	leave
    bebe4366:	c3                   	ret

00000000bebe4367 <_ZL10__vsprintfPcRPKcP13__va_list_tag>:
    bebe4367:	55                   	push   %rbp
    bebe4368:	48 89 e5             	mov    %rsp,%rbp
    bebe436b:	48 83 ec 30          	sub    $0x30,%rsp
    bebe436f:	48 89 7d e8          	mov    %rdi,-0x18(%rbp)
    bebe4373:	48 89 75 e0          	mov    %rsi,-0x20(%rbp)
    bebe4377:	48 89 55 d8          	mov    %rdx,-0x28(%rbp)
    bebe437b:	c7 45 fc 00 00 00 00 	movl   $0x0,-0x4(%rbp)
    bebe4382:	48 8b 45 e0          	mov    -0x20(%rbp),%rax
    bebe4386:	48 8b 00             	mov    (%rax),%rax
    bebe4389:	48 8d 50 01          	lea    0x1(%rax),%rdx
    bebe438d:	48 8b 45 e0          	mov    -0x20(%rbp),%rax
    bebe4391:	48 89 10             	mov    %rdx,(%rax)
    bebe4394:	48 8b 45 e0          	mov    -0x20(%rbp),%rax
    bebe4398:	48 8b 00             	mov    (%rax),%rax
    bebe439b:	0f b6 00             	movzbl (%rax),%eax
    bebe439e:	0f be c0             	movsbl %al,%eax
    bebe43a1:	83 f8 78             	cmp    $0x78,%eax
    bebe43a4:	0f 8f b3 02 00 00    	jg     bebe465d <_ZL10__vsprintfPcRPKcP13__va_list_tag+0x2f6>
    bebe43aa:	83 f8 63             	cmp    $0x63,%eax
    bebe43ad:	7d 17                	jge    bebe43c6 <_ZL10__vsprintfPcRPKcP13__va_list_tag+0x5f>
    bebe43af:	83 f8 2e             	cmp    $0x2e,%eax
    bebe43b2:	0f 84 5d 02 00 00    	je     bebe4615 <_ZL10__vsprintfPcRPKcP13__va_list_tag+0x2ae>
    bebe43b8:	83 f8 30             	cmp    $0x30,%eax
    bebe43bb:	0f 84 30 02 00 00    	je     bebe45f1 <_ZL10__vsprintfPcRPKcP13__va_list_tag+0x28a>
    bebe43c1:	e9 97 02 00 00       	jmp    bebe465d <_ZL10__vsprintfPcRPKcP13__va_list_tag+0x2f6>
    bebe43c6:	83 e8 63             	sub    $0x63,%eax
    bebe43c9:	83 f8 15             	cmp    $0x15,%eax
    bebe43cc:	0f 87 8b 02 00 00    	ja     bebe465d <_ZL10__vsprintfPcRPKcP13__va_list_tag+0x2f6>
    bebe43d2:	89 c0                	mov    %eax,%eax
    bebe43d4:	48 8d 14 c5 00 00 00 	lea    0x0(,%rax,8),%rdx
    bebe43db:	00 
    bebe43dc:	48 b8 80 57 be be 00 	movabs $0xbebe5780,%rax
    bebe43e3:	00 00 00 
    bebe43e6:	48 01 d0             	add    %rdx,%rax
    bebe43e9:	48 8b 00             	mov    (%rax),%rax
    bebe43ec:	ff e0                	jmp    *%rax
    bebe43ee:	c7 45 fc 01 00 00 00 	movl   $0x1,-0x4(%rbp)
    bebe43f5:	e9 64 02 00 00       	jmp    bebe465e <_ZL10__vsprintfPcRPKcP13__va_list_tag+0x2f7>
    bebe43fa:	48 8b 45 d8          	mov    -0x28(%rbp),%rax
    bebe43fe:	8b 00                	mov    (%rax),%eax
    bebe4400:	83 f8 2f             	cmp    $0x2f,%eax
    bebe4403:	77 24                	ja     bebe4429 <_ZL10__vsprintfPcRPKcP13__va_list_tag+0xc2>
    bebe4405:	48 8b 45 d8          	mov    -0x28(%rbp),%rax
    bebe4409:	48 8b 50 10          	mov    0x10(%rax),%rdx
    bebe440d:	48 8b 45 d8          	mov    -0x28(%rbp),%rax
    bebe4411:	8b 00                	mov    (%rax),%eax
    bebe4413:	89 c0                	mov    %eax,%eax
    bebe4415:	48 01 d0             	add    %rdx,%rax
    bebe4418:	48 8b 55 d8          	mov    -0x28(%rbp),%rdx
    bebe441c:	8b 12                	mov    (%rdx),%edx
    bebe441e:	8d 4a 08             	lea    0x8(%rdx),%ecx
    bebe4421:	48 8b 55 d8          	mov    -0x28(%rbp),%rdx
    bebe4425:	89 0a                	mov    %ecx,(%rdx)
    bebe4427:	eb 14                	jmp    bebe443d <_ZL10__vsprintfPcRPKcP13__va_list_tag+0xd6>
    bebe4429:	48 8b 45 d8          	mov    -0x28(%rbp),%rax
    bebe442d:	48 8b 40 08          	mov    0x8(%rax),%rax
    bebe4431:	48 8d 48 08          	lea    0x8(%rax),%rcx
    bebe4435:	48 8b 55 d8          	mov    -0x28(%rbp),%rdx
    bebe4439:	48 89 4a 08          	mov    %rcx,0x8(%rdx)
    bebe443d:	8b 00                	mov    (%rax),%eax
    bebe443f:	89 c1                	mov    %eax,%ecx
    bebe4441:	48 8b 45 e8          	mov    -0x18(%rbp),%rax
    bebe4445:	48 8d 50 01          	lea    0x1(%rax),%rdx
    bebe4449:	48 89 55 e8          	mov    %rdx,-0x18(%rbp)
    bebe444d:	88 08                	mov    %cl,(%rax)
    bebe444f:	e9 0a 02 00 00       	jmp    bebe465e <_ZL10__vsprintfPcRPKcP13__va_list_tag+0x2f7>
    bebe4454:	48 8b 45 d8          	mov    -0x28(%rbp),%rax
    bebe4458:	8b 00                	mov    (%rax),%eax
    bebe445a:	83 f8 2f             	cmp    $0x2f,%eax
    bebe445d:	77 24                	ja     bebe4483 <_ZL10__vsprintfPcRPKcP13__va_list_tag+0x11c>
    bebe445f:	48 8b 45 d8          	mov    -0x28(%rbp),%rax
    bebe4463:	48 8b 50 10          	mov    0x10(%rax),%rdx
    bebe4467:	48 8b 45 d8          	mov    -0x28(%rbp),%rax
    bebe446b:	8b 00                	mov    (%rax),%eax
    bebe446d:	89 c0                	mov    %eax,%eax
    bebe446f:	48 01 d0             	add    %rdx,%rax
    bebe4472:	48 8b 55 d8          	mov    -0x28(%rbp),%rdx
    bebe4476:	8b 12                	mov    (%rdx),%edx
    bebe4478:	8d 4a 08             	lea    0x8(%rdx),%ecx
    bebe447b:	48 8b 55 d8          	mov    -0x28(%rbp),%rdx
    bebe447f:	89 0a                	mov    %ecx,(%rdx)
    bebe4481:	eb 14                	jmp    bebe4497 <_ZL10__vsprintfPcRPKcP13__va_list_tag+0x130>
    bebe4483:	48 8b 45 d8          	mov    -0x28(%rbp),%rax
    bebe4487:	48 8b 40 08          	mov    0x8(%rax),%rax
    bebe448b:	48 8d 48 08          	lea    0x8(%rax),%rcx
    bebe448f:	48 8b 55 d8          	mov    -0x28(%rbp),%rdx
    bebe4493:	48 89 4a 08          	mov    %rcx,0x8(%rdx)
    bebe4497:	48 8b 10             	mov    (%rax),%rdx
    bebe449a:	48 8b 45 e8          	mov    -0x18(%rbp),%rax
    bebe449e:	48 89 d6             	mov    %rdx,%rsi
    bebe44a1:	48 89 c7             	mov    %rax,%rdi
    bebe44a4:	48 b8 94 53 be be 00 	movabs $0xbebe5394,%rax
    bebe44ab:	00 00 00 
    bebe44ae:	ff d0                	call   *%rax
    bebe44b0:	48 89 45 e8          	mov    %rax,-0x18(%rbp)
    bebe44b4:	e9 a5 01 00 00       	jmp    bebe465e <_ZL10__vsprintfPcRPKcP13__va_list_tag+0x2f7>
    bebe44b9:	48 8b 45 d8          	mov    -0x28(%rbp),%rax
    bebe44bd:	8b 00                	mov    (%rax),%eax
    bebe44bf:	83 f8 2f             	cmp    $0x2f,%eax
    bebe44c2:	77 24                	ja     bebe44e8 <_ZL10__vsprintfPcRPKcP13__va_list_tag+0x181>
    bebe44c4:	48 8b 45 d8          	mov    -0x28(%rbp),%rax
    bebe44c8:	48 8b 50 10          	mov    0x10(%rax),%rdx
    bebe44cc:	48 8b 45 d8          	mov    -0x28(%rbp),%rax
    bebe44d0:	8b 00                	mov    (%rax),%eax
    bebe44d2:	89 c0                	mov    %eax,%eax
    bebe44d4:	48 01 d0             	add    %rdx,%rax
    bebe44d7:	48 8b 55 d8          	mov    -0x28(%rbp),%rdx
    bebe44db:	8b 12                	mov    (%rdx),%edx
    bebe44dd:	8d 4a 08             	lea    0x8(%rdx),%ecx
    bebe44e0:	48 8b 55 d8          	mov    -0x28(%rbp),%rdx
    bebe44e4:	89 0a                	mov    %ecx,(%rdx)
    bebe44e6:	eb 14                	jmp    bebe44fc <_ZL10__vsprintfPcRPKcP13__va_list_tag+0x195>
    bebe44e8:	48 8b 45 d8          	mov    -0x28(%rbp),%rax
    bebe44ec:	48 8b 40 08          	mov    0x8(%rax),%rax
    bebe44f0:	48 8d 48 08          	lea    0x8(%rax),%rcx
    bebe44f4:	48 8b 55 d8          	mov    -0x28(%rbp),%rdx
    bebe44f8:	48 89 4a 08          	mov    %rcx,0x8(%rdx)
    bebe44fc:	8b 00                	mov    (%rax),%eax
    bebe44fe:	48 8b 4d e8          	mov    -0x18(%rbp),%rcx
    bebe4502:	ba 0a 00 00 00       	mov    $0xa,%edx
    bebe4507:	48 89 ce             	mov    %rcx,%rsi
    bebe450a:	89 c7                	mov    %eax,%edi
    bebe450c:	48 b8 b6 4e be be 00 	movabs $0xbebe4eb6,%rax
    bebe4513:	00 00 00 
    bebe4516:	ff d0                	call   *%rax
    bebe4518:	48 89 45 e8          	mov    %rax,-0x18(%rbp)
    bebe451c:	e9 3d 01 00 00       	jmp    bebe465e <_ZL10__vsprintfPcRPKcP13__va_list_tag+0x2f7>
    bebe4521:	48 8b 45 d8          	mov    -0x28(%rbp),%rax
    bebe4525:	8b 00                	mov    (%rax),%eax
    bebe4527:	83 f8 2f             	cmp    $0x2f,%eax
    bebe452a:	77 24                	ja     bebe4550 <_ZL10__vsprintfPcRPKcP13__va_list_tag+0x1e9>
    bebe452c:	48 8b 45 d8          	mov    -0x28(%rbp),%rax
    bebe4530:	48 8b 50 10          	mov    0x10(%rax),%rdx
    bebe4534:	48 8b 45 d8          	mov    -0x28(%rbp),%rax
    bebe4538:	8b 00                	mov    (%rax),%eax
    bebe453a:	89 c0                	mov    %eax,%eax
    bebe453c:	48 01 d0             	add    %rdx,%rax
    bebe453f:	48 8b 55 d8          	mov    -0x28(%rbp),%rdx
    bebe4543:	8b 12                	mov    (%rdx),%edx
    bebe4545:	8d 4a 08             	lea    0x8(%rdx),%ecx
    bebe4548:	48 8b 55 d8          	mov    -0x28(%rbp),%rdx
    bebe454c:	89 0a                	mov    %ecx,(%rdx)
    bebe454e:	eb 14                	jmp    bebe4564 <_ZL10__vsprintfPcRPKcP13__va_list_tag+0x1fd>
    bebe4550:	48 8b 45 d8          	mov    -0x28(%rbp),%rax
    bebe4554:	48 8b 40 08          	mov    0x8(%rax),%rax
    bebe4558:	48 8d 48 08          	lea    0x8(%rax),%rcx
    bebe455c:	48 8b 55 d8          	mov    -0x28(%rbp),%rdx
    bebe4560:	48 89 4a 08          	mov    %rcx,0x8(%rdx)
    bebe4564:	8b 00                	mov    (%rax),%eax
    bebe4566:	48 8b 4d e8          	mov    -0x18(%rbp),%rcx
    bebe456a:	ba 0a 00 00 00       	mov    $0xa,%edx
    bebe456f:	48 89 ce             	mov    %rcx,%rsi
    bebe4572:	89 c7                	mov    %eax,%edi
    bebe4574:	48 b8 be 4f be be 00 	movabs $0xbebe4fbe,%rax
    bebe457b:	00 00 00 
    bebe457e:	ff d0                	call   *%rax
    bebe4580:	48 89 45 e8          	mov    %rax,-0x18(%rbp)
    bebe4584:	e9 d5 00 00 00       	jmp    bebe465e <_ZL10__vsprintfPcRPKcP13__va_list_tag+0x2f7>
    bebe4589:	48 8b 45 d8          	mov    -0x28(%rbp),%rax
    bebe458d:	8b 00                	mov    (%rax),%eax
    bebe458f:	83 f8 2f             	cmp    $0x2f,%eax
    bebe4592:	77 24                	ja     bebe45b8 <_ZL10__vsprintfPcRPKcP13__va_list_tag+0x251>
    bebe4594:	48 8b 45 d8          	mov    -0x28(%rbp),%rax
    bebe4598:	48 8b 50 10          	mov    0x10(%rax),%rdx
    bebe459c:	48 8b 45 d8          	mov    -0x28(%rbp),%rax
    bebe45a0:	8b 00                	mov    (%rax),%eax
    bebe45a2:	89 c0                	mov    %eax,%eax
    bebe45a4:	48 01 d0             	add    %rdx,%rax
    bebe45a7:	48 8b 55 d8          	mov    -0x28(%rbp),%rdx
    bebe45ab:	8b 12                	mov    (%rdx),%edx
    bebe45ad:	8d 4a 08             	lea    0x8(%rdx),%ecx
    bebe45b0:	48 8b 55 d8          	mov    -0x28(%rbp),%rdx
    bebe45b4:	89 0a                	mov    %ecx,(%rdx)
    bebe45b6:	eb 14                	jmp    bebe45cc <_ZL10__vsprintfPcRPKcP13__va_list_tag+0x265>
    bebe45b8:	48 8b 45 d8          	mov    -0x28(%rbp),%rax
    bebe45bc:	48 8b 40 08          	mov    0x8(%rax),%rax
    bebe45c0:	48 8d 48 08          	lea    0x8(%rax),%rcx
    bebe45c4:	48 8b 55 d8          	mov    -0x28(%rbp),%rdx
    bebe45c8:	48 89 4a 08          	mov    %rcx,0x8(%rdx)
    bebe45cc:	8b 00                	mov    (%rax),%eax
    bebe45ce:	89 c1                	mov    %eax,%ecx
    bebe45d0:	48 8b 45 e8          	mov    -0x18(%rbp),%rax
    bebe45d4:	ba 10 00 00 00       	mov    $0x10,%edx
    bebe45d9:	48 89 c6             	mov    %rax,%rsi
    bebe45dc:	48 89 cf             	mov    %rcx,%rdi
    bebe45df:	48 b8 f1 4d be be 00 	movabs $0xbebe4df1,%rax
    bebe45e6:	00 00 00 
    bebe45e9:	ff d0                	call   *%rax
    bebe45eb:	48 89 45 e8          	mov    %rax,-0x18(%rbp)
    bebe45ef:	eb 6d                	jmp    bebe465e <_ZL10__vsprintfPcRPKcP13__va_list_tag+0x2f7>
    bebe45f1:	48 8b 55 d8          	mov    -0x28(%rbp),%rdx
    bebe45f5:	48 8b 4d e0          	mov    -0x20(%rbp),%rcx
    bebe45f9:	48 8b 45 e8          	mov    -0x18(%rbp),%rax
    bebe45fd:	48 89 ce             	mov    %rcx,%rsi
    bebe4600:	48 89 c7             	mov    %rax,%rdi
    bebe4603:	48 b8 02 42 be be 00 	movabs $0xbebe4202,%rax
    bebe460a:	00 00 00 
    bebe460d:	ff d0                	call   *%rax
    bebe460f:	48 89 45 e8          	mov    %rax,-0x18(%rbp)
    bebe4613:	eb 49                	jmp    bebe465e <_ZL10__vsprintfPcRPKcP13__va_list_tag+0x2f7>
    bebe4615:	48 8b 55 d8          	mov    -0x28(%rbp),%rdx
    bebe4619:	48 8b 4d e0          	mov    -0x20(%rbp),%rcx
    bebe461d:	48 8b 45 e8          	mov    -0x18(%rbp),%rax
    bebe4621:	48 89 ce             	mov    %rcx,%rsi
    bebe4624:	48 89 c7             	mov    %rax,%rdi
    bebe4627:	48 b8 02 42 be be 00 	movabs $0xbebe4202,%rax
    bebe462e:	00 00 00 
    bebe4631:	ff d0                	call   *%rax
    bebe4633:	48 89 45 e8          	mov    %rax,-0x18(%rbp)
    bebe4637:	eb 25                	jmp    bebe465e <_ZL10__vsprintfPcRPKcP13__va_list_tag+0x2f7>
    bebe4639:	48 8b 55 d8          	mov    -0x28(%rbp),%rdx
    bebe463d:	48 8b 4d e0          	mov    -0x20(%rbp),%rcx
    bebe4641:	48 8b 45 e8          	mov    -0x18(%rbp),%rax
    bebe4645:	48 89 ce             	mov    %rcx,%rsi
    bebe4648:	48 89 c7             	mov    %rax,%rdi
    bebe464b:	48 b8 02 42 be be 00 	movabs $0xbebe4202,%rax
    bebe4652:	00 00 00 
    bebe4655:	ff d0                	call   *%rax
    bebe4657:	48 89 45 e8          	mov    %rax,-0x18(%rbp)
    bebe465b:	eb 01                	jmp    bebe465e <_ZL10__vsprintfPcRPKcP13__va_list_tag+0x2f7>
    bebe465d:	90                   	nop
    bebe465e:	83 7d fc 00          	cmpl   $0x0,-0x4(%rbp)
    bebe4662:	0f 84 22 02 00 00    	je     bebe488a <_ZL10__vsprintfPcRPKcP13__va_list_tag+0x523>
    bebe4668:	48 8b 45 e0          	mov    -0x20(%rbp),%rax
    bebe466c:	48 8b 00             	mov    (%rax),%rax
    bebe466f:	48 8d 50 01          	lea    0x1(%rax),%rdx
    bebe4673:	48 8b 45 e0          	mov    -0x20(%rbp),%rax
    bebe4677:	48 89 10             	mov    %rdx,(%rax)
    bebe467a:	48 8b 45 e0          	mov    -0x20(%rbp),%rax
    bebe467e:	48 8b 00             	mov    (%rax),%rax
    bebe4681:	0f b6 00             	movzbl (%rax),%eax
    bebe4684:	0f be c0             	movsbl %al,%eax
    bebe4687:	83 f8 78             	cmp    $0x78,%eax
    bebe468a:	0f 84 26 01 00 00    	je     bebe47b6 <_ZL10__vsprintfPcRPKcP13__va_list_tag+0x44f>
    bebe4690:	83 f8 78             	cmp    $0x78,%eax
    bebe4693:	0f 8f f0 01 00 00    	jg     bebe4889 <_ZL10__vsprintfPcRPKcP13__va_list_tag+0x522>
    bebe4699:	83 f8 75             	cmp    $0x75,%eax
    bebe469c:	0f 84 aa 00 00 00    	je     bebe474c <_ZL10__vsprintfPcRPKcP13__va_list_tag+0x3e5>
    bebe46a2:	83 f8 75             	cmp    $0x75,%eax
    bebe46a5:	0f 8f de 01 00 00    	jg     bebe4889 <_ZL10__vsprintfPcRPKcP13__va_list_tag+0x522>
    bebe46ab:	83 f8 66             	cmp    $0x66,%eax
    bebe46ae:	0f 84 b1 01 00 00    	je     bebe4865 <_ZL10__vsprintfPcRPKcP13__va_list_tag+0x4fe>
    bebe46b4:	83 f8 66             	cmp    $0x66,%eax
    bebe46b7:	0f 8f cc 01 00 00    	jg     bebe4889 <_ZL10__vsprintfPcRPKcP13__va_list_tag+0x522>
    bebe46bd:	83 f8 64             	cmp    $0x64,%eax
    bebe46c0:	74 20                	je     bebe46e2 <_ZL10__vsprintfPcRPKcP13__va_list_tag+0x37b>
    bebe46c2:	83 f8 64             	cmp    $0x64,%eax
    bebe46c5:	0f 8f be 01 00 00    	jg     bebe4889 <_ZL10__vsprintfPcRPKcP13__va_list_tag+0x522>
    bebe46cb:	83 f8 2e             	cmp    $0x2e,%eax
    bebe46ce:	0f 84 6d 01 00 00    	je     bebe4841 <_ZL10__vsprintfPcRPKcP13__va_list_tag+0x4da>
    bebe46d4:	83 f8 30             	cmp    $0x30,%eax
    bebe46d7:	0f 84 40 01 00 00    	je     bebe481d <_ZL10__vsprintfPcRPKcP13__va_list_tag+0x4b6>
    bebe46dd:	e9 a7 01 00 00       	jmp    bebe4889 <_ZL10__vsprintfPcRPKcP13__va_list_tag+0x522>
    bebe46e2:	48 8b 45 d8          	mov    -0x28(%rbp),%rax
    bebe46e6:	8b 00                	mov    (%rax),%eax
    bebe46e8:	83 f8 2f             	cmp    $0x2f,%eax
    bebe46eb:	77 24                	ja     bebe4711 <_ZL10__vsprintfPcRPKcP13__va_list_tag+0x3aa>
    bebe46ed:	48 8b 45 d8          	mov    -0x28(%rbp),%rax
    bebe46f1:	48 8b 50 10          	mov    0x10(%rax),%rdx
    bebe46f5:	48 8b 45 d8          	mov    -0x28(%rbp),%rax
    bebe46f9:	8b 00                	mov    (%rax),%eax
    bebe46fb:	89 c0                	mov    %eax,%eax
    bebe46fd:	48 01 d0             	add    %rdx,%rax
    bebe4700:	48 8b 55 d8          	mov    -0x28(%rbp),%rdx
    bebe4704:	8b 12                	mov    (%rdx),%edx
    bebe4706:	8d 4a 08             	lea    0x8(%rdx),%ecx
    bebe4709:	48 8b 55 d8          	mov    -0x28(%rbp),%rdx
    bebe470d:	89 0a                	mov    %ecx,(%rdx)
    bebe470f:	eb 14                	jmp    bebe4725 <_ZL10__vsprintfPcRPKcP13__va_list_tag+0x3be>
    bebe4711:	48 8b 45 d8          	mov    -0x28(%rbp),%rax
    bebe4715:	48 8b 40 08          	mov    0x8(%rax),%rax
    bebe4719:	48 8d 48 08          	lea    0x8(%rax),%rcx
    bebe471d:	48 8b 55 d8          	mov    -0x28(%rbp),%rdx
    bebe4721:	48 89 4a 08          	mov    %rcx,0x8(%rdx)
    bebe4725:	48 8b 00             	mov    (%rax),%rax
    bebe4728:	48 8b 4d e8          	mov    -0x18(%rbp),%rcx
    bebe472c:	ba 0a 00 00 00       	mov    $0xa,%edx
    bebe4731:	48 89 ce             	mov    %rcx,%rsi
    bebe4734:	48 89 c7             	mov    %rax,%rdi
    bebe4737:	48 b8 da 4c be be 00 	movabs $0xbebe4cda,%rax
    bebe473e:	00 00 00 
    bebe4741:	ff d0                	call   *%rax
    bebe4743:	48 89 45 e8          	mov    %rax,-0x18(%rbp)
    bebe4747:	e9 3e 01 00 00       	jmp    bebe488a <_ZL10__vsprintfPcRPKcP13__va_list_tag+0x523>
    bebe474c:	48 8b 45 d8          	mov    -0x28(%rbp),%rax
    bebe4750:	8b 00                	mov    (%rax),%eax
    bebe4752:	83 f8 2f             	cmp    $0x2f,%eax
    bebe4755:	77 24                	ja     bebe477b <_ZL10__vsprintfPcRPKcP13__va_list_tag+0x414>
    bebe4757:	48 8b 45 d8          	mov    -0x28(%rbp),%rax
    bebe475b:	48 8b 50 10          	mov    0x10(%rax),%rdx
    bebe475f:	48 8b 45 d8          	mov    -0x28(%rbp),%rax
    bebe4763:	8b 00                	mov    (%rax),%eax
    bebe4765:	89 c0                	mov    %eax,%eax
    bebe4767:	48 01 d0             	add    %rdx,%rax
    bebe476a:	48 8b 55 d8          	mov    -0x28(%rbp),%rdx
    bebe476e:	8b 12                	mov    (%rdx),%edx
    bebe4770:	8d 4a 08             	lea    0x8(%rdx),%ecx
    bebe4773:	48 8b 55 d8          	mov    -0x28(%rbp),%rdx
    bebe4777:	89 0a                	mov    %ecx,(%rdx)
    bebe4779:	eb 14                	jmp    bebe478f <_ZL10__vsprintfPcRPKcP13__va_list_tag+0x428>
    bebe477b:	48 8b 45 d8          	mov    -0x28(%rbp),%rax
    bebe477f:	48 8b 40 08          	mov    0x8(%rax),%rax
    bebe4783:	48 8d 48 08          	lea    0x8(%rax),%rcx
    bebe4787:	48 8b 55 d8          	mov    -0x28(%rbp),%rdx
    bebe478b:	48 89 4a 08          	mov    %rcx,0x8(%rdx)
    bebe478f:	48 8b 00             	mov    (%rax),%rax
    bebe4792:	48 8b 4d e8          	mov    -0x18(%rbp),%rcx
    bebe4796:	ba 0a 00 00 00       	mov    $0xa,%edx
    bebe479b:	48 89 ce             	mov    %rcx,%rsi
    bebe479e:	48 89 c7             	mov    %rax,%rdi
    bebe47a1:	48 b8 f1 4d be be 00 	movabs $0xbebe4df1,%rax
    bebe47a8:	00 00 00 
    bebe47ab:	ff d0                	call   *%rax
    bebe47ad:	48 89 45 e8          	mov    %rax,-0x18(%rbp)
    bebe47b1:	e9 d4 00 00 00       	jmp    bebe488a <_ZL10__vsprintfPcRPKcP13__va_list_tag+0x523>
    bebe47b6:	48 8b 45 d8          	mov    -0x28(%rbp),%rax
    bebe47ba:	8b 00                	mov    (%rax),%eax
    bebe47bc:	83 f8 2f             	cmp    $0x2f,%eax
    bebe47bf:	77 24                	ja     bebe47e5 <_ZL10__vsprintfPcRPKcP13__va_list_tag+0x47e>
    bebe47c1:	48 8b 45 d8          	mov    -0x28(%rbp),%rax
    bebe47c5:	48 8b 50 10          	mov    0x10(%rax),%rdx
    bebe47c9:	48 8b 45 d8          	mov    -0x28(%rbp),%rax
    bebe47cd:	8b 00                	mov    (%rax),%eax
    bebe47cf:	89 c0                	mov    %eax,%eax
    bebe47d1:	48 01 d0             	add    %rdx,%rax
    bebe47d4:	48 8b 55 d8          	mov    -0x28(%rbp),%rdx
    bebe47d8:	8b 12                	mov    (%rdx),%edx
    bebe47da:	8d 4a 08             	lea    0x8(%rdx),%ecx
    bebe47dd:	48 8b 55 d8          	mov    -0x28(%rbp),%rdx
    bebe47e1:	89 0a                	mov    %ecx,(%rdx)
    bebe47e3:	eb 14                	jmp    bebe47f9 <_ZL10__vsprintfPcRPKcP13__va_list_tag+0x492>
    bebe47e5:	48 8b 45 d8          	mov    -0x28(%rbp),%rax
    bebe47e9:	48 8b 40 08          	mov    0x8(%rax),%rax
    bebe47ed:	48 8d 48 08          	lea    0x8(%rax),%rcx
    bebe47f1:	48 8b 55 d8          	mov    -0x28(%rbp),%rdx
    bebe47f5:	48 89 4a 08          	mov    %rcx,0x8(%rdx)
    bebe47f9:	48 8b 00             	mov    (%rax),%rax
    bebe47fc:	48 8b 4d e8          	mov    -0x18(%rbp),%rcx
    bebe4800:	ba 10 00 00 00       	mov    $0x10,%edx
    bebe4805:	48 89 ce             	mov    %rcx,%rsi
    bebe4808:	48 89 c7             	mov    %rax,%rdi
    bebe480b:	48 b8 f1 4d be be 00 	movabs $0xbebe4df1,%rax
    bebe4812:	00 00 00 
    bebe4815:	ff d0                	call   *%rax
    bebe4817:	48 89 45 e8          	mov    %rax,-0x18(%rbp)
    bebe481b:	eb 6d                	jmp    bebe488a <_ZL10__vsprintfPcRPKcP13__va_list_tag+0x523>
    bebe481d:	48 8b 55 d8          	mov    -0x28(%rbp),%rdx
    bebe4821:	48 8b 4d e0          	mov    -0x20(%rbp),%rcx
    bebe4825:	48 8b 45 e8          	mov    -0x18(%rbp),%rax
    bebe4829:	48 89 ce             	mov    %rcx,%rsi
    bebe482c:	48 89 c7             	mov    %rax,%rdi
    bebe482f:	48 b8 02 42 be be 00 	movabs $0xbebe4202,%rax
    bebe4836:	00 00 00 
    bebe4839:	ff d0                	call   *%rax
    bebe483b:	48 89 45 e8          	mov    %rax,-0x18(%rbp)
    bebe483f:	eb 49                	jmp    bebe488a <_ZL10__vsprintfPcRPKcP13__va_list_tag+0x523>
    bebe4841:	48 8b 55 d8          	mov    -0x28(%rbp),%rdx
    bebe4845:	48 8b 4d e0          	mov    -0x20(%rbp),%rcx
    bebe4849:	48 8b 45 e8          	mov    -0x18(%rbp),%rax
    bebe484d:	48 89 ce             	mov    %rcx,%rsi
    bebe4850:	48 89 c7             	mov    %rax,%rdi
    bebe4853:	48 b8 02 42 be be 00 	movabs $0xbebe4202,%rax
    bebe485a:	00 00 00 
    bebe485d:	ff d0                	call   *%rax
    bebe485f:	48 89 45 e8          	mov    %rax,-0x18(%rbp)
    bebe4863:	eb 25                	jmp    bebe488a <_ZL10__vsprintfPcRPKcP13__va_list_tag+0x523>
    bebe4865:	48 8b 55 d8          	mov    -0x28(%rbp),%rdx
    bebe4869:	48 8b 4d e0          	mov    -0x20(%rbp),%rcx
    bebe486d:	48 8b 45 e8          	mov    -0x18(%rbp),%rax
    bebe4871:	48 89 ce             	mov    %rcx,%rsi
    bebe4874:	48 89 c7             	mov    %rax,%rdi
    bebe4877:	48 b8 02 42 be be 00 	movabs $0xbebe4202,%rax
    bebe487e:	00 00 00 
    bebe4881:	ff d0                	call   *%rax
    bebe4883:	48 89 45 e8          	mov    %rax,-0x18(%rbp)
    bebe4887:	eb 01                	jmp    bebe488a <_ZL10__vsprintfPcRPKcP13__va_list_tag+0x523>
    bebe4889:	90                   	nop
    bebe488a:	48 8b 45 e8          	mov    -0x18(%rbp),%rax
    bebe488e:	c9                   	leave
    bebe488f:	c3                   	ret

00000000bebe4890 <vprintf>:
    bebe4890:	55                   	push   %rbp
    bebe4891:	48 89 e5             	mov    %rsp,%rbp
    bebe4894:	48 83 ec 10          	sub    $0x10,%rsp
    bebe4898:	48 89 7d f8          	mov    %rdi,-0x8(%rbp)
    bebe489c:	48 89 75 f0          	mov    %rsi,-0x10(%rbp)
    bebe48a0:	48 b8 a0 67 be be 00 	movabs $0xbebe67a0,%rax
    bebe48a7:	00 00 00 
    bebe48aa:	48 8b 00             	mov    (%rax),%rax
    bebe48ad:	48 8b 55 f0          	mov    -0x10(%rbp),%rdx
    bebe48b1:	48 8b 4d f8          	mov    -0x8(%rbp),%rcx
    bebe48b5:	48 89 ce             	mov    %rcx,%rsi
    bebe48b8:	48 89 c7             	mov    %rax,%rdi
    bebe48bb:	48 b8 c9 48 be be 00 	movabs $0xbebe48c9,%rax
    bebe48c2:	00 00 00 
    bebe48c5:	ff d0                	call   *%rax
    bebe48c7:	c9                   	leave
    bebe48c8:	c3                   	ret

00000000bebe48c9 <vfprintf>:
    bebe48c9:	55                   	push   %rbp
    bebe48ca:	48 89 e5             	mov    %rsp,%rbp
    bebe48cd:	48 83 ec 30          	sub    $0x30,%rsp
    bebe48d1:	48 89 7d e8          	mov    %rdi,-0x18(%rbp)
    bebe48d5:	48 89 75 e0          	mov    %rsi,-0x20(%rbp)
    bebe48d9:	48 89 55 d8          	mov    %rdx,-0x28(%rbp)
    bebe48dd:	48 8b 45 e8          	mov    -0x18(%rbp),%rax
    bebe48e1:	48 05 b0 00 00 00    	add    $0xb0,%rax
    bebe48e7:	48 89 45 f8          	mov    %rax,-0x8(%rbp)
    bebe48eb:	48 8b 45 f8          	mov    -0x8(%rbp),%rax
    bebe48ef:	48 8b 40 20          	mov    0x20(%rax),%rax
    bebe48f3:	48 8b 55 d8          	mov    -0x28(%rbp),%rdx
    bebe48f7:	48 8b 4d e0          	mov    -0x20(%rbp),%rcx
    bebe48fb:	48 89 ce             	mov    %rcx,%rsi
    bebe48fe:	48 89 c7             	mov    %rax,%rdi
    bebe4901:	48 b8 4c 49 be be 00 	movabs $0xbebe494c,%rax
    bebe4908:	00 00 00 
    bebe490b:	ff d0                	call   *%rax
    bebe490d:	89 45 f4             	mov    %eax,-0xc(%rbp)
    bebe4910:	48 8b 45 f8          	mov    -0x8(%rbp),%rax
    bebe4914:	48 8b 50 20          	mov    0x20(%rax),%rdx
    bebe4918:	8b 45 f4             	mov    -0xc(%rbp),%eax
    bebe491b:	48 98                	cltq
    bebe491d:	48 01 c2             	add    %rax,%rdx
    bebe4920:	48 8b 45 f8          	mov    -0x8(%rbp),%rax
    bebe4924:	48 89 50 20          	mov    %rdx,0x20(%rax)
    bebe4928:	48 8b 45 f8          	mov    -0x8(%rbp),%rax
    bebe492c:	48 89 c7             	mov    %rax,%rdi
    bebe492f:	48 b8 0e 33 be be 00 	movabs $0xbebe330e,%rax
    bebe4936:	00 00 00 
    bebe4939:	ff d0                	call   *%rax
    bebe493b:	48 b8 72 37 be be 00 	movabs $0xbebe3772,%rax
    bebe4942:	00 00 00 
    bebe4945:	ff d0                	call   *%rax
    bebe4947:	8b 45 f4             	mov    -0xc(%rbp),%eax
    bebe494a:	c9                   	leave
    bebe494b:	c3                   	ret

00000000bebe494c <vsprintf>:
    bebe494c:	55                   	push   %rbp
    bebe494d:	48 89 e5             	mov    %rsp,%rbp
    bebe4950:	48 83 ec 30          	sub    $0x30,%rsp
    bebe4954:	48 89 7d e8          	mov    %rdi,-0x18(%rbp)
    bebe4958:	48 89 75 e0          	mov    %rsi,-0x20(%rbp)
    bebe495c:	48 89 55 d8          	mov    %rdx,-0x28(%rbp)
    bebe4960:	48 8b 45 e8          	mov    -0x18(%rbp),%rax
    bebe4964:	48 89 45 f8          	mov    %rax,-0x8(%rbp)
    bebe4968:	eb 50                	jmp    bebe49ba <vsprintf+0x6e>
    bebe496a:	48 8b 45 e0          	mov    -0x20(%rbp),%rax
    bebe496e:	0f b6 00             	movzbl (%rax),%eax
    bebe4971:	3c 25                	cmp    $0x25,%al
    bebe4973:	75 24                	jne    bebe4999 <vsprintf+0x4d>
    bebe4975:	48 8b 55 d8          	mov    -0x28(%rbp),%rdx
    bebe4979:	48 8d 4d e0          	lea    -0x20(%rbp),%rcx
    bebe497d:	48 8b 45 e8          	mov    -0x18(%rbp),%rax
    bebe4981:	48 89 ce             	mov    %rcx,%rsi
    bebe4984:	48 89 c7             	mov    %rax,%rdi
    bebe4987:	48 b8 67 43 be be 00 	movabs $0xbebe4367,%rax
    bebe498e:	00 00 00 
    bebe4991:	ff d0                	call   *%rax
    bebe4993:	48 89 45 e8          	mov    %rax,-0x18(%rbp)
    bebe4997:	eb 15                	jmp    bebe49ae <vsprintf+0x62>
    bebe4999:	48 8b 45 e0          	mov    -0x20(%rbp),%rax
    bebe499d:	0f b6 10             	movzbl (%rax),%edx
    bebe49a0:	48 8b 45 e8          	mov    -0x18(%rbp),%rax
    bebe49a4:	48 8d 48 01          	lea    0x1(%rax),%rcx
    bebe49a8:	48 89 4d e8          	mov    %rcx,-0x18(%rbp)
    bebe49ac:	88 10                	mov    %dl,(%rax)
    bebe49ae:	48 8b 45 e0          	mov    -0x20(%rbp),%rax
    bebe49b2:	48 83 c0 01          	add    $0x1,%rax
    bebe49b6:	48 89 45 e0          	mov    %rax,-0x20(%rbp)
    bebe49ba:	48 8b 45 e0          	mov    -0x20(%rbp),%rax
    bebe49be:	0f b6 00             	movzbl (%rax),%eax
    bebe49c1:	84 c0                	test   %al,%al
    bebe49c3:	75 a5                	jne    bebe496a <vsprintf+0x1e>
    bebe49c5:	48 8b 45 e8          	mov    -0x18(%rbp),%rax
    bebe49c9:	48 2b 45 f8          	sub    -0x8(%rbp),%rax
    bebe49cd:	c9                   	leave
    bebe49ce:	c3                   	ret

00000000bebe49cf <printf>:
    bebe49cf:	55                   	push   %rbp
    bebe49d0:	48 89 e5             	mov    %rsp,%rbp
    bebe49d3:	48 81 ec e0 00 00 00 	sub    $0xe0,%rsp
    bebe49da:	48 89 bd 28 ff ff ff 	mov    %rdi,-0xd8(%rbp)
    bebe49e1:	48 89 b5 58 ff ff ff 	mov    %rsi,-0xa8(%rbp)
    bebe49e8:	48 89 95 60 ff ff ff 	mov    %rdx,-0xa0(%rbp)
    bebe49ef:	48 89 8d 68 ff ff ff 	mov    %rcx,-0x98(%rbp)
    bebe49f6:	4c 89 85 70 ff ff ff 	mov    %r8,-0x90(%rbp)
    bebe49fd:	4c 89 8d 78 ff ff ff 	mov    %r9,-0x88(%rbp)
    bebe4a04:	84 c0                	test   %al,%al
    bebe4a06:	74 20                	je     bebe4a28 <printf+0x59>
    bebe4a08:	0f 29 45 80          	movaps %xmm0,-0x80(%rbp)
    bebe4a0c:	0f 29 4d 90          	movaps %xmm1,-0x70(%rbp)
    bebe4a10:	0f 29 55 a0          	movaps %xmm2,-0x60(%rbp)
    bebe4a14:	0f 29 5d b0          	movaps %xmm3,-0x50(%rbp)
    bebe4a18:	0f 29 65 c0          	movaps %xmm4,-0x40(%rbp)
    bebe4a1c:	0f 29 6d d0          	movaps %xmm5,-0x30(%rbp)
    bebe4a20:	0f 29 75 e0          	movaps %xmm6,-0x20(%rbp)
    bebe4a24:	0f 29 7d f0          	movaps %xmm7,-0x10(%rbp)
    bebe4a28:	c7 85 30 ff ff ff 08 	movl   $0x8,-0xd0(%rbp)
    bebe4a2f:	00 00 00 
    bebe4a32:	c7 85 34 ff ff ff 30 	movl   $0x30,-0xcc(%rbp)
    bebe4a39:	00 00 00 
    bebe4a3c:	48 8d 45 10          	lea    0x10(%rbp),%rax
    bebe4a40:	48 89 85 38 ff ff ff 	mov    %rax,-0xc8(%rbp)
    bebe4a47:	48 8d 85 50 ff ff ff 	lea    -0xb0(%rbp),%rax
    bebe4a4e:	48 89 85 40 ff ff ff 	mov    %rax,-0xc0(%rbp)
    bebe4a55:	48 8d 95 30 ff ff ff 	lea    -0xd0(%rbp),%rdx
    bebe4a5c:	48 8b 85 28 ff ff ff 	mov    -0xd8(%rbp),%rax
    bebe4a63:	48 89 d6             	mov    %rdx,%rsi
    bebe4a66:	48 89 c7             	mov    %rax,%rdi
    bebe4a69:	48 b8 90 48 be be 00 	movabs $0xbebe4890,%rax
    bebe4a70:	00 00 00 
    bebe4a73:	ff d0                	call   *%rax
    bebe4a75:	89 85 4c ff ff ff    	mov    %eax,-0xb4(%rbp)
    bebe4a7b:	8b 85 4c ff ff ff    	mov    -0xb4(%rbp),%eax
    bebe4a81:	c9                   	leave
    bebe4a82:	c3                   	ret

00000000bebe4a83 <fprintf>:
    bebe4a83:	55                   	push   %rbp
    bebe4a84:	48 89 e5             	mov    %rsp,%rbp
    bebe4a87:	48 81 ec e0 00 00 00 	sub    $0xe0,%rsp
    bebe4a8e:	48 89 bd 28 ff ff ff 	mov    %rdi,-0xd8(%rbp)
    bebe4a95:	48 89 b5 20 ff ff ff 	mov    %rsi,-0xe0(%rbp)
    bebe4a9c:	48 89 95 60 ff ff ff 	mov    %rdx,-0xa0(%rbp)
    bebe4aa3:	48 89 8d 68 ff ff ff 	mov    %rcx,-0x98(%rbp)
    bebe4aaa:	4c 89 85 70 ff ff ff 	mov    %r8,-0x90(%rbp)
    bebe4ab1:	4c 89 8d 78 ff ff ff 	mov    %r9,-0x88(%rbp)
    bebe4ab8:	84 c0                	test   %al,%al
    bebe4aba:	74 20                	je     bebe4adc <fprintf+0x59>
    bebe4abc:	0f 29 45 80          	movaps %xmm0,-0x80(%rbp)
    bebe4ac0:	0f 29 4d 90          	movaps %xmm1,-0x70(%rbp)
    bebe4ac4:	0f 29 55 a0          	movaps %xmm2,-0x60(%rbp)
    bebe4ac8:	0f 29 5d b0          	movaps %xmm3,-0x50(%rbp)
    bebe4acc:	0f 29 65 c0          	movaps %xmm4,-0x40(%rbp)
    bebe4ad0:	0f 29 6d d0          	movaps %xmm5,-0x30(%rbp)
    bebe4ad4:	0f 29 75 e0          	movaps %xmm6,-0x20(%rbp)
    bebe4ad8:	0f 29 7d f0          	movaps %xmm7,-0x10(%rbp)
    bebe4adc:	c7 85 30 ff ff ff 10 	movl   $0x10,-0xd0(%rbp)
    bebe4ae3:	00 00 00 
    bebe4ae6:	c7 85 34 ff ff ff 30 	movl   $0x30,-0xcc(%rbp)
    bebe4aed:	00 00 00 
    bebe4af0:	48 8d 45 10          	lea    0x10(%rbp),%rax
    bebe4af4:	48 89 85 38 ff ff ff 	mov    %rax,-0xc8(%rbp)
    bebe4afb:	48 8d 85 50 ff ff ff 	lea    -0xb0(%rbp),%rax
    bebe4b02:	48 89 85 40 ff ff ff 	mov    %rax,-0xc0(%rbp)
    bebe4b09:	48 8d 95 30 ff ff ff 	lea    -0xd0(%rbp),%rdx
    bebe4b10:	48 8b 8d 20 ff ff ff 	mov    -0xe0(%rbp),%rcx
    bebe4b17:	48 8b 85 28 ff ff ff 	mov    -0xd8(%rbp),%rax
    bebe4b1e:	48 89 ce             	mov    %rcx,%rsi
    bebe4b21:	48 89 c7             	mov    %rax,%rdi
    bebe4b24:	48 b8 c9 48 be be 00 	movabs $0xbebe48c9,%rax
    bebe4b2b:	00 00 00 
    bebe4b2e:	ff d0                	call   *%rax
    bebe4b30:	89 85 4c ff ff ff    	mov    %eax,-0xb4(%rbp)
    bebe4b36:	8b 85 4c ff ff ff    	mov    -0xb4(%rbp),%eax
    bebe4b3c:	c9                   	leave
    bebe4b3d:	c3                   	ret

00000000bebe4b3e <sprintf>:
    bebe4b3e:	55                   	push   %rbp
    bebe4b3f:	48 89 e5             	mov    %rsp,%rbp
    bebe4b42:	48 81 ec e0 00 00 00 	sub    $0xe0,%rsp
    bebe4b49:	48 89 bd 28 ff ff ff 	mov    %rdi,-0xd8(%rbp)
    bebe4b50:	48 89 b5 20 ff ff ff 	mov    %rsi,-0xe0(%rbp)
    bebe4b57:	48 89 95 60 ff ff ff 	mov    %rdx,-0xa0(%rbp)
    bebe4b5e:	48 89 8d 68 ff ff ff 	mov    %rcx,-0x98(%rbp)
    bebe4b65:	4c 89 85 70 ff ff ff 	mov    %r8,-0x90(%rbp)
    bebe4b6c:	4c 89 8d 78 ff ff ff 	mov    %r9,-0x88(%rbp)
    bebe4b73:	84 c0                	test   %al,%al
    bebe4b75:	74 20                	je     bebe4b97 <sprintf+0x59>
    bebe4b77:	0f 29 45 80          	movaps %xmm0,-0x80(%rbp)
    bebe4b7b:	0f 29 4d 90          	movaps %xmm1,-0x70(%rbp)
    bebe4b7f:	0f 29 55 a0          	movaps %xmm2,-0x60(%rbp)
    bebe4b83:	0f 29 5d b0          	movaps %xmm3,-0x50(%rbp)
    bebe4b87:	0f 29 65 c0          	movaps %xmm4,-0x40(%rbp)
    bebe4b8b:	0f 29 6d d0          	movaps %xmm5,-0x30(%rbp)
    bebe4b8f:	0f 29 75 e0          	movaps %xmm6,-0x20(%rbp)
    bebe4b93:	0f 29 7d f0          	movaps %xmm7,-0x10(%rbp)
    bebe4b97:	c7 85 30 ff ff ff 10 	movl   $0x10,-0xd0(%rbp)
    bebe4b9e:	00 00 00 
    bebe4ba1:	c7 85 34 ff ff ff 30 	movl   $0x30,-0xcc(%rbp)
    bebe4ba8:	00 00 00 
    bebe4bab:	48 8d 45 10          	lea    0x10(%rbp),%rax
    bebe4baf:	48 89 85 38 ff ff ff 	mov    %rax,-0xc8(%rbp)
    bebe4bb6:	48 8d 85 50 ff ff ff 	lea    -0xb0(%rbp),%rax
    bebe4bbd:	48 89 85 40 ff ff ff 	mov    %rax,-0xc0(%rbp)
    bebe4bc4:	48 8d 95 30 ff ff ff 	lea    -0xd0(%rbp),%rdx
    bebe4bcb:	48 8b 8d 20 ff ff ff 	mov    -0xe0(%rbp),%rcx
    bebe4bd2:	48 8b 85 28 ff ff ff 	mov    -0xd8(%rbp),%rax
    bebe4bd9:	48 89 ce             	mov    %rcx,%rsi
    bebe4bdc:	48 89 c7             	mov    %rax,%rdi
    bebe4bdf:	48 b8 4c 49 be be 00 	movabs $0xbebe494c,%rax
    bebe4be6:	00 00 00 
    bebe4be9:	ff d0                	call   *%rax
    bebe4beb:	89 85 4c ff ff ff    	mov    %eax,-0xb4(%rbp)
    bebe4bf1:	8b 85 4c ff ff ff    	mov    -0xb4(%rbp),%eax
    bebe4bf7:	c9                   	leave
    bebe4bf8:	c3                   	ret

00000000bebe4bf9 <malloc>:
    bebe4bf9:	55                   	push   %rbp
    bebe4bfa:	48 89 e5             	mov    %rsp,%rbp
    bebe4bfd:	48 83 ec 10          	sub    $0x10,%rsp
    bebe4c01:	48 89 7d f8          	mov    %rdi,-0x8(%rbp)
    bebe4c05:	48 b8 c0 67 be be 00 	movabs $0xbebe67c0,%rax
    bebe4c0c:	00 00 00 
    bebe4c0f:	48 89 c6             	mov    %rax,%rsi
    bebe4c12:	b8 00 00 00 00       	mov    $0x0,%eax
    bebe4c17:	ba 0c 00 00 00       	mov    $0xc,%edx
    bebe4c1c:	48 89 f7             	mov    %rsi,%rdi
    bebe4c1f:	48 89 d1             	mov    %rdx,%rcx
    bebe4c22:	f3 48 ab             	rep stos %rax,%es:(%rdi)
    bebe4c25:	48 b8 c0 67 be be 00 	movabs $0xbebe67c0,%rax
    bebe4c2c:	00 00 00 
    bebe4c2f:	c7 00 09 00 00 00    	movl   $0x9,(%rax)
    bebe4c35:	48 ba c0 67 be be 00 	movabs $0xbebe67c0,%rdx
    bebe4c3c:	00 00 00 
    bebe4c3f:	48 8b 45 f8          	mov    -0x8(%rbp),%rax
    bebe4c43:	48 89 42 08          	mov    %rax,0x8(%rdx)
    bebe4c47:	48 b8 c0 67 be be 00 	movabs $0xbebe67c0,%rax
    bebe4c4e:	00 00 00 
    bebe4c51:	48 89 c7             	mov    %rax,%rdi
    bebe4c54:	48 b8 00 37 be be 00 	movabs $0xbebe3700,%rax
    bebe4c5b:	00 00 00 
    bebe4c5e:	ff d0                	call   *%rax
    bebe4c60:	48 b8 c0 67 be be 00 	movabs $0xbebe67c0,%rax
    bebe4c67:	00 00 00 
    bebe4c6a:	48 8b 40 50          	mov    0x50(%rax),%rax
    bebe4c6e:	c9                   	leave
    bebe4c6f:	c3                   	ret

00000000bebe4c70 <free>:
    bebe4c70:	55                   	push   %rbp
    bebe4c71:	48 89 e5             	mov    %rsp,%rbp
    bebe4c74:	48 83 ec 10          	sub    $0x10,%rsp
    bebe4c78:	48 89 7d f8          	mov    %rdi,-0x8(%rbp)
    bebe4c7c:	48 b8 c0 67 be be 00 	movabs $0xbebe67c0,%rax
    bebe4c83:	00 00 00 
    bebe4c86:	48 89 c6             	mov    %rax,%rsi
    bebe4c89:	b8 00 00 00 00       	mov    $0x0,%eax
    bebe4c8e:	ba 0c 00 00 00       	mov    $0xc,%edx
    bebe4c93:	48 89 f7             	mov    %rsi,%rdi
    bebe4c96:	48 89 d1             	mov    %rdx,%rcx
    bebe4c99:	f3 48 ab             	rep stos %rax,%es:(%rdi)
    bebe4c9c:	48 b8 c0 67 be be 00 	movabs $0xbebe67c0,%rax
    bebe4ca3:	00 00 00 
    bebe4ca6:	c7 00 0a 00 00 00    	movl   $0xa,(%rax)
    bebe4cac:	48 ba c0 67 be be 00 	movabs $0xbebe67c0,%rdx
    bebe4cb3:	00 00 00 
    bebe4cb6:	48 8b 45 f8          	mov    -0x8(%rbp),%rax
    bebe4cba:	48 89 42 50          	mov    %rax,0x50(%rdx)
    bebe4cbe:	48 b8 c0 67 be be 00 	movabs $0xbebe67c0,%rax
    bebe4cc5:	00 00 00 
    bebe4cc8:	48 89 c7             	mov    %rax,%rdi
    bebe4ccb:	48 b8 00 37 be be 00 	movabs $0xbebe3700,%rax
    bebe4cd2:	00 00 00 
    bebe4cd5:	ff d0                	call   *%rax
    bebe4cd7:	90                   	nop
    bebe4cd8:	c9                   	leave
    bebe4cd9:	c3                   	ret

00000000bebe4cda <ltoa>:
    bebe4cda:	55                   	push   %rbp
    bebe4cdb:	48 89 e5             	mov    %rsp,%rbp
    bebe4cde:	48 83 ec 70          	sub    $0x70,%rsp
    bebe4ce2:	48 89 7d a8          	mov    %rdi,-0x58(%rbp)
    bebe4ce6:	48 89 75 a0          	mov    %rsi,-0x60(%rbp)
    bebe4cea:	89 55 9c             	mov    %edx,-0x64(%rbp)
    bebe4ced:	48 8d 45 b0          	lea    -0x50(%rbp),%rax
    bebe4cf1:	48 89 45 f8          	mov    %rax,-0x8(%rbp)
    bebe4cf5:	83 7d 9c 0a          	cmpl   $0xa,-0x64(%rbp)
    bebe4cf9:	75 0e                	jne    bebe4d09 <ltoa+0x2f>
    bebe4cfb:	48 83 7d a8 00       	cmpq   $0x0,-0x58(%rbp)
    bebe4d00:	79 07                	jns    bebe4d09 <ltoa+0x2f>
    bebe4d02:	b8 01 00 00 00       	mov    $0x1,%eax
    bebe4d07:	eb 05                	jmp    bebe4d0e <ltoa+0x34>
    bebe4d09:	b8 00 00 00 00       	mov    $0x0,%eax
    bebe4d0e:	0f b6 c0             	movzbl %al,%eax
    bebe4d11:	48 89 45 e8          	mov    %rax,-0x18(%rbp)
    bebe4d15:	48 83 7d e8 00       	cmpq   $0x0,-0x18(%rbp)
    bebe4d1a:	74 08                	je     bebe4d24 <ltoa+0x4a>
    bebe4d1c:	48 8b 45 a8          	mov    -0x58(%rbp),%rax
    bebe4d20:	f7 d8                	neg    %eax
    bebe4d22:	eb 04                	jmp    bebe4d28 <ltoa+0x4e>
    bebe4d24:	48 8b 45 a8          	mov    -0x58(%rbp),%rax
    bebe4d28:	89 45 f4             	mov    %eax,-0xc(%rbp)
    bebe4d2b:	eb 5e                	jmp    bebe4d8b <ltoa+0xb1>
    bebe4d2d:	8b 75 9c             	mov    -0x64(%rbp),%esi
    bebe4d30:	8b 45 f4             	mov    -0xc(%rbp),%eax
    bebe4d33:	ba 00 00 00 00       	mov    $0x0,%edx
    bebe4d38:	f7 f6                	div    %esi
    bebe4d3a:	89 d1                	mov    %edx,%ecx
    bebe4d3c:	89 c8                	mov    %ecx,%eax
    bebe4d3e:	89 c0                	mov    %eax,%eax
    bebe4d40:	48 89 45 d8          	mov    %rax,-0x28(%rbp)
    bebe4d44:	8b 7d 9c             	mov    -0x64(%rbp),%edi
    bebe4d47:	8b 45 f4             	mov    -0xc(%rbp),%eax
    bebe4d4a:	ba 00 00 00 00       	mov    $0x0,%edx
    bebe4d4f:	f7 f7                	div    %edi
    bebe4d51:	89 45 f4             	mov    %eax,-0xc(%rbp)
    bebe4d54:	48 83 7d d8 09       	cmpq   $0x9,-0x28(%rbp)
    bebe4d59:	7f 19                	jg     bebe4d74 <ltoa+0x9a>
    bebe4d5b:	48 8b 45 d8          	mov    -0x28(%rbp),%rax
    bebe4d5f:	83 c0 30             	add    $0x30,%eax
    bebe4d62:	89 c1                	mov    %eax,%ecx
    bebe4d64:	48 8b 45 f8          	mov    -0x8(%rbp),%rax
    bebe4d68:	48 8d 50 01          	lea    0x1(%rax),%rdx
    bebe4d6c:	48 89 55 f8          	mov    %rdx,-0x8(%rbp)
    bebe4d70:	88 08                	mov    %cl,(%rax)
    bebe4d72:	eb 17                	jmp    bebe4d8b <ltoa+0xb1>
    bebe4d74:	48 8b 45 d8          	mov    -0x28(%rbp),%rax
    bebe4d78:	83 c0 57             	add    $0x57,%eax
    bebe4d7b:	89 c1                	mov    %eax,%ecx
    bebe4d7d:	48 8b 45 f8          	mov    -0x8(%rbp),%rax
    bebe4d81:	48 8d 50 01          	lea    0x1(%rax),%rdx
    bebe4d85:	48 89 55 f8          	mov    %rdx,-0x8(%rbp)
    bebe4d89:	88 08                	mov    %cl,(%rax)
    bebe4d8b:	83 7d f4 00          	cmpl   $0x0,-0xc(%rbp)
    bebe4d8f:	75 9c                	jne    bebe4d2d <ltoa+0x53>
    bebe4d91:	48 8d 45 b0          	lea    -0x50(%rbp),%rax
    bebe4d95:	48 39 45 f8          	cmp    %rax,-0x8(%rbp)
    bebe4d99:	74 92                	je     bebe4d2d <ltoa+0x53>
    bebe4d9b:	48 8d 45 b0          	lea    -0x50(%rbp),%rax
    bebe4d9f:	48 8b 55 f8          	mov    -0x8(%rbp),%rdx
    bebe4da3:	48 29 c2             	sub    %rax,%rdx
    bebe4da6:	48 89 55 e0          	mov    %rdx,-0x20(%rbp)
    bebe4daa:	48 83 7d e8 00       	cmpq   $0x0,-0x18(%rbp)
    bebe4daf:	74 30                	je     bebe4de1 <ltoa+0x107>
    bebe4db1:	48 8b 45 a0          	mov    -0x60(%rbp),%rax
    bebe4db5:	48 8d 50 01          	lea    0x1(%rax),%rdx
    bebe4db9:	48 89 55 a0          	mov    %rdx,-0x60(%rbp)
    bebe4dbd:	c6 00 2d             	movb   $0x2d,(%rax)
    bebe4dc0:	48 83 45 e0 01       	addq   $0x1,-0x20(%rbp)
    bebe4dc5:	eb 1a                	jmp    bebe4de1 <ltoa+0x107>
    bebe4dc7:	48 83 6d f8 01       	subq   $0x1,-0x8(%rbp)
    bebe4dcc:	48 8b 45 f8          	mov    -0x8(%rbp),%rax
    bebe4dd0:	0f b6 10             	movzbl (%rax),%edx
    bebe4dd3:	48 8b 45 a0          	mov    -0x60(%rbp),%rax
    bebe4dd7:	48 8d 48 01          	lea    0x1(%rax),%rcx
    bebe4ddb:	48 89 4d a0          	mov    %rcx,-0x60(%rbp)
    bebe4ddf:	88 10                	mov    %dl,(%rax)
    bebe4de1:	48 8d 45 b0          	lea    -0x50(%rbp),%rax
    bebe4de5:	48 3b 45 f8          	cmp    -0x8(%rbp),%rax
    bebe4de9:	72 dc                	jb     bebe4dc7 <ltoa+0xed>
    bebe4deb:	48 8b 45 a0          	mov    -0x60(%rbp),%rax
    bebe4def:	c9                   	leave
    bebe4df0:	c3                   	ret

00000000bebe4df1 <ultoa>:
    bebe4df1:	55                   	push   %rbp
    bebe4df2:	48 89 e5             	mov    %rsp,%rbp
    bebe4df5:	48 83 ec 60          	sub    $0x60,%rsp
    bebe4df9:	48 89 7d b8          	mov    %rdi,-0x48(%rbp)
    bebe4dfd:	48 89 75 b0          	mov    %rsi,-0x50(%rbp)
    bebe4e01:	89 55 ac             	mov    %edx,-0x54(%rbp)
    bebe4e04:	48 8d 45 c0          	lea    -0x40(%rbp),%rax
    bebe4e08:	48 89 45 f8          	mov    %rax,-0x8(%rbp)
    bebe4e0c:	48 8b 45 b8          	mov    -0x48(%rbp),%rax
    bebe4e10:	48 89 45 f0          	mov    %rax,-0x10(%rbp)
    bebe4e14:	eb 63                	jmp    bebe4e79 <ultoa+0x88>
    bebe4e16:	8b 45 ac             	mov    -0x54(%rbp),%eax
    bebe4e19:	48 63 c8             	movslq %eax,%rcx
    bebe4e1c:	48 8b 45 f0          	mov    -0x10(%rbp),%rax
    bebe4e20:	ba 00 00 00 00       	mov    $0x0,%edx
    bebe4e25:	48 f7 f1             	div    %rcx
    bebe4e28:	48 89 55 e8          	mov    %rdx,-0x18(%rbp)
    bebe4e2c:	8b 45 ac             	mov    -0x54(%rbp),%eax
    bebe4e2f:	48 63 f0             	movslq %eax,%rsi
    bebe4e32:	48 8b 45 f0          	mov    -0x10(%rbp),%rax
    bebe4e36:	ba 00 00 00 00       	mov    $0x0,%edx
    bebe4e3b:	48 f7 f6             	div    %rsi
    bebe4e3e:	48 89 45 f0          	mov    %rax,-0x10(%rbp)
    bebe4e42:	48 83 7d e8 09       	cmpq   $0x9,-0x18(%rbp)
    bebe4e47:	77 19                	ja     bebe4e62 <ultoa+0x71>
    bebe4e49:	48 8b 45 e8          	mov    -0x18(%rbp),%rax
    bebe4e4d:	83 c0 30             	add    $0x30,%eax
    bebe4e50:	89 c1                	mov    %eax,%ecx
    bebe4e52:	48 8b 45 f8          	mov    -0x8(%rbp),%rax
    bebe4e56:	48 8d 50 01          	lea    0x1(%rax),%rdx
    bebe4e5a:	48 89 55 f8          	mov    %rdx,-0x8(%rbp)
    bebe4e5e:	88 08                	mov    %cl,(%rax)
    bebe4e60:	eb 17                	jmp    bebe4e79 <ultoa+0x88>
    bebe4e62:	48 8b 45 e8          	mov    -0x18(%rbp),%rax
    bebe4e66:	83 c0 37             	add    $0x37,%eax
    bebe4e69:	89 c1                	mov    %eax,%ecx
    bebe4e6b:	48 8b 45 f8          	mov    -0x8(%rbp),%rax
    bebe4e6f:	48 8d 50 01          	lea    0x1(%rax),%rdx
    bebe4e73:	48 89 55 f8          	mov    %rdx,-0x8(%rbp)
    bebe4e77:	88 08                	mov    %cl,(%rax)
    bebe4e79:	48 83 7d f0 00       	cmpq   $0x0,-0x10(%rbp)
    bebe4e7e:	75 96                	jne    bebe4e16 <ultoa+0x25>
    bebe4e80:	48 8d 45 c0          	lea    -0x40(%rbp),%rax
    bebe4e84:	48 39 45 f8          	cmp    %rax,-0x8(%rbp)
    bebe4e88:	74 8c                	je     bebe4e16 <ultoa+0x25>
    bebe4e8a:	eb 1a                	jmp    bebe4ea6 <ultoa+0xb5>
    bebe4e8c:	48 83 6d f8 01       	subq   $0x1,-0x8(%rbp)
    bebe4e91:	48 8b 45 f8          	mov    -0x8(%rbp),%rax
    bebe4e95:	0f b6 10             	movzbl (%rax),%edx
    bebe4e98:	48 8b 45 b0          	mov    -0x50(%rbp),%rax
    bebe4e9c:	48 8d 48 01          	lea    0x1(%rax),%rcx
    bebe4ea0:	48 89 4d b0          	mov    %rcx,-0x50(%rbp)
    bebe4ea4:	88 10                	mov    %dl,(%rax)
    bebe4ea6:	48 8d 45 c0          	lea    -0x40(%rbp),%rax
    bebe4eaa:	48 3b 45 f8          	cmp    -0x8(%rbp),%rax
    bebe4eae:	72 dc                	jb     bebe4e8c <ultoa+0x9b>
    bebe4eb0:	48 8b 45 b0          	mov    -0x50(%rbp),%rax
    bebe4eb4:	c9                   	leave
    bebe4eb5:	c3                   	ret

00000000bebe4eb6 <itoa>:
    bebe4eb6:	55                   	push   %rbp
    bebe4eb7:	48 89 e5             	mov    %rsp,%rbp
    bebe4eba:	48 83 ec 50          	sub    $0x50,%rsp
    bebe4ebe:	89 7d bc             	mov    %edi,-0x44(%rbp)
    bebe4ec1:	48 89 75 b0          	mov    %rsi,-0x50(%rbp)
    bebe4ec5:	89 55 b8             	mov    %edx,-0x48(%rbp)
    bebe4ec8:	48 8d 45 c0          	lea    -0x40(%rbp),%rax
    bebe4ecc:	48 89 45 f8          	mov    %rax,-0x8(%rbp)
    bebe4ed0:	83 7d b8 0a          	cmpl   $0xa,-0x48(%rbp)
    bebe4ed4:	75 0d                	jne    bebe4ee3 <itoa+0x2d>
    bebe4ed6:	83 7d bc 00          	cmpl   $0x0,-0x44(%rbp)
    bebe4eda:	79 07                	jns    bebe4ee3 <itoa+0x2d>
    bebe4edc:	b8 01 00 00 00       	mov    $0x1,%eax
    bebe4ee1:	eb 05                	jmp    bebe4ee8 <itoa+0x32>
    bebe4ee3:	b8 00 00 00 00       	mov    $0x0,%eax
    bebe4ee8:	0f b6 c0             	movzbl %al,%eax
    bebe4eeb:	89 45 f0             	mov    %eax,-0x10(%rbp)
    bebe4eee:	83 7d f0 00          	cmpl   $0x0,-0x10(%rbp)
    bebe4ef2:	74 07                	je     bebe4efb <itoa+0x45>
    bebe4ef4:	8b 45 bc             	mov    -0x44(%rbp),%eax
    bebe4ef7:	f7 d8                	neg    %eax
    bebe4ef9:	eb 03                	jmp    bebe4efe <itoa+0x48>
    bebe4efb:	8b 45 bc             	mov    -0x44(%rbp),%eax
    bebe4efe:	89 45 f4             	mov    %eax,-0xc(%rbp)
    bebe4f01:	eb 58                	jmp    bebe4f5b <itoa+0xa5>
    bebe4f03:	8b 75 b8             	mov    -0x48(%rbp),%esi
    bebe4f06:	8b 45 f4             	mov    -0xc(%rbp),%eax
    bebe4f09:	ba 00 00 00 00       	mov    $0x0,%edx
    bebe4f0e:	f7 f6                	div    %esi
    bebe4f10:	89 d1                	mov    %edx,%ecx
    bebe4f12:	89 c8                	mov    %ecx,%eax
    bebe4f14:	89 45 e8             	mov    %eax,-0x18(%rbp)
    bebe4f17:	8b 7d b8             	mov    -0x48(%rbp),%edi
    bebe4f1a:	8b 45 f4             	mov    -0xc(%rbp),%eax
    bebe4f1d:	ba 00 00 00 00       	mov    $0x0,%edx
    bebe4f22:	f7 f7                	div    %edi
    bebe4f24:	89 45 f4             	mov    %eax,-0xc(%rbp)
    bebe4f27:	83 7d e8 09          	cmpl   $0x9,-0x18(%rbp)
    bebe4f2b:	7f 18                	jg     bebe4f45 <itoa+0x8f>
    bebe4f2d:	8b 45 e8             	mov    -0x18(%rbp),%eax
    bebe4f30:	83 c0 30             	add    $0x30,%eax
    bebe4f33:	89 c1                	mov    %eax,%ecx
    bebe4f35:	48 8b 45 f8          	mov    -0x8(%rbp),%rax
    bebe4f39:	48 8d 50 01          	lea    0x1(%rax),%rdx
    bebe4f3d:	48 89 55 f8          	mov    %rdx,-0x8(%rbp)
    bebe4f41:	88 08                	mov    %cl,(%rax)
    bebe4f43:	eb 16                	jmp    bebe4f5b <itoa+0xa5>
    bebe4f45:	8b 45 e8             	mov    -0x18(%rbp),%eax
    bebe4f48:	83 c0 57             	add    $0x57,%eax
    bebe4f4b:	89 c1                	mov    %eax,%ecx
    bebe4f4d:	48 8b 45 f8          	mov    -0x8(%rbp),%rax
    bebe4f51:	48 8d 50 01          	lea    0x1(%rax),%rdx
    bebe4f55:	48 89 55 f8          	mov    %rdx,-0x8(%rbp)
    bebe4f59:	88 08                	mov    %cl,(%rax)
    bebe4f5b:	83 7d f4 00          	cmpl   $0x0,-0xc(%rbp)
    bebe4f5f:	75 a2                	jne    bebe4f03 <itoa+0x4d>
    bebe4f61:	48 8d 45 c0          	lea    -0x40(%rbp),%rax
    bebe4f65:	48 39 45 f8          	cmp    %rax,-0x8(%rbp)
    bebe4f69:	74 98                	je     bebe4f03 <itoa+0x4d>
    bebe4f6b:	48 8d 45 c0          	lea    -0x40(%rbp),%rax
    bebe4f6f:	48 8b 55 f8          	mov    -0x8(%rbp),%rdx
    bebe4f73:	48 29 c2             	sub    %rax,%rdx
    bebe4f76:	89 55 ec             	mov    %edx,-0x14(%rbp)
    bebe4f79:	83 7d f0 00          	cmpl   $0x0,-0x10(%rbp)
    bebe4f7d:	74 2f                	je     bebe4fae <itoa+0xf8>
    bebe4f7f:	48 8b 45 b0          	mov    -0x50(%rbp),%rax
    bebe4f83:	48 8d 50 01          	lea    0x1(%rax),%rdx
    bebe4f87:	48 89 55 b0          	mov    %rdx,-0x50(%rbp)
    bebe4f8b:	c6 00 2d             	movb   $0x2d,(%rax)
    bebe4f8e:	83 45 ec 01          	addl   $0x1,-0x14(%rbp)
    bebe4f92:	eb 1a                	jmp    bebe4fae <itoa+0xf8>
    bebe4f94:	48 83 6d f8 01       	subq   $0x1,-0x8(%rbp)
    bebe4f99:	48 8b 45 f8          	mov    -0x8(%rbp),%rax
    bebe4f9d:	0f b6 10             	movzbl (%rax),%edx
    bebe4fa0:	48 8b 45 b0          	mov    -0x50(%rbp),%rax
    bebe4fa4:	48 8d 48 01          	lea    0x1(%rax),%rcx
    bebe4fa8:	48 89 4d b0          	mov    %rcx,-0x50(%rbp)
    bebe4fac:	88 10                	mov    %dl,(%rax)
    bebe4fae:	48 8d 45 c0          	lea    -0x40(%rbp),%rax
    bebe4fb2:	48 3b 45 f8          	cmp    -0x8(%rbp),%rax
    bebe4fb6:	72 dc                	jb     bebe4f94 <itoa+0xde>
    bebe4fb8:	48 8b 45 b0          	mov    -0x50(%rbp),%rax
    bebe4fbc:	c9                   	leave
    bebe4fbd:	c3                   	ret

00000000bebe4fbe <utoa>:
    bebe4fbe:	55                   	push   %rbp
    bebe4fbf:	48 89 e5             	mov    %rsp,%rbp
    bebe4fc2:	48 83 ec 10          	sub    $0x10,%rsp
    bebe4fc6:	89 7d fc             	mov    %edi,-0x4(%rbp)
    bebe4fc9:	48 89 75 f0          	mov    %rsi,-0x10(%rbp)
    bebe4fcd:	89 55 f8             	mov    %edx,-0x8(%rbp)
    bebe4fd0:	8b 45 fc             	mov    -0x4(%rbp),%eax
    bebe4fd3:	8b 55 f8             	mov    -0x8(%rbp),%edx
    bebe4fd6:	48 8b 4d f0          	mov    -0x10(%rbp),%rcx
    bebe4fda:	48 89 ce             	mov    %rcx,%rsi
    bebe4fdd:	48 89 c7             	mov    %rax,%rdi
    bebe4fe0:	48 b8 f1 4d be be 00 	movabs $0xbebe4df1,%rax
    bebe4fe7:	00 00 00 
    bebe4fea:	ff d0                	call   *%rax
    bebe4fec:	c9                   	leave
    bebe4fed:	c3                   	ret

00000000bebe4fee <_Z12memcpy_sse32PvPKvj>:
    bebe4fee:	55                   	push   %rbp
    bebe4fef:	48 89 e5             	mov    %rsp,%rbp
    bebe4ff2:	48 83 c4 80          	add    $0xffffffffffffff80,%rsp
    bebe4ff6:	48 89 7d 98          	mov    %rdi,-0x68(%rbp)
    bebe4ffa:	48 89 75 90          	mov    %rsi,-0x70(%rbp)
    bebe4ffe:	89 55 8c             	mov    %edx,-0x74(%rbp)
    bebe5001:	48 8b 45 98          	mov    -0x68(%rbp),%rax
    bebe5005:	48 89 45 f0          	mov    %rax,-0x10(%rbp)
    bebe5009:	48 8b 45 90          	mov    -0x70(%rbp),%rax
    bebe500d:	48 89 45 e8          	mov    %rax,-0x18(%rbp)
    bebe5011:	c7 45 fc 00 00 00 00 	movl   $0x0,-0x4(%rbp)
    bebe5018:	eb 52                	jmp    bebe506c <_Z12memcpy_sse32PvPKvj+0x7e>
    bebe501a:	8b 45 fc             	mov    -0x4(%rbp),%eax
    bebe501d:	48 8d 14 85 00 00 00 	lea    0x0(,%rax,4),%rdx
    bebe5024:	00 
    bebe5025:	48 8b 45 e8          	mov    -0x18(%rbp),%rax
    bebe5029:	48 01 d0             	add    %rdx,%rax
    bebe502c:	48 89 45 a8          	mov    %rax,-0x58(%rbp)
    bebe5030:	48 8b 45 a8          	mov    -0x58(%rbp),%rax
    bebe5034:	f3 0f 6f 00          	movdqu (%rax),%xmm0
    bebe5038:	0f 29 45 d0          	movaps %xmm0,-0x30(%rbp)
    bebe503c:	8b 45 fc             	mov    -0x4(%rbp),%eax
    bebe503f:	48 8d 14 85 00 00 00 	lea    0x0(,%rax,4),%rdx
    bebe5046:	00 
    bebe5047:	48 8b 45 f0          	mov    -0x10(%rbp),%rax
    bebe504b:	48 01 d0             	add    %rdx,%rax
    bebe504e:	48 89 45 c8          	mov    %rax,-0x38(%rbp)
    bebe5052:	66 0f 6f 45 d0       	movdqa -0x30(%rbp),%xmm0
    bebe5057:	0f 29 45 b0          	movaps %xmm0,-0x50(%rbp)
    bebe505b:	66 0f 6f 45 b0       	movdqa -0x50(%rbp),%xmm0
    bebe5060:	48 8b 45 c8          	mov    -0x38(%rbp),%rax
    bebe5064:	0f 11 00             	movups %xmm0,(%rax)
    bebe5067:	90                   	nop
    bebe5068:	83 45 fc 04          	addl   $0x4,-0x4(%rbp)
    bebe506c:	8b 45 fc             	mov    -0x4(%rbp),%eax
    bebe506f:	3b 45 8c             	cmp    -0x74(%rbp),%eax
    bebe5072:	72 a6                	jb     bebe501a <_Z12memcpy_sse32PvPKvj+0x2c>
    bebe5074:	8b 45 8c             	mov    -0x74(%rbp),%eax
    bebe5077:	83 e0 03             	and    $0x3,%eax
    bebe507a:	89 45 e4             	mov    %eax,-0x1c(%rbp)
    bebe507d:	8b 45 8c             	mov    -0x74(%rbp),%eax
    bebe5080:	2b 45 e4             	sub    -0x1c(%rbp),%eax
    bebe5083:	89 45 f8             	mov    %eax,-0x8(%rbp)
    bebe5086:	eb 2c                	jmp    bebe50b4 <_Z12memcpy_sse32PvPKvj+0xc6>
    bebe5088:	8b 45 f8             	mov    -0x8(%rbp),%eax
    bebe508b:	48 8d 14 85 00 00 00 	lea    0x0(,%rax,4),%rdx
    bebe5092:	00 
    bebe5093:	48 8b 45 e8          	mov    -0x18(%rbp),%rax
    bebe5097:	48 01 d0             	add    %rdx,%rax
    bebe509a:	8b 55 f8             	mov    -0x8(%rbp),%edx
    bebe509d:	48 8d 0c 95 00 00 00 	lea    0x0(,%rdx,4),%rcx
    bebe50a4:	00 
    bebe50a5:	48 8b 55 f0          	mov    -0x10(%rbp),%rdx
    bebe50a9:	48 01 ca             	add    %rcx,%rdx
    bebe50ac:	8b 00                	mov    (%rax),%eax
    bebe50ae:	89 02                	mov    %eax,(%rdx)
    bebe50b0:	83 45 f8 01          	addl   $0x1,-0x8(%rbp)
    bebe50b4:	8b 45 f8             	mov    -0x8(%rbp),%eax
    bebe50b7:	3b 45 8c             	cmp    -0x74(%rbp),%eax
    bebe50ba:	72 cc                	jb     bebe5088 <_Z12memcpy_sse32PvPKvj+0x9a>
    bebe50bc:	90                   	nop
    bebe50bd:	90                   	nop
    bebe50be:	c9                   	leave
    bebe50bf:	c3                   	ret

00000000bebe50c0 <_Z9memcpy_u8PvPKvm>:
    bebe50c0:	55                   	push   %rbp
    bebe50c1:	48 89 e5             	mov    %rsp,%rbp
    bebe50c4:	48 83 ec 38          	sub    $0x38,%rsp
    bebe50c8:	48 89 7d d8          	mov    %rdi,-0x28(%rbp)
    bebe50cc:	48 89 75 d0          	mov    %rsi,-0x30(%rbp)
    bebe50d0:	48 89 55 c8          	mov    %rdx,-0x38(%rbp)
    bebe50d4:	48 8b 45 d8          	mov    -0x28(%rbp),%rax
    bebe50d8:	48 89 45 f0          	mov    %rax,-0x10(%rbp)
    bebe50dc:	48 8b 45 d0          	mov    -0x30(%rbp),%rax
    bebe50e0:	48 89 45 e8          	mov    %rax,-0x18(%rbp)
    bebe50e4:	48 c7 45 f8 00 00 00 	movq   $0x0,-0x8(%rbp)
    bebe50eb:	00 
    bebe50ec:	eb 20                	jmp    bebe510e <_Z9memcpy_u8PvPKvm+0x4e>
    bebe50ee:	48 8b 55 e8          	mov    -0x18(%rbp),%rdx
    bebe50f2:	48 8b 45 f8          	mov    -0x8(%rbp),%rax
    bebe50f6:	48 01 d0             	add    %rdx,%rax
    bebe50f9:	48 8b 4d f0          	mov    -0x10(%rbp),%rcx
    bebe50fd:	48 8b 55 f8          	mov    -0x8(%rbp),%rdx
    bebe5101:	48 01 ca             	add    %rcx,%rdx
    bebe5104:	0f b6 00             	movzbl (%rax),%eax
    bebe5107:	88 02                	mov    %al,(%rdx)
    bebe5109:	48 83 45 f8 01       	addq   $0x1,-0x8(%rbp)
    bebe510e:	48 8b 45 f8          	mov    -0x8(%rbp),%rax
    bebe5112:	48 3b 45 c8          	cmp    -0x38(%rbp),%rax
    bebe5116:	72 d6                	jb     bebe50ee <_Z9memcpy_u8PvPKvm+0x2e>
    bebe5118:	48 8b 55 f0          	mov    -0x10(%rbp),%rdx
    bebe511c:	48 8b 45 c8          	mov    -0x38(%rbp),%rax
    bebe5120:	48 01 d0             	add    %rdx,%rax
    bebe5123:	c9                   	leave
    bebe5124:	c3                   	ret

00000000bebe5125 <memcpy>:
    bebe5125:	55                   	push   %rbp
    bebe5126:	48 89 e5             	mov    %rsp,%rbp
    bebe5129:	48 83 ec 18          	sub    $0x18,%rsp
    bebe512d:	48 89 7d f8          	mov    %rdi,-0x8(%rbp)
    bebe5131:	48 89 75 f0          	mov    %rsi,-0x10(%rbp)
    bebe5135:	48 89 55 e8          	mov    %rdx,-0x18(%rbp)
    bebe5139:	48 8b 55 e8          	mov    -0x18(%rbp),%rdx
    bebe513d:	48 8b 4d f0          	mov    -0x10(%rbp),%rcx
    bebe5141:	48 8b 45 f8          	mov    -0x8(%rbp),%rax
    bebe5145:	48 89 ce             	mov    %rcx,%rsi
    bebe5148:	48 89 c7             	mov    %rax,%rdi
    bebe514b:	48 b8 c0 50 be be 00 	movabs $0xbebe50c0,%rax
    bebe5152:	00 00 00 
    bebe5155:	ff d0                	call   *%rax
    bebe5157:	48 89 45 f8          	mov    %rax,-0x8(%rbp)
    bebe515b:	48 8b 45 f8          	mov    -0x8(%rbp),%rax
    bebe515f:	c9                   	leave
    bebe5160:	c3                   	ret

00000000bebe5161 <_Z12memset_sse32Pvjj>:
    bebe5161:	55                   	push   %rbp
    bebe5162:	48 89 e5             	mov    %rsp,%rbp
    bebe5165:	48 83 ec 60          	sub    $0x60,%rsp
    bebe5169:	48 89 7d a8          	mov    %rdi,-0x58(%rbp)
    bebe516d:	89 75 a4             	mov    %esi,-0x5c(%rbp)
    bebe5170:	89 55 a0             	mov    %edx,-0x60(%rbp)
    bebe5173:	48 8b 45 a8          	mov    -0x58(%rbp),%rax
    bebe5177:	48 89 45 f0          	mov    %rax,-0x10(%rbp)
    bebe517b:	8b 45 a4             	mov    -0x5c(%rbp),%eax
    bebe517e:	89 45 d8             	mov    %eax,-0x28(%rbp)
    bebe5181:	8b 45 d8             	mov    -0x28(%rbp),%eax
    bebe5184:	89 45 d4             	mov    %eax,-0x2c(%rbp)
    bebe5187:	8b 45 d8             	mov    -0x28(%rbp),%eax
    bebe518a:	89 45 d0             	mov    %eax,-0x30(%rbp)
    bebe518d:	8b 45 d8             	mov    -0x28(%rbp),%eax
    bebe5190:	89 45 cc             	mov    %eax,-0x34(%rbp)
    bebe5193:	8b 45 d8             	mov    -0x28(%rbp),%eax
    bebe5196:	89 45 c8             	mov    %eax,-0x38(%rbp)
    bebe5199:	66 0f 6e 45 d4       	movd   -0x2c(%rbp),%xmm0
    bebe519e:	66 0f 6e 4d d0       	movd   -0x30(%rbp),%xmm1
    bebe51a3:	66 0f 6f d1          	movdqa %xmm1,%xmm2
    bebe51a7:	66 0f 62 d0          	punpckldq %xmm0,%xmm2
    bebe51ab:	66 0f 6e 4d cc       	movd   -0x34(%rbp),%xmm1
    bebe51b0:	66 0f 6e 45 c8       	movd   -0x38(%rbp),%xmm0
    bebe51b5:	66 0f 62 c1          	punpckldq %xmm1,%xmm0
    bebe51b9:	66 0f 6c c2          	punpcklqdq %xmm2,%xmm0
    bebe51bd:	90                   	nop
    bebe51be:	0f 29 45 e0          	movaps %xmm0,-0x20(%rbp)
    bebe51c2:	8b 45 a0             	mov    -0x60(%rbp),%eax
    bebe51c5:	83 e0 03             	and    $0x3,%eax
    bebe51c8:	89 45 dc             	mov    %eax,-0x24(%rbp)
    bebe51cb:	c7 45 fc 00 00 00 00 	movl   $0x0,-0x4(%rbp)
    bebe51d2:	eb 30                	jmp    bebe5204 <_Z12memset_sse32Pvjj+0xa3>
    bebe51d4:	8b 45 fc             	mov    -0x4(%rbp),%eax
    bebe51d7:	48 8d 14 85 00 00 00 	lea    0x0(,%rax,4),%rdx
    bebe51de:	00 
    bebe51df:	48 8b 45 f0          	mov    -0x10(%rbp),%rax
    bebe51e3:	48 01 d0             	add    %rdx,%rax
    bebe51e6:	48 89 45 c0          	mov    %rax,-0x40(%rbp)
    bebe51ea:	66 0f 6f 45 e0       	movdqa -0x20(%rbp),%xmm0
    bebe51ef:	0f 29 45 b0          	movaps %xmm0,-0x50(%rbp)
    bebe51f3:	66 0f 6f 45 b0       	movdqa -0x50(%rbp),%xmm0
    bebe51f8:	48 8b 45 c0          	mov    -0x40(%rbp),%rax
    bebe51fc:	0f 11 00             	movups %xmm0,(%rax)
    bebe51ff:	90                   	nop
    bebe5200:	83 45 fc 04          	addl   $0x4,-0x4(%rbp)
    bebe5204:	8b 45 fc             	mov    -0x4(%rbp),%eax
    bebe5207:	3b 45 a0             	cmp    -0x60(%rbp),%eax
    bebe520a:	72 c8                	jb     bebe51d4 <_Z12memset_sse32Pvjj+0x73>
    bebe520c:	8b 45 a0             	mov    -0x60(%rbp),%eax
    bebe520f:	2b 45 dc             	sub    -0x24(%rbp),%eax
    bebe5212:	89 45 f8             	mov    %eax,-0x8(%rbp)
    bebe5215:	eb 1b                	jmp    bebe5232 <_Z12memset_sse32Pvjj+0xd1>
    bebe5217:	8b 45 f8             	mov    -0x8(%rbp),%eax
    bebe521a:	48 8d 14 85 00 00 00 	lea    0x0(,%rax,4),%rdx
    bebe5221:	00 
    bebe5222:	48 8b 45 f0          	mov    -0x10(%rbp),%rax
    bebe5226:	48 01 c2             	add    %rax,%rdx
    bebe5229:	8b 45 a4             	mov    -0x5c(%rbp),%eax
    bebe522c:	89 02                	mov    %eax,(%rdx)
    bebe522e:	83 45 f8 01          	addl   $0x1,-0x8(%rbp)
    bebe5232:	8b 45 f8             	mov    -0x8(%rbp),%eax
    bebe5235:	3b 45 a0             	cmp    -0x60(%rbp),%eax
    bebe5238:	72 dd                	jb     bebe5217 <_Z12memset_sse32Pvjj+0xb6>
    bebe523a:	90                   	nop
    bebe523b:	90                   	nop
    bebe523c:	c9                   	leave
    bebe523d:	c3                   	ret

00000000bebe523e <_Z9memset_u8Phhm>:
    bebe523e:	55                   	push   %rbp
    bebe523f:	48 89 e5             	mov    %rsp,%rbp
    bebe5242:	48 83 ec 28          	sub    $0x28,%rsp
    bebe5246:	48 89 7d e8          	mov    %rdi,-0x18(%rbp)
    bebe524a:	89 f0                	mov    %esi,%eax
    bebe524c:	48 89 55 d8          	mov    %rdx,-0x28(%rbp)
    bebe5250:	88 45 e4             	mov    %al,-0x1c(%rbp)
    bebe5253:	48 c7 45 f8 00 00 00 	movq   $0x0,-0x8(%rbp)
    bebe525a:	00 
    bebe525b:	eb 16                	jmp    bebe5273 <_Z9memset_u8Phhm+0x35>
    bebe525d:	48 8b 55 e8          	mov    -0x18(%rbp),%rdx
    bebe5261:	48 8b 45 f8          	mov    -0x8(%rbp),%rax
    bebe5265:	48 01 c2             	add    %rax,%rdx
    bebe5268:	0f b6 45 e4          	movzbl -0x1c(%rbp),%eax
    bebe526c:	88 02                	mov    %al,(%rdx)
    bebe526e:	48 83 45 f8 01       	addq   $0x1,-0x8(%rbp)
    bebe5273:	48 8b 45 f8          	mov    -0x8(%rbp),%rax
    bebe5277:	48 3b 45 d8          	cmp    -0x28(%rbp),%rax
    bebe527b:	72 e0                	jb     bebe525d <_Z9memset_u8Phhm+0x1f>
    bebe527d:	48 8b 45 e8          	mov    -0x18(%rbp),%rax
    bebe5281:	c9                   	leave
    bebe5282:	c3                   	ret

00000000bebe5283 <memset>:
    bebe5283:	55                   	push   %rbp
    bebe5284:	48 89 e5             	mov    %rsp,%rbp
    bebe5287:	48 83 ec 28          	sub    $0x28,%rsp
    bebe528b:	48 89 7d e8          	mov    %rdi,-0x18(%rbp)
    bebe528f:	89 f0                	mov    %esi,%eax
    bebe5291:	48 89 55 d8          	mov    %rdx,-0x28(%rbp)
    bebe5295:	88 45 e4             	mov    %al,-0x1c(%rbp)
    bebe5298:	48 8b 45 e8          	mov    -0x18(%rbp),%rax
    bebe529c:	48 89 45 f0          	mov    %rax,-0x10(%rbp)
    bebe52a0:	48 c7 45 f8 00 00 00 	movq   $0x0,-0x8(%rbp)
    bebe52a7:	00 
    bebe52a8:	eb 16                	jmp    bebe52c0 <memset+0x3d>
    bebe52aa:	48 8b 55 f0          	mov    -0x10(%rbp),%rdx
    bebe52ae:	48 8b 45 f8          	mov    -0x8(%rbp),%rax
    bebe52b2:	48 01 c2             	add    %rax,%rdx
    bebe52b5:	0f b6 45 e4          	movzbl -0x1c(%rbp),%eax
    bebe52b9:	88 02                	mov    %al,(%rdx)
    bebe52bb:	48 83 45 f8 01       	addq   $0x1,-0x8(%rbp)
    bebe52c0:	48 8b 45 f8          	mov    -0x8(%rbp),%rax
    bebe52c4:	48 3b 45 d8          	cmp    -0x28(%rbp),%rax
    bebe52c8:	72 e0                	jb     bebe52aa <memset+0x27>
    bebe52ca:	48 8b 45 f0          	mov    -0x10(%rbp),%rax
    bebe52ce:	c9                   	leave
    bebe52cf:	c3                   	ret

00000000bebe52d0 <strcmp>:
    bebe52d0:	55                   	push   %rbp
    bebe52d1:	48 89 e5             	mov    %rsp,%rbp
    bebe52d4:	48 83 ec 10          	sub    $0x10,%rsp
    bebe52d8:	48 89 7d f8          	mov    %rdi,-0x8(%rbp)
    bebe52dc:	48 89 75 f0          	mov    %rsi,-0x10(%rbp)
    bebe52e0:	eb 0a                	jmp    bebe52ec <strcmp+0x1c>
    bebe52e2:	48 83 45 f8 01       	addq   $0x1,-0x8(%rbp)
    bebe52e7:	48 83 45 f0 01       	addq   $0x1,-0x10(%rbp)
    bebe52ec:	48 8b 45 f8          	mov    -0x8(%rbp),%rax
    bebe52f0:	0f b6 00             	movzbl (%rax),%eax
    bebe52f3:	84 c0                	test   %al,%al
    bebe52f5:	74 12                	je     bebe5309 <strcmp+0x39>
    bebe52f7:	48 8b 45 f8          	mov    -0x8(%rbp),%rax
    bebe52fb:	0f b6 10             	movzbl (%rax),%edx
    bebe52fe:	48 8b 45 f0          	mov    -0x10(%rbp),%rax
    bebe5302:	0f b6 00             	movzbl (%rax),%eax
    bebe5305:	38 c2                	cmp    %al,%dl
    bebe5307:	74 d9                	je     bebe52e2 <strcmp+0x12>
    bebe5309:	48 8b 45 f8          	mov    -0x8(%rbp),%rax
    bebe530d:	0f b6 00             	movzbl (%rax),%eax
    bebe5310:	0f b6 d0             	movzbl %al,%edx
    bebe5313:	48 8b 45 f0          	mov    -0x10(%rbp),%rax
    bebe5317:	0f b6 00             	movzbl (%rax),%eax
    bebe531a:	0f b6 c0             	movzbl %al,%eax
    bebe531d:	29 c2                	sub    %eax,%edx
    bebe531f:	89 d0                	mov    %edx,%eax
    bebe5321:	c9                   	leave
    bebe5322:	c3                   	ret

00000000bebe5323 <strncmp>:
    bebe5323:	55                   	push   %rbp
    bebe5324:	48 89 e5             	mov    %rsp,%rbp
    bebe5327:	48 83 ec 18          	sub    $0x18,%rsp
    bebe532b:	48 89 7d f8          	mov    %rdi,-0x8(%rbp)
    bebe532f:	48 89 75 f0          	mov    %rsi,-0x10(%rbp)
    bebe5333:	48 89 55 e8          	mov    %rdx,-0x18(%rbp)
    bebe5337:	eb 0f                	jmp    bebe5348 <strncmp+0x25>
    bebe5339:	48 83 45 f8 01       	addq   $0x1,-0x8(%rbp)
    bebe533e:	48 83 45 f0 01       	addq   $0x1,-0x10(%rbp)
    bebe5343:	48 83 6d e8 01       	subq   $0x1,-0x18(%rbp)
    bebe5348:	48 83 7d e8 00       	cmpq   $0x0,-0x18(%rbp)
    bebe534d:	74 1d                	je     bebe536c <strncmp+0x49>
    bebe534f:	48 8b 45 f8          	mov    -0x8(%rbp),%rax
    bebe5353:	0f b6 00             	movzbl (%rax),%eax
    bebe5356:	84 c0                	test   %al,%al
    bebe5358:	74 12                	je     bebe536c <strncmp+0x49>
    bebe535a:	48 8b 45 f8          	mov    -0x8(%rbp),%rax
    bebe535e:	0f b6 10             	movzbl (%rax),%edx
    bebe5361:	48 8b 45 f0          	mov    -0x10(%rbp),%rax
    bebe5365:	0f b6 00             	movzbl (%rax),%eax
    bebe5368:	38 c2                	cmp    %al,%dl
    bebe536a:	74 cd                	je     bebe5339 <strncmp+0x16>
    bebe536c:	48 83 7d e8 00       	cmpq   $0x0,-0x18(%rbp)
    bebe5371:	75 07                	jne    bebe537a <strncmp+0x57>
    bebe5373:	ba 00 00 00 00       	mov    $0x0,%edx
    bebe5378:	eb 16                	jmp    bebe5390 <strncmp+0x6d>
    bebe537a:	48 8b 45 f8          	mov    -0x8(%rbp),%rax
    bebe537e:	0f b6 00             	movzbl (%rax),%eax
    bebe5381:	0f b6 d0             	movzbl %al,%edx
    bebe5384:	48 8b 45 f0          	mov    -0x10(%rbp),%rax
    bebe5388:	0f b6 00             	movzbl (%rax),%eax
    bebe538b:	0f b6 c0             	movzbl %al,%eax
    bebe538e:	29 c2                	sub    %eax,%edx
    bebe5390:	89 d0                	mov    %edx,%eax
    bebe5392:	c9                   	leave
    bebe5393:	c3                   	ret

00000000bebe5394 <strcpy>:
    bebe5394:	55                   	push   %rbp
    bebe5395:	48 89 e5             	mov    %rsp,%rbp
    bebe5398:	48 83 ec 10          	sub    $0x10,%rsp
    bebe539c:	48 89 7d f8          	mov    %rdi,-0x8(%rbp)
    bebe53a0:	48 89 75 f0          	mov    %rsi,-0x10(%rbp)
    bebe53a4:	eb 1d                	jmp    bebe53c3 <strcpy+0x2f>
    bebe53a6:	48 8b 45 f0          	mov    -0x10(%rbp),%rax
    bebe53aa:	48 8d 50 01          	lea    0x1(%rax),%rdx
    bebe53ae:	48 89 55 f0          	mov    %rdx,-0x10(%rbp)
    bebe53b2:	0f b6 10             	movzbl (%rax),%edx
    bebe53b5:	48 8b 45 f8          	mov    -0x8(%rbp),%rax
    bebe53b9:	48 8d 48 01          	lea    0x1(%rax),%rcx
    bebe53bd:	48 89 4d f8          	mov    %rcx,-0x8(%rbp)
    bebe53c1:	88 10                	mov    %dl,(%rax)
    bebe53c3:	48 8b 45 f0          	mov    -0x10(%rbp),%rax
    bebe53c7:	0f b6 00             	movzbl (%rax),%eax
    bebe53ca:	84 c0                	test   %al,%al
    bebe53cc:	75 d8                	jne    bebe53a6 <strcpy+0x12>
    bebe53ce:	48 8b 45 f8          	mov    -0x8(%rbp),%rax
    bebe53d2:	c6 00 00             	movb   $0x0,(%rax)
    bebe53d5:	48 8b 45 f8          	mov    -0x8(%rbp),%rax
    bebe53d9:	c9                   	leave
    bebe53da:	c3                   	ret

00000000bebe53db <strncpy>:
    bebe53db:	55                   	push   %rbp
    bebe53dc:	48 89 e5             	mov    %rsp,%rbp
    bebe53df:	48 83 ec 28          	sub    $0x28,%rsp
    bebe53e3:	48 89 7d e8          	mov    %rdi,-0x18(%rbp)
    bebe53e7:	48 89 75 e0          	mov    %rsi,-0x20(%rbp)
    bebe53eb:	48 89 55 d8          	mov    %rdx,-0x28(%rbp)
    bebe53ef:	48 c7 45 f8 00 00 00 	movq   $0x0,-0x8(%rbp)
    bebe53f6:	00 
    bebe53f7:	eb 22                	jmp    bebe541b <strncpy+0x40>
    bebe53f9:	48 8b 45 e0          	mov    -0x20(%rbp),%rax
    bebe53fd:	48 8d 50 01          	lea    0x1(%rax),%rdx
    bebe5401:	48 89 55 e0          	mov    %rdx,-0x20(%rbp)
    bebe5405:	0f b6 10             	movzbl (%rax),%edx
    bebe5408:	48 8b 45 e8          	mov    -0x18(%rbp),%rax
    bebe540c:	48 8d 48 01          	lea    0x1(%rax),%rcx
    bebe5410:	48 89 4d e8          	mov    %rcx,-0x18(%rbp)
    bebe5414:	88 10                	mov    %dl,(%rax)
    bebe5416:	48 83 45 f8 01       	addq   $0x1,-0x8(%rbp)
    bebe541b:	48 8b 45 e0          	mov    -0x20(%rbp),%rax
    bebe541f:	0f b6 00             	movzbl (%rax),%eax
    bebe5422:	84 c0                	test   %al,%al
    bebe5424:	74 0a                	je     bebe5430 <strncpy+0x55>
    bebe5426:	48 8b 45 f8          	mov    -0x8(%rbp),%rax
    bebe542a:	48 3b 45 d8          	cmp    -0x28(%rbp),%rax
    bebe542e:	72 c9                	jb     bebe53f9 <strncpy+0x1e>
    bebe5430:	48 8b 45 e8          	mov    -0x18(%rbp),%rax
    bebe5434:	c6 00 00             	movb   $0x0,(%rax)
    bebe5437:	48 8b 45 e8          	mov    -0x18(%rbp),%rax
    bebe543b:	c9                   	leave
    bebe543c:	c3                   	ret

00000000bebe543d <strlen>:
    bebe543d:	55                   	push   %rbp
    bebe543e:	48 89 e5             	mov    %rsp,%rbp
    bebe5441:	48 83 ec 18          	sub    $0x18,%rsp
    bebe5445:	48 89 7d e8          	mov    %rdi,-0x18(%rbp)
    bebe5449:	48 8b 45 e8          	mov    -0x18(%rbp),%rax
    bebe544d:	48 89 45 f0          	mov    %rax,-0x10(%rbp)
    bebe5451:	48 8b 45 e8          	mov    -0x18(%rbp),%rax
    bebe5455:	48 89 45 f8          	mov    %rax,-0x8(%rbp)
    bebe5459:	eb 05                	jmp    bebe5460 <strlen+0x23>
    bebe545b:	48 83 45 f8 01       	addq   $0x1,-0x8(%rbp)
    bebe5460:	48 8b 45 f8          	mov    -0x8(%rbp),%rax
    bebe5464:	0f b6 00             	movzbl (%rax),%eax
    bebe5467:	84 c0                	test   %al,%al
    bebe5469:	75 f0                	jne    bebe545b <strlen+0x1e>
    bebe546b:	48 8b 45 f8          	mov    -0x8(%rbp),%rax
    bebe546f:	48 2b 45 f0          	sub    -0x10(%rbp),%rax
    bebe5473:	c9                   	leave
    bebe5474:	c3                   	ret
    bebe5475:	66 2e 0f 1f 84 00 00 	cs nopw 0x0(%rax,%rax,1)
    bebe547c:	00 00 00 
    bebe547f:	90                   	nop

00000000bebe5480 <libc_syscall>:
    bebe5480:	cd 63                	int    $0x63
    bebe5482:	c3                   	ret

00000000bebe5483 <_Znwm>:
    bebe5483:	55                   	push   %rbp
    bebe5484:	48 89 e5             	mov    %rsp,%rbp
    bebe5487:	48 83 ec 10          	sub    $0x10,%rsp
    bebe548b:	48 89 7d f8          	mov    %rdi,-0x8(%rbp)
    bebe548f:	48 8b 45 f8          	mov    -0x8(%rbp),%rax
    bebe5493:	48 89 c7             	mov    %rax,%rdi
    bebe5496:	48 b8 f9 4b be be 00 	movabs $0xbebe4bf9,%rax
    bebe549d:	00 00 00 
    bebe54a0:	ff d0                	call   *%rax
    bebe54a2:	c9                   	leave
    bebe54a3:	c3                   	ret

00000000bebe54a4 <_Znam>:
    bebe54a4:	55                   	push   %rbp
    bebe54a5:	48 89 e5             	mov    %rsp,%rbp
    bebe54a8:	48 83 ec 10          	sub    $0x10,%rsp
    bebe54ac:	48 89 7d f8          	mov    %rdi,-0x8(%rbp)
    bebe54b0:	48 8b 45 f8          	mov    -0x8(%rbp),%rax
    bebe54b4:	48 89 c7             	mov    %rax,%rdi
    bebe54b7:	48 b8 f9 4b be be 00 	movabs $0xbebe4bf9,%rax
    bebe54be:	00 00 00 
    bebe54c1:	ff d0                	call   *%rax
    bebe54c3:	c9                   	leave
    bebe54c4:	c3                   	ret

00000000bebe54c5 <_ZdlPv>:
    bebe54c5:	55                   	push   %rbp
    bebe54c6:	48 89 e5             	mov    %rsp,%rbp
    bebe54c9:	48 83 ec 10          	sub    $0x10,%rsp
    bebe54cd:	48 89 7d f8          	mov    %rdi,-0x8(%rbp)
    bebe54d1:	48 8b 45 f8          	mov    -0x8(%rbp),%rax
    bebe54d5:	48 89 c7             	mov    %rax,%rdi
    bebe54d8:	48 b8 70 4c be be 00 	movabs $0xbebe4c70,%rax
    bebe54df:	00 00 00 
    bebe54e2:	ff d0                	call   *%rax
    bebe54e4:	90                   	nop
    bebe54e5:	c9                   	leave
    bebe54e6:	c3                   	ret

00000000bebe54e7 <_ZdlPvm>:
    bebe54e7:	55                   	push   %rbp
    bebe54e8:	48 89 e5             	mov    %rsp,%rbp
    bebe54eb:	48 83 ec 10          	sub    $0x10,%rsp
    bebe54ef:	48 89 7d f8          	mov    %rdi,-0x8(%rbp)
    bebe54f3:	48 89 75 f0          	mov    %rsi,-0x10(%rbp)
    bebe54f7:	48 8b 45 f8          	mov    -0x8(%rbp),%rax
    bebe54fb:	48 89 c7             	mov    %rax,%rdi
    bebe54fe:	48 b8 70 4c be be 00 	movabs $0xbebe4c70,%rax
    bebe5505:	00 00 00 
    bebe5508:	ff d0                	call   *%rax
    bebe550a:	90                   	nop
    bebe550b:	c9                   	leave
    bebe550c:	c3                   	ret

00000000bebe550d <_ZdaPv>:
    bebe550d:	55                   	push   %rbp
    bebe550e:	48 89 e5             	mov    %rsp,%rbp
    bebe5511:	48 83 ec 10          	sub    $0x10,%rsp
    bebe5515:	48 89 7d f8          	mov    %rdi,-0x8(%rbp)
    bebe5519:	48 8b 45 f8          	mov    -0x8(%rbp),%rax
    bebe551d:	48 89 c7             	mov    %rax,%rdi
    bebe5520:	48 b8 70 4c be be 00 	movabs $0xbebe4c70,%rax
    bebe5527:	00 00 00 
    bebe552a:	ff d0                	call   *%rax
    bebe552c:	90                   	nop
    bebe552d:	c9                   	leave
    bebe552e:	c3                   	ret

00000000bebe552f <_ZdaPvm>:
    bebe552f:	55                   	push   %rbp
    bebe5530:	48 89 e5             	mov    %rsp,%rbp
    bebe5533:	48 83 ec 10          	sub    $0x10,%rsp
    bebe5537:	48 89 7d f8          	mov    %rdi,-0x8(%rbp)
    bebe553b:	48 89 75 f0          	mov    %rsi,-0x10(%rbp)
    bebe553f:	48 8b 45 f8          	mov    -0x8(%rbp),%rax
    bebe5543:	48 89 c7             	mov    %rax,%rdi
    bebe5546:	48 b8 70 4c be be 00 	movabs $0xbebe4c70,%rax
    bebe554d:	00 00 00 
    bebe5550:	ff d0                	call   *%rax
    bebe5552:	90                   	nop
    bebe5553:	c9                   	leave
    bebe5554:	c3                   	ret
00000000  55 48 89 e5 48 83 ec 18  48 89 7d f8 48 89 75 f0  |UH..H...H.}.H.u.|
00000010  48 89 55 e8 48 b8 a0 64  be be 00 00 00 00 8b 00  |H.U.H..d........|
00000020  83 f8 7f 76 0a b8 ff ff  ff ff e9 b5 00 00 00 48  |...v...........H|
00000030  b8 a0 64 be be 00 00 00  00 8b 00 48 ba a0 58 be  |..d........H..X.|
00000040  be 00 00 00 00 89 c1 48  89 c8 48 01 c0 48 01 c8  |.......H..H..H..|
00000050  48 c1 e0 03 48 01 c2 48  8b 45 f8 48 89 02 48 b8  |H...H..H.E.H..H.|
00000060  a0 64 be be 00 00 00 00  8b 00 48 ba a0 58 be be  |.d........H..X..|
00000070  00 00 00 00 89 c1 48 89  c8 48 01 c0 48 01 c8 48  |......H..H..H..H|
00000080  c1 e0 03 48 01 d0 48 8d  50 08 48 8b 45 f0 48 89  |...H..H.P.H.E.H.|
00000090  02 48 b8 a0 64 be be 00  00 00 00 8b 00 48 ba a0  |.H..d........H..|
000000a0  58 be be 00 00 00 00 89  c1 48 89 c8 48 01 c0 48  |X........H..H..H|
000000b0  01 c8 48 c1 e0 03 48 01  d0 48 8d 50 10 48 8b 45  |..H...H..H.P.H.E|
000000c0  e8 48 89 02 48 b8 a0 64  be be 00 00 00 00 8b 00  |.H..H..d........|
000000d0  8d 50 01 48 b8 a0 64 be  be 00 00 00 00 89 10 b8  |.P.H..d.........|
000000e0  00 00 00 00 c9 c3 55 48  89 e5 48 83 ec 20 48 89  |......UH..H.. H.|
000000f0  7d e8 48 b8 a0 64 be be  00 00 00 00 8b 00 89 45  |}.H..d.........E|
00000100  fc 48 83 7d e8 00 0f 85  1a 01 00 00 eb 6e 48 b9  |.H.}.........nH.|
00000110  a0 58 be be 00 00 00 00  8b 55 fc 48 89 d0 48 01  |.X.......U.H..H.|
00000120  c0 48 01 d0 48 c1 e0 03  48 01 c8 48 8b 00 48 85  |.H..H...H..H..H.|
00000130  c0 74 49 48 b9 a0 58 be  be 00 00 00 00 8b 55 fc  |.tIH..X.......U.|
00000140  48 89 d0 48 01 c0 48 01  d0 48 c1 e0 03 48 01 c8  |H..H..H..H...H..|
00000150  48 8b 08 48 be a0 58 be  be 00 00 00 00 8b 55 fc  |H..H..X.......U.|
00000160  48 89 d0 48 01 c0 48 01  d0 48 c1 e0 03 48 01 f0  |H..H..H..H...H..|
00000170  48 83 c0 08 48 8b 00 48  89 c7 ff d1 8b 45 fc 8d  |H...H..H.....E..|
00000180  50 ff 89 55 fc 85 c0 0f  95 c0 84 c0 75 80 e9 a9  |P..U........u...|
00000190  00 00 00 48 b9 a0 58 be  be 00 00 00 00 8b 55 fc  |...H..X.......U.|
000001a0  48 89 d0 48 01 c0 48 01  d0 48 c1 e0 03 48 01 c8  |H..H..H..H...H..|
000001b0  48 8b 00 48 39 45 e8 75  6d 48 b9 a0 58 be be 00  |H..H9E.umH..X...|
000001c0  00 00 00 8b 55 fc 48 89  d0 48 01 c0 48 01 d0 48  |....U.H..H..H..H|
000001d0  c1 e0 03 48 01 c8 48 8b  08 48 be a0 58 be be 00  |...H..H..H..X...|
000001e0  00 00 00 8b 55 fc 48 89  d0 48 01 c0 48 01 d0 48  |....U.H..H..H..H|
000001f0  c1 e0 03 48 01 f0 48 83  c0 08 48 8b 00 48 89 c7  |...H..H...H..H..|
00000200  ff d1 48 b9 a0 58 be be  00 00 00 00 8b 55 fc 48  |..H..X.......U.H|
00000210  89 d0 48 01 c0 48 01 d0  48 c1 e0 03 48 01 c8 48  |..H..H..H...H..H|
00000220  c7 00 00 00 00 00 8b 45  fc 8d 50 ff 89 55 fc 85  |.......E..P..U..|
00000230  c0 0f 95 c0 84 c0 0f 85  57 ff ff ff c9 c3 55 48  |........W.....UH|
00000240  89 e5 48 83 ec 08 48 89  7d f8 48 8b 45 f8 0f b6  |..H...H.}.H.E...|
00000250  00 84 c0 0f 94 c0 0f b6  c0 c9 c3 55 48 89 e5 48  |...........UH..H|
00000260  83 ec 08 48 89 7d f8 48  8b 45 f8 c6 00 01 90 c9  |...H.}.H.E......|
00000270  c3 55 48 89 e5 48 83 ec  08 48 89 7d f8 90 c9 c3  |.UH..H...H.}....|
00000280  55 48 89 e5 90 5d c3 55  48 89 e5 48 83 ec 10 48  |UH...].UH..H...H|
00000290  b8 70 58 be be 00 00 00  00 48 89 45 f8 eb 0e 48  |.pX......H.E...H|
000002a0  8b 45 f8 48 8b 00 ff d0  48 83 45 f8 08 48 b8 80  |.E.H....H.E..H..|
000002b0  58 be be 00 00 00 00 48  39 45 f8 72 e2 90 90 c9  |X......H9E.r....|
000002c0  c3 55 48 89 e5 48 83 ec  20 89 7d ec 48 89 75 e0  |.UH..H.. .}.H.u.|
000002d0  48 b8 87 02 be be 00 00  00 00 ff d0 48 b8 fe 3e  |H...........H..>|
000002e0  be be 00 00 00 00 ff d0  48 8b 55 e0 8b 45 ec 48  |........H.U..E.H|
000002f0  89 d6 89 c7 48 b8 08 03  be be 00 00 00 00 ff d0  |....H...........|
00000300  89 45 fc 8b 45 fc c9 c3  55 48 89 e5 48 81 ec 90  |.E..E...UH..H...|
00000310  00 00 00 89 bd 7c ff ff  ff 48 89 b5 70 ff ff ff  |.....|...H..p...|
00000320  48 8d 55 a0 b8 00 00 00  00 b9 0c 00 00 00 48 89  |H.U...........H.|
00000330  d7 f3 48 ab c7 45 a0 07  00 00 00 48 8d 45 a0 48  |..H..E.....H.E.H|
00000340  89 c7 48 b8 00 37 be be  00 00 00 00 ff d0 48 8b  |..H..7........H.|
00000350  4d f8 48 8d 45 80 ba 20  00 00 00 48 89 ce 48 89  |M.H.E.. ...H..H.|
00000360  c7 48 b8 25 51 be be 00  00 00 00 ff d0 eb 35 48  |.H.%Q.........5H|
00000370  8b 45 88 8b 00 89 c6 48  b8 60 55 be be 00 00 00  |.E.....H.`U.....|
00000380  00 48 89 c7 b8 00 00 00  00 48 ba cf 49 be be 00  |.H.......H..I...|
00000390  00 00 00 ff d2 48 8b 45  88 8b 10 48 8b 45 88 83  |.....H.E...H.E..|
000003a0  c2 01 89 10 48 8b 45 88  8b 00 3d f9 00 00 00 7e  |....H.E...=....~|
000003b0  be b8 d2 04 00 00 c9 c3  55 48 89 e5 48 83 ec 08  |........UH..H...|
000003c0  48 89 7d f8 48 83 6d f8  01 48 8b 45 f8 48 d1 e8  |H.}.H.m..H.E.H..|
000003d0  48 09 45 f8 48 8b 45 f8  48 c1 e8 02 48 09 45 f8  |H.E.H.E.H...H.E.|
000003e0  48 8b 45 f8 48 c1 e8 04  48 09 45 f8 48 8b 45 f8  |H.E.H...H.E.H.E.|
000003f0  48 c1 e8 08 48 09 45 f8  48 8b 45 f8 48 c1 e8 10  |H...H.E.H.E.H...|
00000400  48 09 45 f8 48 8b 45 f8  48 c1 e8 20 48 09 45 f8  |H.E.H.E.H.. H.E.|
00000410  48 83 45 f8 01 48 8b 45  f8 c9 c3 55 48 89 e5 48  |H.E..H.E...UH..H|
00000420  83 ec 08 89 7d fc 83 6d  fc 01 8b 45 fc d1 e8 25  |....}..m...E...%|
00000430  55 55 55 55 29 45 fc 8b  45 fc 25 33 33 33 33 89  |UUUU)E..E.%3333.|
00000440  c2 8b 45 fc c1 e8 02 25  33 33 33 33 01 d0 89 45  |..E....%3333...E|
00000450  fc 8b 45 fc c1 e8 04 89  c2 8b 45 fc 01 d0 25 0f  |..E.......E...%.|
00000460  0f 0f 0f 69 c0 01 01 01  01 c1 e8 18 c9 c3 55 48  |...i..........UH|
00000470  89 e5 48 83 ec 08 48 89  7d f8 48 8b 45 f8 48 c7  |..H...H.}.H.E.H.|
00000480  00 00 00 00 00 48 8b 45  f8 48 c7 40 08 00 00 00  |.....H.E.H.@....|
00000490  00 48 8b 45 f8 48 c7 40  10 00 00 00 00 90 c9 c3  |.H.E.H.@........|
000004a0  55 48 89 e5 48 81 ec 70  01 00 00 48 89 bd 98 fe  |UH..H..p...H....|
000004b0  ff ff 48 89 b5 90 fe ff  ff 48 8d 45 9f 48 ba 88  |..H......H.E.H..|
000004c0  55 be be 00 00 00 00 48  89 d6 48 89 c7 48 b8 12  |U......H..H..H..|
000004d0  11 be be 00 00 00 00 ff  d0 48 c7 85 a0 fe ff ff  |.........H......|
000004e0  00 00 00 00 48 c7 85 a8  fe ff ff 00 00 00 00 48  |....H..........H|
000004f0  c7 85 b0 fe ff ff 00 00  00 00 48 c7 85 b8 fe ff  |..........H.....|
00000500  ff 00 00 00 00 48 c7 85  c0 fe ff ff 00 00 00 00  |.....H..........|
00000510  48 c7 85 c8 fe ff ff 00  00 00 00 48 c7 85 d0 fe  |H..........H....|
00000520  ff ff 00 01 00 00 48 c7  85 d8 fe ff ff 00 01 00  |......H.........|
00000530  00 48 c7 85 e0 fe ff ff  00 01 00 00 48 c7 85 e8  |.H..........H...|
00000540  fe ff ff 00 01 00 00 48  c7 85 f0 fe ff ff 00 01  |.......H........|
00000550  00 00 48 c7 85 f8 fe ff  ff 00 01 00 00 48 c7 85  |..H..........H..|
00000560  00 ff ff ff 40 00 00 00  48 c7 85 08 ff ff ff 20  |....@...H...... |
00000570  00 00 00 48 c7 85 10 ff  ff ff 20 00 00 00 48 c7  |...H...... ...H.|
00000580  85 18 ff ff ff 10 00 00  00 48 c7 85 20 ff ff ff  |.........H.. ...|
00000590  10 00 00 00 48 c7 85 28  ff ff ff 10 00 00 00 48  |....H..(.......H|
000005a0  c7 85 30 ff ff ff 20 00  00 00 48 c7 85 38 ff ff  |..0... ...H..8..|
000005b0  ff 20 00 00 00 48 c7 85  40 ff ff ff 10 00 00 00  |. ...H..@.......|
000005c0  48 c7 85 48 ff ff ff 10  00 00 00 48 c7 85 50 ff  |H..H.......H..P.|
000005d0  ff ff 10 00 00 00 48 c7  85 58 ff ff ff 10 00 00  |......H..X......|
000005e0  00 48 c7 85 60 ff ff ff  04 00 00 00 48 c7 85 68  |.H..`.......H..h|
000005f0  ff ff ff 04 00 00 00 48  c7 85 70 ff ff ff 02 00  |.......H..p.....|
00000600  00 00 48 c7 85 78 ff ff  ff 02 00 00 00 48 c7 45  |..H..x.......H.E|
00000610  80 01 00 00 00 48 c7 45  88 00 00 00 00 48 c7 45  |.....H.E.....H.E|
00000620  f8 00 00 00 00 48 c7 45  f0 00 00 00 00 eb 2b 48  |.....H.E......+H|
00000630  8b 45 f0 ba 01 00 00 00  89 c1 d3 e2 89 d0 48 63  |.E............Hc|
00000640  d0 48 8b 45 f0 48 8b 84  c5 a0 fe ff ff 48 0f af  |.H.E.H.......H..|
00000650  c2 48 01 45 f8 48 83 45  f0 01 48 83 7d f0 1d 76  |.H.E.H.E..H.}..v|
00000660  ce 48 8b 85 90 fe ff ff  be 01 00 00 00 48 89 c7  |.H...........H..|
00000670  48 b8 f8 0b be be 00 00  00 00 ff d0 48 8b 95 98  |H...........H...|
00000680  fe ff ff 48 89 02 48 8b  55 f8 48 8b 85 90 fe ff  |...H..H.U.H.....|
00000690  ff 48 89 d6 48 89 c7 48  b8 30 0c be be 00 00 00  |.H..H..H.0......|
000006a0  00 ff d0 48 8b 95 98 fe  ff ff 48 89 42 08 48 8b  |...H......H.B.H.|
000006b0  85 98 fe ff ff 48 8b 50  08 48 8b 45 f8 48 01 c2  |.....H.P.H.E.H..|
000006c0  48 8b 85 98 fe ff ff 48  89 50 10 48 8b 85 98 fe  |H......H.P.H....|
000006d0  ff ff 48 8b 40 08 48 89  45 90 48 c7 45 e8 07 00  |..H.@.H.E.H.E...|
000006e0  00 00 e9 02 01 00 00 48  8b 45 e8 ba 01 00 00 00  |.......H.E......|
000006f0  89 c1 d3 e2 89 d0 48 98  48 89 45 d8 48 8b 45 e8  |......H.H.E.H.E.|
00000700  48 8b 84 c5 a0 fe ff ff  48 89 45 d0 48 8b 85 98  |H.......H.E.H...|
00000710  fe ff ff 48 8b 00 48 8b  55 e8 89 d6 48 89 c7 48  |...H..H.U...H..H|
00000720  b8 62 0c be be 00 00 00  00 ff d0 48 89 45 c8 48  |.b.........H.E.H|
00000730  8b 55 d0 48 8b 85 90 fe  ff ff 48 89 d6 48 89 c7  |.U.H......H..H..|
00000740  48 b8 8a 0c be be 00 00  00 00 ff d0 48 89 c2 48  |H...........H..H|
00000750  8b 4d d0 48 8d 45 a0 48  89 ce 48 89 c7 48 b8 c4  |.M.H.E.H..H..H..|
00000760  0c be be 00 00 00 00 ff  d0 48 8d 75 a0 48 8b 4d  |.........H.u.H.M|
00000770  c8 48 8b 06 48 8b 56 08  48 89 01 48 89 51 08 48  |.H..H.V.H..H.Q.H|
00000780  8b 46 10 48 8b 56 18 48  89 41 10 48 89 51 18 48  |.F.H.V.H.A.H.Q.H|
00000790  8d 45 a0 48 89 c7 48 b8  1a 0d be be 00 00 00 00  |.E.H..H.........|
000007a0  ff d0 48 c7 45 e0 00 00  00 00 eb 2e 48 8d 55 90  |..H.E.......H.U.|
000007b0  48 8b 45 c8 48 89 d6 48  89 c7 48 b8 58 0d be be  |H.E.H..H..H.X...|
000007c0  00 00 00 00 ff d0 48 8b  55 90 48 8b 45 d8 48 01  |......H.U.H.E.H.|
000007d0  d0 48 89 45 90 48 83 45  e0 01 48 8b 45 e0 48 3b  |.H.E.H.E..H.E.H;|
000007e0  45 d0 72 c8 48 83 45 e8  01 48 83 7d e8 1c 0f 86  |E.r.H.E..H.}....|
000007f0  f3 fe ff ff 48 8b 55 f8  48 8d 45 9f 48 b9 a9 55  |....H.U.H.E.H..U|
00000800  be be 00 00 00 00 48 89  ce 48 89 c7 b8 00 00 00  |......H..H......|
00000810  00 48 b9 fa 12 be be 00  00 00 00 ff d1 48 8b 45  |.H...........H.E|
00000820  f8 48 c1 e8 0a 48 89 c2  48 8d 45 9f 48 b9 b6 55  |.H...H..H.E.H..U|
00000830  be be 00 00 00 00 48 89  ce 48 89 c7 b8 00 00 00  |......H..H......|
00000840  00 48 b9 fa 12 be be 00  00 00 00 ff d1 48 8b 45  |.H...........H.E|
00000850  f8 48 c1 e8 14 48 89 c2  48 8d 45 9f 48 b9 c4 55  |.H...H..H.E.H..U|
00000860  be be 00 00 00 00 48 89  ce 48 89 c7 b8 00 00 00  |......H..H......|
00000870  00 48 b9 fa 12 be be 00  00 00 00 ff d1 48 8b 85  |.H...........H..|
00000880  98 fe ff ff 48 8b 50 08  48 8d 45 9f 48 b9 d2 55  |....H.P.H.E.H..U|
00000890  be be 00 00 00 00 48 89  ce 48 89 c7 b8 00 00 00  |......H..H......|
000008a0  00 48 b9 fa 12 be be 00  00 00 00 ff d1 48 8b 85  |.H...........H..|
000008b0  98 fe ff ff 48 8b 50 10  48 8d 45 9f 48 b9 e0 55  |....H.P.H.E.H..U|
000008c0  be be 00 00 00 00 48 89  ce 48 89 c7 b8 00 00 00  |......H..H......|
000008d0  00 48 b9 fa 12 be be 00  00 00 00 ff d1 48 8b 85  |.H...........H..|
000008e0  98 fe ff ff 48 8b 50 10  48 8b 85 98 fe ff ff 48  |....H.P.H......H|
000008f0  8b 40 08 48 29 c2 48 8d  45 9f 48 b9 ee 55 be be  |.@.H).H.E.H..U..|
00000900  00 00 00 00 48 89 ce 48  89 c7 b8 00 00 00 00 48  |....H..H.......H|
00000910  b9 fa 12 be be 00 00 00  00 ff d1 48 8b 55 90 48  |...........H.U.H|
00000920  8d 45 9f 48 b9 fa 55 be  be 00 00 00 00 48 89 ce  |.E.H..U......H..|
00000930  48 89 c7 b8 00 00 00 00  48 b9 fa 12 be be 00 00  |H.......H.......|
00000940  00 00 ff d1 48 8d 45 9f  48 89 c7 48 b8 8e 11 be  |....H.E.H..H....|
00000950  be 00 00 00 00 ff d0 90  c9 c3 55 48 89 e5 48 83  |..........UH..H.|
00000960  ec 30 48 89 7d d8 48 89  75 d0 48 8b 45 d0 48 89  |.0H.}.H.u.H.E.H.|
00000970  c7 48 b8 b8 03 be be 00  00 00 00 ff d0 89 c7 48  |.H.............H|
00000980  b8 1b 04 be be 00 00 00  00 ff d0 83 c0 01 89 45  |...............E|
00000990  ec c7 45 f0 1c 00 00 00  c7 45 f4 07 00 00 00 48  |..E......E.....H|
000009a0  8d 55 f0 48 8d 4d f4 48  8d 45 ec 48 89 ce 48 89  |.U.H.M.H.E.H..H.|
000009b0  c7 48 b8 91 0d be be 00  00 00 00 ff d0 8b 00 89  |.H..............|
000009c0  45 ec 48 8b 45 d8 48 8b  00 8b 55 ec 89 d6 48 89  |E.H.E.H...U...H.|
000009d0  c7 48 b8 62 0c be be 00  00 00 00 ff d0 48 89 45  |.H.b.........H.E|
000009e0  f8 eb 28 8b 45 ec 83 c0  01 89 45 ec 48 8b 45 d8  |..(.E.....E.H.E.|
000009f0  48 8b 00 8b 55 ec 89 d6  48 89 c7 48 b8 62 0c be  |H...U...H..H.b..|
00000a00  be 00 00 00 00 ff d0 48  89 45 f8 48 8b 45 f8 48  |.......H.E.H.E.H|
00000a10  89 c7 48 b8 da 0d be be  00 00 00 00 ff d0 84 c0  |..H.............|
00000a20  74 0f 8b 45 ec 83 f8 1b  7f 07 b8 01 00 00 00 eb  |t..E............|
00000a30  05 b8 00 00 00 00 84 c0  75 a9 48 8b 45 f8 48 89  |........u.H.E.H.|
00000a40  c7 48 b8 da 0d be be 00  00 00 00 ff d0 84 c0 74  |.H.............t|
00000a50  07 b8 ff ff ff ff eb 03  8b 45 ec c9 c3 90 55 48  |.........E....UH|
00000a60  89 e5 48 83 ec 20 48 89  7d e8 48 89 75 e0 48 8b  |..H.. H.}.H.u.H.|
00000a70  45 e8 48 8b 00 48 8b 55  e0 89 d6 48 89 c7 48 b8  |E.H..H.U...H..H.|
00000a80  62 0c be be 00 00 00 00  ff d0 48 89 45 f8 48 8b  |b.........H.E.H.|
00000a90  45 f8 48 89 c7 48 b8 fe  0d be be 00 00 00 00 ff  |E.H..H..........|
00000aa0  d0 48 8b 00 48 89 45 f0  48 8b 45 f8 48 89 c7 48  |.H..H.E.H.E.H..H|
00000ab0  b8 18 0e be be 00 00 00  00 ff d0 48 8b 45 f0 c9  |...........H.E..|
00000ac0  c3 90 55 48 89 e5 48 83  ec 50 48 89 7d c8 48 89  |..UH..H..PH.}.H.|
00000ad0  75 c0 48 89 55 b8 48 8b  55 c0 48 8b 45 c8 48 89  |u.H.U.H.U.H.E.H.|
00000ae0  d6 48 89 c7 48 b8 5a 09  be be 00 00 00 00 ff d0  |.H..H.Z.........|
00000af0  89 45 fc 83 7d fc ff 75  13 48 b8 3b 0e be be 00  |.E..}..u.H.;....|
00000b00  00 00 00 ff d0 b8 00 00  00 00 eb 73 8b 45 fc 48  |...........s.E.H|
00000b10  63 d0 48 8b 45 c8 48 89  d6 48 89 c7 48 b8 5e 0a  |c.H.E.H..H..H.^.|
00000b20  be be 00 00 00 00 ff d0  48 89 45 f0 48 8b 45 f0  |........H.E.H.E.|
00000b30  48 89 45 e8 48 8b 45 e8  48 8d 50 10 48 8b 45 b8  |H.E.H.E.H.P.H.E.|
00000b40  48 89 c6 48 89 d7 48 b8  44 0e be be 00 00 00 00  |H..H..H.D.......|
00000b50  ff d0 48 89 45 e0 48 8b  45 e0 48 83 e8 10 48 89  |..H.E.H.E.H...H.|
00000b60  45 d8 48 8b 4d f0 8b 45  fc 48 63 d0 48 8b 45 d8  |E.H.M..E.Hc.H.E.|
00000b70  48 89 08 48 8b 45 d8 48  89 50 08 48 8b 45 e0 c9  |H..H.E.H.P.H.E..|
00000b80  c3 90 55 48 89 e5 48 83  ec 30 48 89 7d d8 48 89  |..UH..H..0H.}.H.|
00000b90  75 d0 48 8b 45 d0 48 89  45 f8 48 8b 45 f8 48 83  |u.H.E.H.E.H.E.H.|
00000ba0  e8 10 48 89 45 f0 48 8b  45 d8 48 8b 00 48 8b 55  |..H.E.H.E.H..H.U|
00000bb0  f0 48 8b 52 08 89 d6 48  89 c7 48 b8 62 0c be be  |.H.R...H..H.b...|
00000bc0  00 00 00 00 ff d0 48 89  45 e8 48 8b 55 f0 48 8b  |......H.E.H.U.H.|
00000bd0  45 e8 48 89 d6 48 89 c7  48 b8 58 0d be be 00 00  |E.H..H..H.X.....|
00000be0  00 00 ff d0 90 c9 c3 90  55 48 89 e5 48 83 ec 08  |........UH..H...|
00000bf0  48 89 7d f8 90 c9 c3 90  55 48 89 e5 48 83 ec 10  |H.}.....UH..H...|
00000c00  48 89 7d f8 48 89 75 f0  48 8b 45 f0 48 69 c8 98  |H.}.H.u.H.E.Hi..|
00000c10  03 00 00 48 8b 45 f8 ba  08 00 00 00 48 89 ce 48  |...H.E......H..H|
00000c20  89 c7 48 b8 0a 10 be be  00 00 00 00 ff d0 c9 c3  |..H.............|
00000c30  55 48 89 e5 48 83 ec 10  48 89 7d f8 48 89 75 f0  |UH..H...H.}.H.u.|
00000c40  48 8b 4d f0 48 8b 45 f8  ba 01 00 00 00 48 89 ce  |H.M.H.E......H..|
00000c50  48 89 c7 48 b8 0a 10 be  be 00 00 00 00 ff d0 c9  |H..H............|
00000c60  c3 90 55 48 89 e5 48 83  ec 10 48 89 7d f8 89 75  |..UH..H...H.}..u|
00000c70  f4 8b 45 f4 48 98 48 c1  e0 05 48 89 c2 48 8b 45  |..E.H.H...H..H.E|
00000c80  f8 48 01 d0 48 83 c0 08  c9 c3 55 48 89 e5 48 83  |.H..H.....UH..H.|
00000c90  ec 10 48 89 7d f8 48 89  75 f0 48 8b 45 f0 48 8d  |..H.}.H.u.H.E.H.|
00000ca0  0c c5 00 00 00 00 48 8b  45 f8 ba 08 00 00 00 48  |......H.E......H|
00000cb0  89 ce 48 89 c7 48 b8 0a  10 be be 00 00 00 00 ff  |..H..H..........|
00000cc0  d0 c9 c3 90 55 48 89 e5  48 83 ec 18 48 89 7d f8  |....UH..H...H.}.|
00000cd0  48 89 75 f0 48 89 55 e8  48 8b 45 f8 c6 00 00 48  |H.u.H.U.H.E....H|
00000ce0  8b 45 f8 48 8b 55 e8 48  89 50 08 48 8b 45 f0 48  |.E.H.U.H.P.H.E.H|
00000cf0  8d 14 c5 00 00 00 00 48  8b 45 e8 48 01 c2 48 8b  |.......H.E.H..H.|
00000d00  45 f8 48 89 50 10 48 8b  45 f8 48 8b 50 08 48 8b  |E.H.P.H.E.H.P.H.|
00000d10  45 f8 48 89 50 18 90 c9  c3 90 55 48 89 e5 48 83  |E.H.P.....UH..H.|
00000d20  ec 10 48 89 7d f8 48 8b  45 f8 0f b6 00 84 c0 74  |..H.}.H.E......t|
00000d30  24 48 8b 45 f8 48 8b 40  08 48 85 c0 74 17 48 8b  |$H.E.H.@.H..t.H.|
00000d40  45 f8 48 8b 40 08 48 89  c7 48 b8 0d 55 be be 00  |E.H.@.H..H..U...|
00000d50  00 00 00 ff d0 90 c9 c3  55 48 89 e5 48 83 ec 10  |........UH..H...|
00000d60  48 89 7d f8 48 89 75 f0  48 8b 45 f8 48 8b 40 18  |H.}.H.u.H.E.H.@.|
00000d70  48 8b 55 f0 48 8b 12 48  89 10 48 8b 45 f8 48 8b  |H.U.H..H..H.E.H.|
00000d80  40 18 48 8d 50 08 48 8b  45 f8 48 89 50 18 90 c9  |@.H.P.H.E.H.P...|
00000d90  c3 55 48 89 e5 48 83 ec  20 48 89 7d f8 48 89 75  |.UH..H.. H.}.H.u|
00000da0  f0 48 89 55 e8 48 8b 55  e8 48 8b 45 f8 48 89 d6  |.H.U.H.U.H.E.H..|
00000db0  48 89 c7 48 b8 77 0e be  be 00 00 00 00 ff d0 48  |H..H.w.........H|
00000dc0  89 c2 48 8b 45 f0 48 89  d6 48 89 c7 48 b8 a3 0e  |..H.E.H..H..H...|
00000dd0  be be 00 00 00 00 ff d0  c9 c3 55 48 89 e5 48 83  |..........UH..H.|
00000de0  ec 08 48 89 7d f8 48 8b  45 f8 48 8b 50 18 48 8b  |..H.}.H.E.H.P.H.|
00000df0  45 f8 48 8b 40 08 48 39  c2 0f 94 c0 c9 c3 55 48  |E.H.@.H9......UH|
00000e00  89 e5 48 83 ec 08 48 89  7d f8 48 8b 45 f8 48 8b  |..H...H.}.H.E.H.|
00000e10  40 18 48 83 e8 08 c9 c3  55 48 89 e5 48 83 ec 08  |@.H.....UH..H...|
00000e20  48 89 7d f8 48 8b 45 f8  48 8b 40 18 48 8d 50 f8  |H.}.H.E.H.@.H.P.|
00000e30  48 8b 45 f8 48 89 50 18  90 c9 c3 55 48 89 e5 cd  |H.E.H.P....UH...|
00000e40  36 90 5d c3 55 48 89 e5  48 83 ec 20 48 89 7d e8  |6.].UH..H.. H.}.|
00000e50  48 89 75 e0 48 8b 45 e8  48 89 45 f8 48 8b 55 f8  |H.u.H.E.H.E.H.U.|
00000e60  48 8b 45 e0 48 01 d0 48  8d 50 ff 48 8b 45 e0 48  |H.E.H..H.P.H.E.H|
00000e70  f7 d8 48 21 d0 c9 c3 55  48 89 e5 48 83 ec 10 48  |..H!...UH..H...H|
00000e80  89 7d f8 48 89 75 f0 48  8b 45 f8 8b 10 48 8b 45  |.}.H.u.H.E...H.E|
00000e90  f0 8b 00 39 c2 7d 06 48  8b 45 f8 eb 04 48 8b 45  |...9.}.H.E...H.E|
00000ea0  f0 c9 c3 55 48 89 e5 48  83 ec 10 48 89 7d f8 48  |...UH..H...H.}.H|
00000eb0  89 75 f0 48 8b 45 f8 8b  10 48 8b 45 f0 8b 00 39  |.u.H.E...H.E...9|
00000ec0  c2 7e 06 48 8b 45 f8 eb  04 48 8b 45 f0 c9 c3 55  |.~.H.E...H.E...U|
00000ed0  48 89 e5 48 83 ec 18 89  f8 66 89 45 ec 0f b7 45  |H..H.....f.E...E|
00000ee0  ec 89 c2 ec 88 45 ff 0f  b6 45 ff c9 c3 55 48 89  |.....E...E...UH.|
00000ef0  e5 48 83 ec 18 89 f8 66  89 45 ec 0f b7 45 ec 89  |.H.....f.E...E..|
00000f00  c2 66 ed 66 89 45 fe 0f  b7 45 fe c9 c3 55 48 89  |.f.f.E...E...UH.|
00000f10  e5 48 83 ec 18 89 f8 66  89 45 ec 0f b7 45 ec 89  |.H.....f.E...E..|
00000f20  c2 ed 89 45 fc 8b 45 fc  c9 c3 55 48 89 e5 48 83  |...E..E...UH..H.|
00000f30  ec 08 89 fa 89 f0 66 89  55 fc 88 45 f8 0f b6 45  |......f.U..E...E|
00000f40  f8 0f b7 55 fc ee 90 c9  c3 55 48 89 e5 48 83 ec  |...U.....UH..H..|
00000f50  08 89 fa 89 f0 66 89 55  fc 66 89 45 f8 0f b7 45  |.....f.U.f.E...E|
00000f60  f8 0f b7 55 fc 66 ef 90  c9 c3 55 48 89 e5 48 83  |...U.f....UH..H.|
00000f70  ec 08 89 f8 89 75 f8 66  89 45 fc 8b 45 f8 0f b7  |.....u.f.E..E...|
00000f80  55 fc ef 90 c9 c3 55 48  89 e5 be 00 00 00 00 bf  |U.....UH........|
00000f90  80 00 00 00 48 b8 2a 0f  be be 00 00 00 00 ff d0  |....H.*.........|
00000fa0  90 5d c3 90 55 48 89 e5  48 83 ec 18 48 89 7d f8  |.]..UH..H...H.}.|
00000fb0  48 89 75 f0 48 89 55 e8  48 8b 45 f8 48 8b 55 e8  |H.u.H.U.H.E.H.U.|
00000fc0  48 89 10 48 8b 55 f0 48  8b 45 f8 48 89 50 08 48  |H..H.U.H.E.H.P.H|
00000fd0  8b 45 f8 48 8b 50 08 48  8b 45 f8 48 89 50 10 48  |.E.H.P.H.E.H.P.H|
00000fe0  8b 45 f8 48 8b 50 08 48  8b 45 e8 48 01 c2 48 8b  |.E.H.P.H.E.H..H.|
00000ff0  45 f8 48 89 50 18 90 c9  c3 90 55 48 89 e5 48 83  |E.H.P.....UH..H.|
00001000  ec 08 48 89 7d f8 90 c9  c3 90 55 48 89 e5 48 83  |..H.}.....UH..H.|
00001010  ec 20 48 89 7d f8 48 89  75 f0 48 89 55 e8 48 8b  |. H.}.H.u.H.U.H.|
00001020  45 f8 48 8b 50 10 48 8b  45 e8 48 01 d0 48 8d 50  |E.H.P.H.E.H..H.P|
00001030  ff 48 8b 45 e8 48 f7 d8  48 21 c2 48 8b 45 f8 48  |.H.E.H..H!.H.E.H|
00001040  89 50 10 48 8b 45 f8 48  8b 50 10 48 8b 45 f0 48  |.P.H.E.H.P.H.E.H|
00001050  01 c2 48 8b 45 f8 48 89  50 10 48 8b 45 f8 48 8b  |..H.E.H.P.H.E.H.|
00001060  50 10 48 8b 45 e8 48 01  d0 48 8d 50 ff 48 8b 45  |P.H.E.H..H.P.H.E|
00001070  e8 48 f7 d8 48 21 c2 48  8b 45 f8 48 89 50 10 48  |.H..H!.H.E.H.P.H|
00001080  8b 45 f8 48 8b 50 10 48  8b 45 f8 48 8b 40 18 48  |.E.H.P.H.E.H.@.H|
00001090  39 c2 72 13 48 b8 3b 0e  be be 00 00 00 00 ff d0  |9.r.H.;.........|
000010a0  b8 00 00 00 00 eb 0c 48  8b 45 f8 48 8b 40 10 48  |.......H.E.H.@.H|
000010b0  2b 45 f0 c9 c3 90 55 48  89 e5 48 83 ec 10 48 89  |+E....UH..H...H.|
000010c0  7d f8 48 89 75 f0 90 c9  c3 90 55 48 89 e5 48 83  |}.H.u.....UH..H.|
000010d0  ec 08 48 89 7d f8 48 8b  45 f8 48 8b 50 08 48 8b  |..H.}.H.E.H.P.H.|
000010e0  45 f8 48 89 50 10 90 c9  c3 90 55 48 89 e5 48 b8  |E.H.P.....UH..H.|
000010f0  60 58 be be 00 00 00 00  c6 00 01 90 5d c3 55 48  |`X..........].UH|
00001100  89 e5 48 b8 60 58 be be  00 00 00 00 c6 00 00 90  |..H.`X..........|
00001110  5d c3 55 48 89 e5 48 83  ec 10 48 89 7d f8 48 89  |].UH..H...H.}.H.|
00001120  75 f0 48 8b 55 f0 48 8b  45 f8 48 b9 18 56 be be  |u.H.U.H.E.H..V..|
00001130  00 00 00 00 48 89 ce 48  89 c7 b8 00 00 00 00 48  |....H..H.......H|
00001140  b9 fa 12 be be 00 00 00  00 ff d1 48 8b 45 f8 48  |...........H.E.H|
00001150  ba 1d 56 be be 00 00 00  00 48 89 d6 48 89 c7 b8  |..V......H..H...|
00001160  00 00 00 00 48 ba fa 12  be be 00 00 00 00 ff d2  |....H...........|
00001170  48 b8 c0 64 be be 00 00  00 00 8b 00 8d 50 04 48  |H..d.........P.H|
00001180  b8 c0 64 be be 00 00 00  00 89 10 90 c9 c3 55 48  |..d...........UH|
00001190  89 e5 48 83 ec 10 48 89  7d f8 48 b8 c0 64 be be  |..H...H.}.H..d..|
000011a0  00 00 00 00 8b 00 8d 50  fc 48 b8 c0 64 be be 00  |.......P.H..d...|
000011b0  00 00 00 89 10 48 8b 45  f8 48 ba 1f 56 be be 00  |.....H.E.H..V...|
000011c0  00 00 00 48 89 d6 48 89  c7 b8 00 00 00 00 48 ba  |...H..H.......H.|
000011d0  fa 12 be be 00 00 00 00  ff d2 90 c9 c3 90 55 48  |..............UH|
000011e0  89 e5 48 81 ec e0 00 00  00 48 89 bd 28 ff ff ff  |..H......H..(...|
000011f0  48 89 b5 58 ff ff ff 48  89 95 60 ff ff ff 48 89  |H..X...H..`...H.|
00001200  8d 68 ff ff ff 4c 89 85  70 ff ff ff 4c 89 8d 78  |.h...L..p...L..x|
00001210  ff ff ff 84 c0 74 20 0f  29 45 80 0f 29 4d 90 0f  |.....t .)E..)M..|
00001220  29 55 a0 0f 29 5d b0 0f  29 65 c0 0f 29 6d d0 0f  |)U..)]..)e..)m..|
00001230  29 75 e0 0f 29 7d f0 c7  85 30 ff ff ff 08 00 00  |)u..)}...0......|
00001240  00 c7 85 34 ff ff ff 30  00 00 00 48 8d 45 10 48  |...4...0...H.E.H|
00001250  89 85 38 ff ff ff 48 8d  85 50 ff ff ff 48 89 85  |..8...H..P...H..|
00001260  40 ff ff ff 48 8d 95 30  ff ff ff 48 8b 85 28 ff  |@...H..0...H..(.|
00001270  ff ff 48 89 c6 48 b8 e0  64 be be 00 00 00 00 48  |..H..H..d......H|
00001280  89 c7 48 b8 4c 49 be be  00 00 00 00 ff d0 89 85  |..H.LI..........|
00001290  48 ff ff ff c7 85 4c ff  ff ff 00 00 00 00 eb 33  |H.....L........3|
000012a0  48 ba e0 64 be be 00 00  00 00 8b 85 4c ff ff ff  |H..d........L...|
000012b0  48 98 0f b6 04 02 0f b6  c0 89 c6 bf f8 03 00 00  |H...............|
000012c0  48 b8 2a 0f be be 00 00  00 00 ff d0 83 85 4c ff  |H.*...........L.|
000012d0  ff ff 01 8b 85 4c ff ff  ff 3b 85 48 ff ff ff 7c  |.....L...;.H...||
000012e0  bf be 00 00 00 00 bf f8  03 00 00 48 b8 2a 0f be  |...........H.*..|
000012f0  be 00 00 00 00 ff d0 90  c9 c3 55 48 89 e5 48 81  |..........UH..H.|
00001300  ec f0 00 00 00 48 89 bd  18 ff ff ff 48 89 b5 10  |.....H......H...|
00001310  ff ff ff 48 89 95 60 ff  ff ff 48 89 8d 68 ff ff  |...H..`...H..h..|
00001320  ff 4c 89 85 70 ff ff ff  4c 89 8d 78 ff ff ff 84  |.L..p...L..x....|
00001330  c0 74 20 0f 29 45 80 0f  29 4d 90 0f 29 55 a0 0f  |.t .)E..)M..)U..|
00001340  29 5d b0 0f 29 65 c0 0f  29 6d d0 0f 29 75 e0 0f  |)]..)e..)m..)u..|
00001350  29 7d f0 48 b8 60 58 be  be 00 00 00 00 0f b6 00  |)}.H.`X.........|
00001360  83 f0 01 84 c0 0f 85 15  01 00 00 c7 85 28 ff ff  |.............(..|
00001370  ff 10 00 00 00 c7 85 2c  ff ff ff 30 00 00 00 48  |.......,...0...H|
00001380  8d 45 10 48 89 85 30 ff  ff ff 48 8d 85 50 ff ff  |.E.H..0...H..P..|
00001390  ff 48 89 85 38 ff ff ff  48 8d 95 28 ff ff ff 48  |.H..8...H..(...H|
000013a0  8b 85 10 ff ff ff 48 89  c6 48 b8 e0 64 be be 00  |......H..H..d...|
000013b0  00 00 00 48 89 c7 48 b8  4c 49 be be 00 00 00 00  |...H..H.LI......|
000013c0  ff d0 89 85 44 ff ff ff  c7 85 4c ff ff ff 00 00  |....D.....L.....|
000013d0  00 00 eb 1d be 20 00 00  00 bf f8 03 00 00 48 b8  |..... ........H.|
000013e0  2a 0f be be 00 00 00 00  ff d0 83 85 4c ff ff ff  |*...........L...|
000013f0  01 48 b8 c0 64 be be 00  00 00 00 8b 00 39 85 4c  |.H..d........9.L|
00001400  ff ff ff 7c cf c7 85 48  ff ff ff 00 00 00 00 eb  |...|...H........|
00001410  33 48 ba e0 64 be be 00  00 00 00 8b 85 48 ff ff  |3H..d........H..|
00001420  ff 48 98 0f b6 04 02 0f  b6 c0 89 c6 bf f8 03 00  |.H..............|
00001430  00 48 b8 2a 0f be be 00  00 00 00 ff d0 83 85 48  |.H.*...........H|
00001440  ff ff ff 01 8b 85 48 ff  ff ff 3b 85 44 ff ff ff  |......H...;.D...|
00001450  7c bf be 0a 00 00 00 bf  f8 03 00 00 48 b8 2a 0f  ||...........H.*.|
00001460  be be 00 00 00 00 ff d0  be 00 00 00 00 bf f8 03  |................|
00001470  00 00 48 b8 2a 0f be be  00 00 00 00 ff d0 eb 01  |..H.*...........|
00001480  90 c9 c3 55 48 89 e5 48  83 ec 60 48 89 7d a8 ba  |...UH..H..`H.}..|
00001490  80 00 00 00 be 00 00 00  00 48 b8 60 65 be be 00  |.........H.`e...|
000014a0  00 00 00 48 89 c7 48 b8  83 52 be be 00 00 00 00  |...H..H..R......|
000014b0  ff d0 ba 80 00 00 00 be  00 00 00 00 48 b8 e0 65  |............H..e|
000014c0  be be 00 00 00 00 48 89  c7 48 b8 83 52 be be 00  |......H..H..R...|
000014d0  00 00 00 ff d0 48 8b 45  a8 48 89 c7 48 b8 3d 54  |.....H.E.H..H.=T|
000014e0  be be 00 00 00 00 ff d0  48 89 45 d8 48 b8 60 65  |........H.E.H.`e|
000014f0  be be 00 00 00 00 48 89  45 d0 48 8b 45 d8 48 8d  |......H.E.H.E.H.|
00001500  50 ff 48 8b 45 a8 48 01  d0 0f b6 00 3c 2f 74 2b  |P.H.E.H.....</t+|
00001510  48 8b 55 a8 48 8b 45 d0  48 b9 21 56 be be 00 00  |H.U.H.E.H.!V....|
00001520  00 00 48 89 ce 48 89 c7  b8 00 00 00 00 48 b9 3e  |..H..H.......H.>|
00001530  4b be be 00 00 00 00 ff  d1 eb 29 48 8b 55 a8 48  |K.........)H.U.H|
00001540  8b 45 d0 48 b9 25 56 be  be 00 00 00 00 48 89 ce  |.E.H.%V......H..|
00001550  48 89 c7 b8 00 00 00 00  48 b9 3e 4b be be 00 00  |H.......H.>K....|
00001560  00 00 ff d1 48 8b 45 d0  be 2f 00 00 00 48 89 c7  |....H.E../...H..|
00001570  48 b8 72 35 be be 00 00  00 00 ff d0 48 89 45 c8  |H.r5........H.E.|
00001580  48 c7 45 f8 00 00 00 00  48 b8 e0 65 be be 00 00  |H.E.....H..e....|
00001590  00 00 48 89 45 c0 48 8b  45 d0 48 89 45 f0 48 8b  |..H.E.H.E.H.E.H.|
000015a0  45 f0 48 89 45 b8 48 b8  60 66 be be 00 00 00 00  |E.H.E.H.`f......|
000015b0  48 8b 00 48 89 45 e8 e9  c9 00 00 00 48 8b 45 f0  |H..H.E......H.E.|
000015c0  48 ba 28 56 be be 00 00  00 00 48 89 d6 48 89 c7  |H.(V......H..H..|
000015d0  48 b8 55 36 be be 00 00  00 00 ff d0 48 89 45 b8  |H.U6........H.E.|
000015e0  48 8b 45 b8 48 2b 45 f0  48 83 c0 01 48 89 c2 48  |H.E.H+E.H...H..H|
000015f0  8b 4d f0 48 8b 45 c0 48  89 ce 48 89 c7 48 b8 db  |.M.H.E.H..H..H..|
00001600  53 be be 00 00 00 00 ff  d0 48 8b 45 b8 48 83 c0  |S........H.E.H..|
00001610  01 48 89 45 f0 48 8b 55  c0 48 8b 45 e8 48 89 d6  |.H.E.H.U.H.E.H..|
00001620  48 89 c7 48 b8 b6 1e be  be 00 00 00 00 ff d0 48  |H..H...........H|
00001630  89 45 e0 48 83 7d e0 00  75 20 48 8b 55 c0 48 8b  |.E.H.}..u H.U.H.|
00001640  45 e8 48 89 d6 48 89 c7  48 b8 f2 1f be be 00 00  |E.H..H..H.......|
00001650  00 00 ff d0 48 89 45 e0  eb 1e 48 8b 45 e0 48 89  |....H.E...H.E.H.|
00001660  c7 48 b8 5a 1d be be 00  00 00 00 ff d0 84 c0 74  |.H.Z...........t|
00001670  07 b8 00 00 00 00 eb 1f  48 8b 45 e0 48 89 45 e8  |........H.E.H.E.|
00001680  48 83 45 f8 01 48 8b 45  f8 48 3b 45 c8 0f 82 29  |H.E..H.E.H;E...)|
00001690  ff ff ff 48 8b 45 e8 c9  c3 55 48 89 e5 48 83 ec  |...H.E...UH..H..|
000016a0  10 48 89 7d f8 48 b8 60  66 be be 00 00 00 00 48  |.H.}.H.`f......H|
000016b0  8b 00 48 8b 55 f8 48 89  d6 48 89 c7 48 b8 ca 16  |..H.U.H..H..H...|
000016c0  be be 00 00 00 00 ff d0  c9 c3 55 48 89 e5 48 83  |..........UH..H.|
000016d0  ec 60 48 89 7d a8 48 89  75 a0 48 8b 45 a0 48 ba  |.`H.}.H.u.H.E.H.|
000016e0  2b 56 be be 00 00 00 00  48 89 d6 48 89 c7 48 b8  |+V......H..H..H.|
000016f0  d0 52 be be 00 00 00 00  ff d0 85 c0 0f 94 c0 84  |.R..............|
00001700  c0 74 12 48 b8 60 66 be  be 00 00 00 00 48 8b 00  |.t.H.`f......H..|
00001710  e9 27 02 00 00 48 8b 45  a0 0f b6 00 3c 2f 75 16  |.'...H.E....</u.|
00001720  48 b8 60 66 be be 00 00  00 00 48 8b 00 48 89 45  |H.`f......H..H.E|
00001730  a8 48 83 45 a0 01 ba 80  00 00 00 be 00 00 00 00  |.H.E............|
00001740  48 b8 60 65 be be 00 00  00 00 48 89 c7 48 b8 83  |H.`e......H..H..|
00001750  52 be be 00 00 00 00 ff  d0 ba 80 00 00 00 be 00  |R...............|
00001760  00 00 00 48 b8 e0 65 be  be 00 00 00 00 48 89 c7  |...H..e......H..|
00001770  48 b8 83 52 be be 00 00  00 00 ff d0 48 8b 45 a0  |H..R........H.E.|
00001780  48 89 c7 48 b8 3d 54 be  be 00 00 00 00 ff d0 48  |H..H.=T........H|
00001790  89 45 e0 48 b8 60 65 be  be 00 00 00 00 48 89 45  |.E.H.`e......H.E|
000017a0  d8 48 8b 45 e0 48 8d 50  ff 48 8b 45 a0 48 01 d0  |.H.E.H.P.H.E.H..|
000017b0  0f b6 00 3c 2f 74 2b 48  8b 55 a0 48 8b 45 d8 48  |...</t+H.U.H.E.H|
000017c0  b9 21 56 be be 00 00 00  00 48 89 ce 48 89 c7 b8  |.!V......H..H...|
000017d0  00 00 00 00 48 b9 3e 4b  be be 00 00 00 00 ff d1  |....H.>K........|
000017e0  eb 29 48 8b 55 a0 48 8b  45 d8 48 b9 25 56 be be  |.)H.U.H.E.H.%V..|
000017f0  00 00 00 00 48 89 ce 48  89 c7 b8 00 00 00 00 48  |....H..H.......H|
00001800  b9 3e 4b be be 00 00 00  00 ff d1 48 8b 45 d8 be  |.>K........H.E..|
00001810  2f 00 00 00 48 89 c7 48  b8 72 35 be be 00 00 00  |/...H..H.r5.....|
00001820  00 ff d0 48 89 45 d0 48  c7 45 f8 00 00 00 00 48  |...H.E.H.E.....H|
00001830  8b 45 d8 48 89 c7 48 b8  3d 54 be be 00 00 00 00  |.E.H..H.=T......|
00001840  ff d0 48 89 45 c8 48 b8  e0 65 be be 00 00 00 00  |..H.E.H..e......|
00001850  48 89 45 c0 48 8b 45 d8  48 89 45 f0 48 8b 45 f0  |H.E.H.E.H.E.H.E.|
00001860  48 89 45 b8 48 8b 45 a8  48 89 45 e8 e9 b9 00 00  |H.E.H.E.H.E.....|
00001870  00 48 8b 45 f0 48 ba 28  56 be be 00 00 00 00 48  |.H.E.H.(V......H|
00001880  89 d6 48 89 c7 48 b8 55  36 be be 00 00 00 00 ff  |..H..H.U6.......|
00001890  d0 48 89 45 b8 48 8b 45  b8 48 2b 45 f0 48 83 c0  |.H.E.H.E.H+E.H..|
000018a0  01 48 89 c2 48 8b 4d f0  48 8b 45 c0 48 89 ce 48  |.H..H.M.H.E.H..H|
000018b0  89 c7 48 b8 db 53 be be  00 00 00 00 ff d0 48 8b  |..H..S........H.|
000018c0  45 b8 48 83 c0 01 48 89  45 f0 48 8b 55 c0 48 8b  |E.H...H.E.H.U.H.|
000018d0  45 e8 48 89 d6 48 89 c7  48 b8 b6 1e be be 00 00  |E.H..H..H.......|
000018e0  00 00 ff d0 48 89 45 b0  48 83 7d b0 00 74 17 48  |....H.E.H.}..t.H|
000018f0  8b 45 b0 48 89 c7 48 b8  5a 1d be be 00 00 00 00  |.E.H..H.Z.......|
00001900  ff d0 84 c0 74 07 b8 01  00 00 00 eb 05 b8 00 00  |....t...........|
00001910  00 00 84 c0 74 07 b8 00  00 00 00 eb 1f 48 8b 45  |....t........H.E|
00001920  b0 48 89 45 e8 48 83 45  f8 01 48 8b 45 f8 48 3b  |.H.E.H.E..H.E.H;|
00001930  45 d0 0f 82 39 ff ff ff  48 8b 45 e8 c9 c3 55 48  |E...9...H.E...UH|
00001940  89 e5 48 83 ec 50 48 89  7d d8 48 89 75 d0 48 89  |..H..PH.}.H.u.H.|
00001950  55 c8 48 89 4d c0 44 89  c0 88 45 bc 48 8b 45 d8  |U.H.M.D...E.H.E.|
00001960  48 89 c7 48 b8 99 16 be  be 00 00 00 00 ff d0 48  |H..H...........H|
00001970  89 45 f8 48 83 7d f8 00  75 17 48 8b 45 d8 48 89  |.E.H.}..u.H.E.H.|
00001980  c7 48 b8 83 14 be be 00  00 00 00 ff d0 48 89 45  |.H...........H.E|
00001990  f8 48 83 7d f8 00 75 07  b8 00 00 00 00 eb 77 48  |.H.}..u.......wH|
000019a0  8b 55 d0 48 8b 45 f8 48  89 d6 48 89 c7 48 b8 b6  |.U.H.E.H..H..H..|
000019b0  1e be be 00 00 00 00 ff  d0 48 89 45 f0 48 83 7d  |.........H.E.H.}|
000019c0  f0 00 74 24 48 8b 45 f0  48 89 c7 48 b8 44 1d be  |..t$H.E.H..H.D..|
000019d0  be 00 00 00 00 ff d0 84  c0 74 07 b8 00 00 00 00  |.........t......|
000019e0  eb 34 48 8b 45 f0 eb 2e  0f b6 55 bc 48 8b 7d c0  |.4H.E.....U.H.}.|
000019f0  48 8b 4d c8 48 8b 75 d0  48 8b 45 f8 49 89 f8 48  |H.M.H.u.H.E.I..H|
00001a00  89 c7 48 b8 68 20 be be  00 00 00 00 ff d0 48 89  |..H.h ........H.|
00001a10  45 e8 48 8b 45 e8 c9 c3  55 48 89 e5 48 83 ec 10  |E.H.E...UH..H...|
00001a20  48 89 7d f8 48 b8 60 66  be be 00 00 00 00 48 8b  |H.}.H.`f......H.|
00001a30  00 48 8b 55 f8 48 89 d6  48 89 c7 48 b8 49 1a be  |.H.U.H..H..H.I..|
00001a40  be 00 00 00 00 ff d0 c9  c3 55 48 89 e5 48 83 ec  |.........UH..H..|
00001a50  60 48 89 7d a8 48 89 75  a0 48 b8 04 37 be be 00  |`H.}.H.u.H..7...|
00001a60  00 00 00 ff d0 48 8b 45  a0 0f b6 00 3c 2f 75 16  |.....H.E....</u.|
00001a70  48 b8 60 66 be be 00 00  00 00 48 8b 00 48 89 45  |H.`f......H..H.E|
00001a80  a8 48 83 45 a0 01 48 8b  45 a0 48 89 c7 48 b8 3d  |.H.E..H.E.H..H.=|
00001a90  54 be be 00 00 00 00 ff  d0 48 89 45 e0 48 b8 60  |T........H.E.H.`|
00001aa0  65 be be 00 00 00 00 48  89 45 d8 48 8b 55 a0 48  |e......H.E.H.U.H|
00001ab0  8b 45 d8 48 b9 25 56 be  be 00 00 00 00 48 89 ce  |.E.H.%V......H..|
00001ac0  48 89 c7 b8 00 00 00 00  48 b9 3e 4b be be 00 00  |H.......H.>K....|
00001ad0  00 00 ff d1 48 8b 45 a0  be 2f 00 00 00 48 89 c7  |....H.E../...H..|
00001ae0  48 b8 72 35 be be 00 00  00 00 ff d0 48 89 45 d0  |H.r5........H.E.|
00001af0  48 c7 45 f8 00 00 00 00  48 b8 e0 65 be be 00 00  |H.E.....H..e....|
00001b00  00 00 48 89 45 c8 48 8b  45 d8 48 89 45 f0 48 8b  |..H.E.H.E.H.E.H.|
00001b10  45 f0 48 89 45 c0 48 8b  45 a8 48 89 45 e8 e9 ca  |E.H.E.H.E.H.E...|
00001b20  00 00 00 48 8b 45 f0 48  ba 28 56 be be 00 00 00  |...H.E.H.(V.....|
00001b30  00 48 89 d6 48 89 c7 48  b8 55 36 be be 00 00 00  |.H..H..H.U6.....|
00001b40  00 ff d0 48 89 45 c0 48  8b 45 c0 48 2b 45 f0 48  |...H.E.H.E.H+E.H|
00001b50  83 c0 01 48 89 c2 48 8b  4d f0 48 8b 45 c8 48 89  |...H..H.M.H.E.H.|
00001b60  ce 48 89 c7 48 b8 db 53  be be 00 00 00 00 ff d0  |.H..H..S........|
00001b70  48 8b 45 c0 48 83 c0 01  48 89 45 f0 48 8b 55 c8  |H.E.H...H.E.H.U.|
00001b80  48 8b 45 e8 48 89 d6 48  89 c7 48 b8 b6 1e be be  |H.E.H..H..H.....|
00001b90  00 00 00 00 ff d0 48 89  45 b0 48 83 7d b0 00 74  |......H.E.H.}..t|
00001ba0  1e 48 8b 45 b0 48 89 c7  48 b8 44 1d be be 00 00  |.H.E.H..H.D.....|
00001bb0  00 00 ff d0 84 c0 74 07  b8 01 00 00 00 eb 05 b8  |......t.........|
00001bc0  00 00 00 00 84 c0 74 0a  48 8b 45 b0 48 89 45 e8  |......t.H.E.H.E.|
00001bd0  eb 16 48 b8 1a 37 be be  00 00 00 00 ff d0 b8 00  |..H..7..........|
00001be0  00 00 00 e9 e0 00 00 00  48 83 45 f8 01 48 8b 45  |........H.E..H.E|
00001bf0  f8 48 3b 45 d0 0f 82 28  ff ff ff 48 8b 45 f0 48  |.H;E...(...H.E.H|
00001c00  ba 28 56 be be 00 00 00  00 48 89 d6 48 89 c7 48  |.(V......H..H..H|
00001c10  b8 55 36 be be 00 00 00  00 ff d0 48 89 45 c0 48  |.U6........H.E.H|
00001c20  8b 45 c0 48 2b 45 f0 48  89 c2 48 8b 4d f0 48 8b  |.E.H+E.H..H.M.H.|
00001c30  45 c8 48 89 ce 48 89 c7  48 b8 db 53 be be 00 00  |E.H..H..H..S....|
00001c40  00 00 ff d0 48 8b 45 c0  48 2b 45 f0 48 89 c2 48  |....H.E.H+E.H..H|
00001c50  8b 45 c8 48 01 d0 c6 00  00 48 8b 55 c8 48 8b 45  |.E.H.....H.U.H.E|
00001c60  e8 48 89 d6 48 89 c7 48  b8 b6 1e be be 00 00 00  |.H..H..H........|
00001c70  00 ff d0 48 89 45 b8 48  83 7d b8 00 74 1e 48 8b  |...H.E.H.}..t.H.|
00001c80  45 b8 48 89 c7 48 b8 5a  1d be be 00 00 00 00 ff  |E.H..H.Z........|
00001c90  d0 84 c0 74 07 b8 01 00  00 00 eb 05 b8 00 00 00  |...t............|
00001ca0  00 84 c0 74 12 48 b8 1a  37 be be 00 00 00 00 ff  |...t.H..7.......|
00001cb0  d0 48 8b 45 b8 eb 11 48  b8 1a 37 be be 00 00 00  |.H.E...H..7.....|
00001cc0  00 ff d0 b8 00 00 00 00  c9 c3 55 48 89 e5 53 48  |..........UH..SH|
00001cd0  83 ec 08 bf 28 01 00 00  48 b8 83 54 be be 00 00  |....(...H..T....|
00001ce0  00 00 ff d0 48 89 c3 48  b8 2d 56 be be 00 00 00  |....H..H.-V.....|
00001cf0  00 48 89 c2 be 00 00 00  00 48 89 df 48 b8 74 1d  |.H.......H..H.t.|
00001d00  be be 00 00 00 00 ff d0  48 b8 60 66 be be 00 00  |........H.`f....|
00001d10  00 00 48 89 18 90 48 8b  5d f8 c9 c3 55 48 89 e5  |..H...H.]...UH..|
00001d20  48 b8 ca 1c be be 00 00  00 00 ff d0 5d c3 55 48  |H...........].UH|
00001d30  89 e5 48 83 ec 10 48 89  7d f8 48 89 75 f0 48 8b  |..H...H.}.H.u.H.|
00001d40  45 f0 c9 c3 55 48 89 e5  48 83 ec 08 48 89 7d f8  |E...UH..H...H.}.|
00001d50  48 8b 45 f8 0f b6 40 08  c9 c3 55 48 89 e5 48 83  |H.E...@...UH..H.|
00001d60  ec 08 48 89 7d f8 48 8b  45 f8 0f b6 40 08 83 f0  |..H.}.H.E...@...|
00001d70  01 c9 c3 90 55 48 89 e5  48 83 ec 30 48 89 7d e8  |....UH..H..0H.}.|
00001d80  48 89 75 e0 48 89 55 d8  48 8b 45 e8 48 8b 55 d8  |H.u.H.U.H.E.H.U.|
00001d90  48 8b 4d e0 48 89 ce 48  89 c7 48 b8 52 22 be be  |H.M.H..H..H.R"..|
00001da0  00 00 00 00 ff d0 48 ba  68 56 be be 00 00 00 00  |......H.hV......|
00001db0  48 8b 45 e8 48 89 10 48  8b 45 e8 48 8d 88 98 00  |H.E.H..H.E.H....|
00001dc0  00 00 48 c7 45 f8 00 00  00 00 48 8d 45 f8 48 89  |..H.E.....H.E.H.|
00001dd0  c2 be 00 00 00 00 48 89  cf 48 b8 f0 1d be be 00  |......H..H......|
00001de0  00 00 00 ff d0 48 8b 45  e8 c6 40 08 01 90 c9 c3  |.....H.E..@.....|
00001df0  55 48 89 e5 48 83 ec 40  48 89 7d d8 48 89 75 d0  |UH..H..@H.}.H.u.|
00001e00  48 89 55 c8 48 8b 55 d0  48 8b 45 d8 48 89 d6 48  |H.U.H.U.H.E.H..H|
00001e10  89 c7 48 b8 fe 20 be be  00 00 00 00 ff d0 48 8b  |..H.. ........H.|
00001e20  45 d8 48 89 45 f8 48 8d  45 e8 48 8b 55 f8 48 89  |E.H.E.H.E.H.U.H.|
00001e30  d6 48 89 c7 48 b8 8a 1f  be be 00 00 00 00 ff d0  |.H..H...........|
00001e40  48 8d 45 e0 48 8b 55 f8  48 89 d6 48 89 c7 48 b8  |H.E.H.U.H..H..H.|
00001e50  ba 1f be be 00 00 00 00  ff d0 eb 38 48 8d 45 e8  |...........8H.E.|
00001e60  48 89 c7 48 b8 88 21 be  be 00 00 00 00 ff d0 48  |H..H..!........H|
00001e70  89 45 f0 48 8b 45 c8 48  8b 10 48 8b 45 f0 48 89  |.E.H.E.H..H.E.H.|
00001e80  10 48 8d 45 e8 48 89 c7  48 b8 64 21 be be 00 00  |.H.E.H..H.d!....|
00001e90  00 00 ff d0 48 8d 55 e0  48 8d 45 e8 48 89 d6 48  |....H.U.H.E.H..H|
00001ea0  89 c7 48 b8 3e 21 be be  00 00 00 00 ff d0 84 c0  |..H.>!..........|
00001eb0  75 aa 90 90 c9 c3 55 48  89 e5 48 83 ec 30 48 89  |u.....UH..H..0H.|
00001ec0  7d d8 48 89 75 d0 48 8b  45 d8 48 05 98 00 00 00  |}.H.u.H.E.H.....|
00001ed0  48 89 45 f8 48 8d 45 e8  48 8b 55 f8 48 89 d6 48  |H.E.H.E.H.U.H..H|
00001ee0  89 c7 48 b8 8a 1f be be  00 00 00 00 ff d0 48 8d  |..H...........H.|
00001ef0  45 e0 48 8b 55 f8 48 89  d6 48 89 c7 48 b8 ba 1f  |E.H.U.H..H..H...|
00001f00  be be 00 00 00 00 ff d0  eb 5a 48 8d 45 e8 48 89  |.........ZH.E.H.|
00001f10  c7 48 b8 88 21 be be 00  00 00 00 ff d0 48 8b 00  |.H..!........H..|
00001f20  48 89 45 f0 48 8b 45 f0  48 8d 50 09 48 8b 45 d0  |H.E.H.E.H.P.H.E.|
00001f30  48 89 c6 48 89 d7 48 b8  d0 52 be be 00 00 00 00  |H..H..H..R......|
00001f40  ff d0 85 c0 0f 94 c0 84  c0 74 06 48 8b 45 f0 eb  |.........t.H.E..|
00001f50  36 48 8d 45 e8 48 89 c7  48 b8 64 21 be be 00 00  |6H.E.H..H.d!....|
00001f60  00 00 ff d0 48 8d 55 e0  48 8d 45 e8 48 89 d6 48  |....H.U.H.E.H..H|
00001f70  89 c7 48 b8 3e 21 be be  00 00 00 00 ff d0 84 c0  |..H.>!..........|
00001f80  75 88 b8 00 00 00 00 c9  c3 90 55 48 89 e5 48 83  |u.........UH..H.|
00001f90  ec 10 48 89 7d f8 48 89  75 f0 48 8b 55 f0 48 8b  |..H.}.H.u.H.U.H.|
00001fa0  45 f8 48 89 d6 48 89 c7  48 b8 9e 21 be be 00 00  |E.H..H..H..!....|
00001fb0  00 00 ff d0 48 8b 45 f8  c9 c3 55 48 89 e5 48 83  |....H.E...UH..H.|
00001fc0  ec 10 48 89 7d f8 48 89  75 f0 48 8b 45 f0 48 8b  |..H.}.H.u.H.E.H.|
00001fd0  90 80 00 00 00 48 8b 45  f8 48 89 d6 48 89 c7 48  |.....H.E.H..H..H|
00001fe0  b8 9e 21 be be 00 00 00  00 ff d0 48 8b 45 f8 c9  |..!........H.E..|
00001ff0  c3 90 55 48 89 e5 53 48  83 ec 28 48 89 7d d8 48  |..UH..SH..(H.}.H|
00002000  89 75 d0 bf 28 01 00 00  48 b8 83 54 be be 00 00  |.u..(...H..T....|
00002010  00 00 ff d0 48 89 c3 48  8b 55 d0 48 8b 45 d8 48  |....H..H.U.H.E.H|
00002020  89 c6 48 89 df 48 b8 74  1d be be 00 00 00 00 ff  |..H..H.t........|
00002030  d0 48 89 5d e8 48 8b 45  d8 48 8d 90 98 00 00 00  |.H.].H.E.H......|
00002040  48 8b 45 e8 48 89 45 e0  48 8d 45 e0 48 89 c6 48  |H.E.H.E.H.E.H..H|
00002050  89 d7 48 b8 bc 21 be be  00 00 00 00 ff d0 48 8b  |..H..!........H.|
00002060  45 e8 48 8b 5d f8 c9 c3  55 48 89 e5 53 48 83 ec  |E.H.]...UH..SH..|
00002070  48 48 89 7d d8 48 89 75  d0 89 d0 48 89 4d c0 4c  |HH.}.H.u...H.M.L|
00002080  89 45 b8 88 45 cc bf e8  00 00 00 48 b8 83 54 be  |.E..E......H..T.|
00002090  be 00 00 00 00 ff d0 48  89 c3 0f b6 4d cc 48 8b  |.......H....M.H.|
000020a0  7d b8 48 8b 75 c0 48 8b  55 d0 48 8b 45 d8 49 89  |}.H.u.H.U.H.E.I.|
000020b0  f9 49 89 f0 48 89 c6 48  89 df 48 b8 3e 23 be be  |.I..H..H..H.>#..|
000020c0  00 00 00 00 ff d0 48 89  5d e8 48 8b 45 d8 48 8d  |......H.].H.E.H.|
000020d0  90 98 00 00 00 48 8b 45  e8 48 89 45 e0 48 8d 45  |.....H.E.H.E.H.E|
000020e0  e0 48 89 c6 48 89 d7 48  b8 bc 21 be be 00 00 00  |.H..H..H..!.....|
000020f0  00 ff d0 48 8b 45 e8 48  8b 5d f8 c9 c3 90 55 48  |...H.E.H.]....UH|
00002100  89 e5 48 83 ec 10 48 89  7d f8 48 89 75 f0 48 8b  |..H...H.}.H.u.H.|
00002110  45 f8 48 89 c7 48 b8 1e  22 be be 00 00 00 00 ff  |E.H..H..".......|
00002120  d0 48 8b 45 f8 48 8b 55  f0 48 c1 e2 03 48 01 c2  |.H.E.H.U.H...H..|
00002130  48 8b 45 f8 48 89 90 80  00 00 00 90 c9 c3 55 48  |H.E.H.........UH|
00002140  89 e5 48 83 ec 10 48 89  7d f8 48 89 75 f0 48 8b  |..H...H.}.H.u.H.|
00002150  45 f8 48 8b 10 48 8b 45  f0 48 8b 00 48 39 c2 0f  |E.H..H.E.H..H9..|
00002160  95 c0 c9 c3 55 48 89 e5  48 83 ec 08 48 89 7d f8  |....UH..H...H.}.|
00002170  48 8b 45 f8 48 8b 00 48  8d 50 08 48 8b 45 f8 48  |H.E.H..H.P.H.E.H|
00002180  89 10 48 8b 45 f8 c9 c3  55 48 89 e5 48 83 ec 08  |..H.E...UH..H...|
00002190  48 89 7d f8 48 8b 45 f8  48 8b 00 c9 c3 90 55 48  |H.}.H.E.H.....UH|
000021a0  89 e5 48 83 ec 10 48 89  7d f8 48 89 75 f0 48 8b  |..H...H.}.H.u.H.|
000021b0  45 f8 48 8b 55 f0 48 89  10 90 c9 c3 55 48 89 e5  |E.H.U.H.....UH..|
000021c0  48 83 ec 10 48 89 7d f8  48 89 75 f0 48 8b 45 f8  |H...H.}.H.u.H.E.|
000021d0  48 8b 80 80 00 00 00 48  89 c6 bf 08 00 00 00 48  |H......H.......H|
000021e0  b8 2e 1d be be 00 00 00  00 ff d0 48 8b 55 f0 48  |...........H.U.H|
000021f0  8b 12 48 89 10 48 8b 55  f8 48 89 82 80 00 00 00  |..H..H.U.H......|
00002200  48 8b 45 f8 48 8b 80 80  00 00 00 48 8d 50 08 48  |H.E.H......H.P.H|
00002210  8b 45 f8 48 89 90 80 00  00 00 90 c9 c3 90 55 48  |.E.H..........UH|
00002220  89 e5 48 83 ec 08 48 89  7d f8 48 8b 55 f8 48 8b  |..H...H.}.H.U.H.|
00002230  45 f8 48 89 90 80 00 00  00 48 8b 45 f8 48 8d 90  |E.H......H.E.H..|
00002240  80 00 00 00 48 8b 45 f8  48 89 90 88 00 00 00 90  |....H.E.H.......|
00002250  c9 c3 55 48 89 e5 48 83  ec 20 48 89 7d f8 48 89  |..UH..H.. H.}.H.|
00002260  75 f0 48 89 55 e8 48 ba  80 56 be be 00 00 00 00  |u.H.U.H..V......|
00002270  48 8b 45 f8 48 89 10 48  8b 45 f8 48 8b 55 f0 48  |H.E.H..H.E.H.U.H|
00002280  89 90 90 00 00 00 48 8b  45 f8 48 83 c0 09 ba 80  |......H.E.H.....|
00002290  00 00 00 be 00 00 00 00  48 89 c7 48 b8 83 52 be  |........H..H..R.|
000022a0  be 00 00 00 00 ff d0 48  8b 45 f8 48 8d 50 09 48  |.......H.E.H.P.H|
000022b0  8b 45 e8 48 89 c6 48 89  d7 48 b8 94 53 be be 00  |.E.H..H..H..S...|
000022c0  00 00 00 ff d0 90 c9 c3  55 48 89 e5 48 83 ec 20  |........UH..H.. |
000022d0  48 89 7d f8 48 89 75 f0  48 89 55 e8 48 8b 45 f8  |H.}.H.u.H.U.H.E.|
000022e0  48 8b 55 e8 48 8b 4d f0  48 89 ce 48 89 c7 48 b8  |H.U.H.M.H..H..H.|
000022f0  52 22 be be 00 00 00 00  ff d0 48 ba 50 56 be be  |R"........H.PV..|
00002300  00 00 00 00 48 8b 45 f8  48 89 10 48 8b 45 f8 c7  |....H.E.H..H.E..|
00002310  80 9c 00 00 00 00 00 00  00 48 8b 45 f8 48 05 b0  |.........H.E.H..|
00002320  00 00 00 48 89 c7 48 b8  c6 2f be be 00 00 00 00  |...H..H../......|
00002330  ff d0 48 8b 45 f8 c6 40  08 00 90 c9 c3 90 55 48  |..H.E..@......UH|
00002340  89 e5 48 83 ec 30 48 89  7d f8 48 89 75 f0 48 89  |..H..0H.}.H.u.H.|
00002350  55 e8 89 c8 4c 89 45 d8  4c 89 4d d0 88 45 e4 48  |U...L.E.L.M..E.H|
00002360  8b 45 f8 48 8b 55 e8 48  8b 4d f0 48 89 ce 48 89  |.E.H.U.H.M.H..H.|
00002370  c7 48 b8 52 22 be be 00  00 00 00 ff d0 48 ba 50  |.H.R"........H.P|
00002380  56 be be 00 00 00 00 48  8b 45 f8 48 89 10 48 8b  |V......H.E.H..H.|
00002390  45 f8 0f b6 55 e4 88 90  98 00 00 00 48 8b 45 f8  |E...U.......H.E.|
000023a0  c7 80 9c 00 00 00 00 00  00 00 48 8b 45 f8 48 8b  |..........H.E.H.|
000023b0  55 d8 48 89 90 a0 00 00  00 48 8b 45 f8 48 8b 55  |U.H......H.E.H.U|
000023c0  d0 48 89 90 a8 00 00 00  48 8b 45 f8 48 8d b8 b0  |.H......H.E.H...|
000023d0  00 00 00 48 8b 55 d0 48  8b 45 d8 b9 00 00 00 00  |...H.U.H.E......|
000023e0  48 89 c6 48 b8 6c 30 be  be 00 00 00 00 ff d0 48  |H..H.l0........H|
000023f0  8b 45 f8 c6 40 08 00 90  c9 c3 55 48 89 e5 48 81  |.E..@.....UH..H.|
00002400  ec 30 01 00 00 48 89 bd  d8 fe ff ff ba 80 00 00  |.0...H..........|
00002410  00 be 00 00 00 00 48 b8  80 66 be be 00 00 00 00  |......H..f......|
00002420  48 89 c7 48 b8 83 52 be  be 00 00 00 00 ff d0 48  |H..H..R........H|
00002430  b8 80 66 be be 00 00 00  00 48 89 45 f8 c7 45 f4  |..f......H.E..E.|
00002440  00 00 00 00 48 8b 85 d8  fe ff ff 48 89 45 e8 eb  |....H......H.E..|
00002450  26 48 8b 55 e8 8b 45 f4  8d 48 01 89 4d f4 48 98  |&H.U..E..H..M.H.|
00002460  48 89 94 c5 e0 fe ff ff  48 8b 45 e8 48 8b 80 90  |H.......H.E.H...|
00002470  00 00 00 48 89 45 e8 48  83 7d e8 00 75 d3 83 6d  |...H.E.H.}..u..m|
00002480  f4 01 8b 45 f4 8d 50 ff  89 55 f4 48 98 48 8b 84  |...E..P..U.H.H..|
00002490  c5 e0 fe ff ff 48 89 45  e8 48 8b 45 e8 48 8d 50  |.....H.E.H.E.H.P|
000024a0  09 48 8b 45 f8 48 b9 32  56 be be 00 00 00 00 48  |.H.E.H.2V......H|
000024b0  89 ce 48 89 c7 b8 00 00  00 00 48 b9 3e 4b be be  |..H.......H.>K..|
000024c0  00 00 00 00 ff d1 48 98  48 01 45 f8 eb 48 8b 45  |......H.H.E..H.E|
000024d0  f4 48 98 48 8b 84 c5 e0  fe ff ff 48 89 45 e8 48  |.H.H.......H.E.H|
000024e0  8b 45 e8 48 8d 50 09 48  8b 45 f8 48 b9 36 56 be  |.E.H.P.H.E.H.6V.|
000024f0  be 00 00 00 00 48 89 ce  48 89 c7 b8 00 00 00 00  |.....H..H.......|
00002500  48 b9 3e 4b be be 00 00  00 00 ff d1 48 98 48 01  |H.>K........H.H.|
00002510  45 f8 83 6d f4 01 83 7d  f4 00 79 b2 48 b8 80 66  |E..m...}..y.H..f|
00002520  be be 00 00 00 00 c9 c3  55 48 89 e5 48 83 ec 20  |........UH..H.. |
00002530  48 89 7d e8 ba 80 00 00  00 be 00 00 00 00 48 b8  |H.}...........H.|
00002540  80 66 be be 00 00 00 00  48 89 c7 48 b8 83 52 be  |.f......H..H..R.|
00002550  be 00 00 00 00 ff d0 48  b8 80 66 be be 00 00 00  |.......H..f.....|
00002560  00 48 89 45 f8 48 8b 45  e8 48 8b 80 90 00 00 00  |.H.E.H.E.H......|
00002570  48 8b 00 48 8b 10 48 8b  45 e8 48 8b 80 90 00 00  |H..H..H.E.H.....|
00002580  00 48 89 c7 ff d2 48 89  c2 48 8b 45 f8 48 b9 36  |.H....H..H.E.H.6|
00002590  56 be be 00 00 00 00 48  89 ce 48 89 c7 b8 00 00  |V......H..H.....|
000025a0  00 00 48 b9 3e 4b be be  00 00 00 00 ff d1 48 98  |..H.>K........H.|
000025b0  48 01 45 f8 48 8b 45 e8  48 8d 50 09 48 8b 45 f8  |H.E.H.E.H.P.H.E.|
000025c0  48 b9 36 56 be be 00 00  00 00 48 89 ce 48 89 c7  |H.6V......H..H..|
000025d0  b8 00 00 00 00 48 b9 3e  4b be be 00 00 00 00 ff  |.....H.>K.......|
000025e0  d1 48 98 48 01 45 f8 48  b8 80 66 be be 00 00 00  |.H.H.E.H..f.....|
000025f0  00 c9 c3 90 55 48 89 e5  53 48 83 ec 48 48 89 7d  |....UH..SH..HH.}|
00002600  c8 48 89 75 c0 89 d0 88  45 bc 48 8b 45 c0 48 89  |.H.u....E.H.E.H.|
00002610  c7 48 b8 3d 54 be be 00  00 00 00 ff d0 89 45 e4  |.H.=T.........E.|
00002620  48 8b 45 c0 48 89 45 e8  48 8b 45 e8 48 89 45 d8  |H.E.H.E.H.E.H.E.|
00002630  e9 a0 00 00 00 0f be 45  bc 48 8b 55 e8 48 83 c2  |.......E.H.U.H..|
00002640  01 89 c6 48 89 d7 48 b8  3d 35 be be 00 00 00 00  |...H..H.=5......|
00002650  ff d0 48 89 45 d8 48 8b  45 d8 48 2b 45 e8 48 83  |..H.E.H.E.H+E.H.|
00002660  c0 01 48 89 c7 48 b8 a4  54 be be 00 00 00 00 ff  |..H..H..T.......|
00002670  d0 48 89 45 d0 48 8d 55  d0 48 8b 45 c8 48 89 d6  |.H.E.H.U.H.E.H..|
00002680  48 89 c7 48 b8 0c 2b be  be 00 00 00 00 ff d0 48  |H..H..+........H|
00002690  8b 45 d8 48 2b 45 e8 48  89 c3 48 8b 45 c8 48 89  |.E.H+E.H..H.E.H.|
000026a0  c7 48 b8 9c 2b be be 00  00 00 00 ff d0 48 8b 00  |.H..+........H..|
000026b0  48 8b 4d e8 48 89 da 48  89 ce 48 89 c7 48 b8 db  |H.M.H..H..H..H..|
000026c0  53 be be 00 00 00 00 ff  d0 48 8b 45 d8 48 83 c0  |S........H.E.H..|
000026d0  01 48 89 45 e8 8b 45 e4  48 63 d0 48 8b 45 c0 48  |.H.E..E.Hc.H.E.H|
000026e0  01 d0 48 39 45 e8 0f 82  49 ff ff ff 48 8b 45 c8  |..H9E...I...H.E.|
000026f0  48 8b 5d f8 c9 c3 55 48  89 e5 48 83 ec 40 48 89  |H.]...UH..H..@H.|
00002700  7d c8 48 89 75 c0 48 8b  45 c8 be 00 00 00 00 48  |}.H.u.H.E......H|
00002710  89 c7 48 b8 f6 2b be be  00 00 00 00 ff d0 48 8b  |..H..+........H.|
00002720  45 c8 48 83 c0 20 48 89  c7 48 b8 b6 2b be be 00  |E.H.. H..H..+...|
00002730  00 00 00 ff d0 48 8b 45  c8 48 be 20 67 be be 00  |.....H.E.H. g...|
00002740  00 00 00 48 89 70 40 48  8b 45 c8 48 89 70 48 48  |...H.p@H.E.H.pHH|
00002750  8d 45 ef 48 ba a0 56 be  be 00 00 00 00 48 89 d6  |.E.H..V......H..|
00002760  48 89 c7 48 b8 12 11 be  be 00 00 00 00 ff d0 48  |H..H...........H|
00002770  8b 55 c0 48 8d 45 ef 48  b9 b7 56 be be 00 00 00  |.U.H.E.H..V.....|
00002780  00 48 89 ce 48 89 c7 b8  00 00 00 00 48 b9 fa 12  |.H..H.......H...|
00002790  be be 00 00 00 00 ff d1  48 8b 45 c8 48 8b 4d c0  |........H.E.H.M.|
000027a0  ba 2f 00 00 00 48 89 ce  48 89 c7 48 b8 f4 25 be  |./...H..H..H..%.|
000027b0  be 00 00 00 00 ff d0 48  89 c1 48 8b 75 c8 48 8b  |.......H..H.u.H.|
000027c0  01 48 8b 51 08 48 89 06  48 89 56 08 48 8b 41 10  |.H.Q.H..H.V.H.A.|
000027d0  48 8b 51 18 48 89 46 10  48 89 56 18 48 8b 45 c8  |H.Q.H.F.H.V.H.E.|
000027e0  48 89 c7 48 b8 9c 2b be  be 00 00 00 00 ff d0 48  |H..H..+........H|
000027f0  8b 00 be 2e 00 00 00 48  89 c7 48 b8 72 35 be be  |.......H..H.r5..|
00002800  00 00 00 00 ff d0 48 83  f8 01 0f 94 c0 84 c0 0f  |......H.........|
00002810  84 a2 01 00 00 48 8b 45  c8 48 89 c7 48 b8 9c 2b  |.....H.E.H..H..+|
00002820  be be 00 00 00 00 ff d0  48 8b 00 48 8b 55 c8 48  |........H..H.U.H|
00002830  8d 4a 20 ba 2e 00 00 00  48 89 c6 48 89 cf 48 b8  |.J .....H..H..H.|
00002840  f4 25 be be 00 00 00 00  ff d0 48 89 c1 48 8b 75  |.%........H..H.u|
00002850  c8 48 8b 01 48 8b 51 08  48 89 46 20 48 89 56 28  |.H..H.Q.H.F H.V(|
00002860  48 8b 41 10 48 8b 51 18  48 89 46 30 48 89 56 38  |H.A.H.Q.H.F0H.V8|
00002870  48 8b 45 c8 48 89 c7 48  b8 9c 2b be be 00 00 00  |H.E.H..H..+.....|
00002880  00 ff d0 48 8b 00 48 85  c0 74 0f 48 89 c7 48 b8  |...H..H..t.H..H.|
00002890  0d 55 be be 00 00 00 00  ff d0 48 8b 45 c8 48 89  |.U........H.E.H.|
000028a0  c7 48 b8 b6 2c be be 00  00 00 00 ff d0 48 8b 45  |.H..,........H.E|
000028b0  c8 48 83 c0 20 be 00 00  00 00 48 89 c7 48 b8 da  |.H.. .....H..H..|
000028c0  2c be be 00 00 00 00 ff  d0 48 8b 00 48 89 c7 48  |,........H..H..H|
000028d0  b8 3d 54 be be 00 00 00  00 ff d0 48 83 c0 01 48  |.=T........H...H|
000028e0  89 c7 48 b8 a4 54 be be  00 00 00 00 ff d0 48 89  |..H..T........H.|
000028f0  c2 48 8b 45 c8 48 89 50  40 48 8b 45 c8 48 83 c0  |.H.E.H.P@H.E.H..|
00002900  20 be 01 00 00 00 48 89  c7 48 b8 da 2c be be 00  | .....H..H..,...|
00002910  00 00 00 ff d0 48 8b 00  48 89 c7 48 b8 3d 54 be  |.....H..H..H.=T.|
00002920  be 00 00 00 00 ff d0 48  83 c0 01 48 89 c7 48 b8  |.......H...H..H.|
00002930  a4 54 be be 00 00 00 00  ff d0 48 89 c2 48 8b 45  |.T........H..H.E|
00002940  c8 48 89 50 48 48 8b 45  c8 48 83 c0 20 be 00 00  |.H.PHH.E.H.. ...|
00002950  00 00 48 89 c7 48 b8 da  2c be be 00 00 00 00 ff  |..H..H..,.......|
00002960  d0 48 8b 10 48 8b 45 c8  48 8b 40 40 48 89 d6 48  |.H..H.E.H.@@H..H|
00002970  89 c7 48 b8 94 53 be be  00 00 00 00 ff d0 48 8b  |..H..S........H.|
00002980  45 c8 48 83 c0 20 be 01  00 00 00 48 89 c7 48 b8  |E.H.. .....H..H.|
00002990  da 2c be be 00 00 00 00  ff d0 48 8b 10 48 8b 45  |.,........H..H.E|
000029a0  c8 48 8b 40 48 48 89 d6  48 89 c7 48 b8 94 53 be  |.H.@HH..H..H..S.|
000029b0  be 00 00 00 00 ff d0 48  8b 45 c8 48 89 45 f8 48  |.......H.E.H.E.H|
000029c0  8d 45 e0 48 8b 55 f8 48  89 d6 48 89 c7 48 b8 00  |.E.H.U.H..H..H..|
000029d0  2d be be 00 00 00 00 ff  d0 48 8d 45 d8 48 8b 55  |-........H.E.H.U|
000029e0  f8 48 89 d6 48 89 c7 48  b8 34 2d be be 00 00 00  |.H..H..H.4-.....|
000029f0  00 ff d0 eb 56 48 8d 45  e0 48 89 c7 48 b8 b2 2d  |....VH.E.H..H..-|
00002a00  be be 00 00 00 00 ff d0  48 8b 00 48 89 45 f0 48  |........H..H.E.H|
00002a10  8b 55 f0 48 8d 45 ef 48  b9 c3 56 be be 00 00 00  |.U.H.E.H..V.....|
00002a20  00 48 89 ce 48 89 c7 b8  00 00 00 00 48 b9 fa 12  |.H..H.......H...|
00002a30  be be 00 00 00 00 ff d1  48 8d 45 e0 48 89 c7 48  |........H.E.H..H|
00002a40  b8 8e 2d be be 00 00 00  00 ff d0 48 8d 55 d8 48  |..-........H.U.H|
00002a50  8d 45 e0 48 89 d6 48 89  c7 48 b8 68 2d be be 00  |.E.H..H..H.h-...|
00002a60  00 00 00 ff d0 84 c0 75  8c 48 8b 45 c8 48 8b 50  |.......u.H.E.H.P|
00002a70  40 48 8d 45 ef 48 b9 ce  56 be be 00 00 00 00 48  |@H.E.H..V......H|
00002a80  89 ce 48 89 c7 b8 00 00  00 00 48 b9 fa 12 be be  |..H.......H.....|
00002a90  00 00 00 00 ff d1 48 8b  45 c8 48 8b 50 48 48 8d  |......H.E.H.PHH.|
00002aa0  45 ef 48 b9 d9 56 be be  00 00 00 00 48 89 ce 48  |E.H..V......H..H|
00002ab0  89 c7 b8 00 00 00 00 48  b9 fa 12 be be 00 00 00  |.......H........|
00002ac0  00 ff d1 48 8d 45 ef 48  89 c7 48 b8 8e 11 be be  |...H.E.H..H.....|
00002ad0  00 00 00 00 ff d0 90 c9  c3 55 48 89 e5 48 b8 00  |.........UH..H..|
00002ae0  67 be be 00 00 00 00 48  89 c7 48 b8 b6 2b be be  |g......H..H..+..|
00002af0  00 00 00 00 ff d0 90 5d  c3 55 48 89 e5 48 b8 d9  |.......].UH..H..|
00002b00  2a be be 00 00 00 00 ff  d0 5d c3 90 55 48 89 e5  |*........]..UH..|
00002b10  48 83 ec 10 48 89 7d f8  48 89 75 f0 48 8b 45 f8  |H...H.}.H.u.H.E.|
00002b20  48 8b 40 10 48 8d 50 08  48 8b 45 f8 48 8b 40 18  |H.@.H.P.H.E.H.@.|
00002b30  48 39 c2 75 21 48 8b 45  f8 48 8b 00 48 8d 14 00  |H9.u!H.E.H..H...|
00002b40  48 8b 45 f8 48 89 d6 48  89 c7 48 b8 c8 2d be be  |H.E.H..H..H..-..|
00002b50  00 00 00 00 ff d0 48 8b  45 f8 48 8b 40 10 48 89  |......H.E.H.@.H.|
00002b60  c6 bf 08 00 00 00 48 b8  2e 1d be be 00 00 00 00  |......H.........|
00002b70  ff d0 48 8b 55 f0 48 8b  12 48 89 10 48 8b 55 f8  |..H.U.H..H..H.U.|
00002b80  48 89 42 10 48 8b 45 f8  48 8b 40 10 48 8d 50 08  |H.B.H.E.H.@.H.P.|
00002b90  48 8b 45 f8 48 89 50 10  90 c9 c3 90 55 48 89 e5  |H.E.H.P.....UH..|
00002ba0  48 83 ec 08 48 89 7d f8  48 8b 45 f8 48 8b 40 10  |H...H.}.H.E.H.@.|
00002bb0  48 83 e8 08 c9 c3 55 48  89 e5 48 83 ec 10 48 89  |H.....UH..H...H.|
00002bc0  7d f8 48 8b 45 f8 be 10  00 00 00 48 89 c7 48 b8  |}.H.E......H..H.|
00002bd0  f6 2b be be 00 00 00 00  ff d0 48 8b 45 f8 be 00  |.+........H.E...|
00002be0  00 00 00 48 89 c7 48 b8  c8 2e be be 00 00 00 00  |...H..H.........|
00002bf0  ff d0 90 c9 c3 90 55 48  89 e5 48 83 ec 20 48 89  |......UH..H.. H.|
00002c00  7d e8 48 89 75 e0 48 c7  45 f0 08 00 00 00 48 8b  |}.H.u.H.E.....H.|
00002c10  45 e0 48 01 c0 48 89 45  f8 48 8d 55 f0 48 8d 45  |E.H..H.E.H.U.H.E|
00002c20  f8 48 89 d6 48 89 c7 48  b8 51 2f be be 00 00 00  |.H..H..H.Q/.....|
00002c30  00 ff d0 48 8b 10 48 8b  45 e8 48 89 10 48 8b 45  |...H..H.E.H..H.E|
00002c40  e8 48 8b 00 48 ba ff ff  ff ff ff ff ff 0f 48 39  |.H..H.........H9|
00002c50  c2 72 06 48 c1 e0 03 eb  07 48 c7 c0 ff ff ff ff  |.r.H.....H......|
00002c60  48 89 c7 48 b8 a4 54 be  be 00 00 00 00 ff d0 48  |H..H..T........H|
00002c70  89 c2 48 8b 45 e8 48 89  50 08 48 8b 45 e8 48 8b  |..H.E.H.P.H.E.H.|
00002c80  40 08 48 8b 55 e0 48 c1  e2 03 48 01 c2 48 8b 45  |@.H.U.H...H..H.E|
00002c90  e8 48 89 50 10 48 8b 45  e8 48 8b 50 08 48 8b 45  |.H.P.H.E.H.P.H.E|
00002ca0  e8 48 8b 00 48 c1 e0 03  48 01 c2 48 8b 45 e8 48  |.H..H...H..H.E.H|
00002cb0  89 50 18 90 c9 c3 55 48  89 e5 48 83 ec 08 48 89  |.P....UH..H...H.|
00002cc0  7d f8 48 8b 45 f8 48 8b  40 10 48 8d 50 f8 48 8b  |}.H.E.H.@.H.P.H.|
00002cd0  45 f8 48 89 50 10 90 c9  c3 90 55 48 89 e5 48 83  |E.H.P.....UH..H.|
00002ce0  ec 10 48 89 7d f8 48 89  75 f0 48 8b 45 f8 48 8b  |..H.}.H.u.H.E.H.|
00002cf0  40 08 48 8b 55 f0 48 c1  e2 03 48 01 d0 c9 c3 90  |@.H.U.H...H.....|
00002d00  55 48 89 e5 48 83 ec 10  48 89 7d f8 48 89 75 f0  |UH..H...H.}.H.u.|
00002d10  48 8b 45 f0 48 8b 50 08  48 8b 45 f8 48 89 d6 48  |H.E.H.P.H.E.H..H|
00002d20  89 c7 48 b8 80 2f be be  00 00 00 00 ff d0 48 8b  |..H../........H.|
00002d30  45 f8 c9 c3 55 48 89 e5  48 83 ec 10 48 89 7d f8  |E...UH..H...H.}.|
00002d40  48 89 75 f0 48 8b 45 f0  48 8b 50 10 48 8b 45 f8  |H.u.H.E.H.P.H.E.|
00002d50  48 89 d6 48 89 c7 48 b8  80 2f be be 00 00 00 00  |H..H..H../......|
00002d60  ff d0 48 8b 45 f8 c9 c3  55 48 89 e5 48 83 ec 10  |..H.E...UH..H...|
00002d70  48 89 7d f8 48 89 75 f0  48 8b 45 f8 48 8b 10 48  |H.}.H.u.H.E.H..H|
00002d80  8b 45 f0 48 8b 00 48 39  c2 0f 95 c0 c9 c3 55 48  |.E.H..H9......UH|
00002d90  89 e5 48 83 ec 08 48 89  7d f8 48 8b 45 f8 48 8b  |..H...H.}.H.E.H.|
00002da0  00 48 8d 50 08 48 8b 45  f8 48 89 10 48 8b 45 f8  |.H.P.H.E.H..H.E.|
00002db0  c9 c3 55 48 89 e5 48 83  ec 08 48 89 7d f8 48 8b  |..UH..H...H.}.H.|
00002dc0  45 f8 48 8b 00 c9 c3 90  55 48 89 e5 48 83 ec 20  |E.H.....UH..H.. |
00002dd0  48 89 7d e8 48 89 75 e0  48 8b 45 e8 48 89 c7 48  |H.}.H.u.H.E.H..H|
00002de0  b8 9e 2f be be 00 00 00  00 ff d0 48 89 45 f8 48  |../........H.E.H|
00002df0  8b 45 e0 48 ba ff ff ff  ff ff ff ff 0f 48 39 c2  |.E.H.........H9.|
00002e00  72 06 48 c1 e0 03 eb 07  48 c7 c0 ff ff ff ff 48  |r.H.....H......H|
00002e10  89 c7 48 b8 a4 54 be be  00 00 00 00 ff d0 48 89  |..H..T........H.|
00002e20  45 f0 48 8b 45 e8 48 8b  40 08 48 85 c0 74 46 48  |E.H.E.H.@.H..tFH|
00002e30  8b 45 e8 48 8b 48 08 48  8b 55 f8 48 8b 45 f0 48  |.E.H.H.H.U.H.E.H|
00002e40  89 ce 48 89 c7 48 b8 25  51 be be 00 00 00 00 ff  |..H..H.%Q.......|
00002e50  d0 48 8b 45 e8 48 8b 40  08 48 85 c0 74 17 48 8b  |.H.E.H.@.H..t.H.|
00002e60  45 e8 48 8b 40 08 48 89  c7 48 b8 0d 55 be be 00  |E.H.@.H..H..U...|
00002e70  00 00 00 ff d0 48 8b 45  e8 48 8b 55 e0 48 89 10  |.....H.E.H.U.H..|
00002e80  48 8b 45 e8 48 8b 55 f0  48 89 50 08 48 8b 45 e8  |H.E.H.U.H.P.H.E.|
00002e90  48 8b 40 08 48 8b 55 f8  48 c1 e2 03 48 01 c2 48  |H.@.H.U.H...H..H|
00002ea0  8b 45 e8 48 89 50 10 48  8b 45 e8 48 8b 50 08 48  |.E.H.P.H.E.H.P.H|
00002eb0  8b 45 e8 48 8b 00 48 c1  e0 03 48 01 c2 48 8b 45  |.E.H..H...H..H.E|
00002ec0  e8 48 89 50 18 90 c9 c3  55 48 89 e5 48 83 ec 20  |.H.P....UH..H.. |
00002ed0  48 89 7d e8 48 89 75 e0  eb 13 48 8b 45 e8 48 89  |H.}.H.u...H.E.H.|
00002ee0  c7 48 b8 b6 2c be be 00  00 00 00 ff d0 48 8b 45  |.H..,........H.E|
00002ef0  e8 48 89 c7 48 b8 9e 2f  be be 00 00 00 00 ff d0  |.H..H../........|
00002f00  48 39 45 e0 0f 92 c0 84  c0 75 cf eb 22 48 c7 45  |H9E......u.."H.E|
00002f10  f8 00 00 00 00 48 8d 55  f8 48 8b 45 e8 48 89 d6  |.....H.U.H.E.H..|
00002f20  48 89 c7 48 b8 0c 2b be  be 00 00 00 00 ff d0 48  |H..H..+........H|
00002f30  8b 45 e8 48 89 c7 48 b8  9e 2f be be 00 00 00 00  |.E.H..H../......|
00002f40  ff d0 48 3b 45 e0 0f 92  c0 84 c0 75 c0 90 90 c9  |..H;E......u....|
00002f50  c3 55 48 89 e5 48 83 ec  10 48 89 7d f8 48 89 75  |.UH..H...H.}.H.u|
00002f60  f0 48 8b 45 f8 48 8b 00  48 8b 55 f0 48 8b 12 48  |.H.E.H..H.U.H..H|
00002f70  39 c2 73 06 48 8b 45 f8  eb 04 48 8b 45 f0 c9 c3  |9.s.H.E...H.E...|
00002f80  55 48 89 e5 48 83 ec 10  48 89 7d f8 48 89 75 f0  |UH..H...H.}.H.u.|
00002f90  48 8b 45 f8 48 8b 55 f0  48 89 10 90 c9 c3 55 48  |H.E.H.U.H.....UH|
00002fa0  89 e5 48 83 ec 08 48 89  7d f8 48 8b 45 f8 48 8b  |..H...H.}.H.E.H.|
00002fb0  50 10 48 8b 45 f8 48 8b  40 08 48 29 c2 48 89 d0  |P.H.E.H.@.H).H..|
00002fc0  48 c1 f8 03 c9 c3 55 48  89 e5 48 83 ec 08 48 89  |H.....UH..H...H.|
00002fd0  7d f8 48 8b 45 f8 48 c7  00 00 00 00 00 48 8b 45  |}.H.E.H......H.E|
00002fe0  f8 48 c7 40 08 00 00 00  00 48 8b 45 f8 48 c7 40  |.H.@.....H.E.H.@|
00002ff0  10 00 00 00 00 48 8b 45  f8 48 c7 40 18 00 00 00  |.....H.E.H.@....|
00003000  00 48 8b 45 f8 48 c7 40  20 00 00 00 00 48 8b 45  |.H.E.H.@ ....H.E|
00003010  f8 c6 40 28 00 48 8b 45  f8 48 c7 40 30 00 00 00  |..@(.H.E.H.@0...|
00003020  00 90 c9 c3 55 48 89 e5  48 83 ec 20 48 89 7d f8  |....UH..H.. H.}.|
00003030  48 89 75 f0 48 89 55 e8  48 8b 45 f0 48 89 c7 48  |H.u.H.U.H.E.H..H|
00003040  b8 a4 54 be be 00 00 00  00 ff d0 48 89 c6 48 8b  |..T........H..H.|
00003050  4d e8 48 8b 55 f0 48 8b  45 f8 48 89 c7 48 b8 6c  |M.H.U.H.E.H..H.l|
00003060  30 be be 00 00 00 00 ff  d0 90 c9 c3 55 48 89 e5  |0...........UH..|
00003070  48 83 ec 20 48 89 7d f8  48 89 75 f0 48 89 55 e8  |H.. H.}.H.u.H.U.|
00003080  48 89 4d e0 48 8b 45 f8  48 8b 55 f0 48 89 10 48  |H.M.H.E.H.U.H..H|
00003090  8b 45 f8 48 8b 10 48 8b  45 e8 48 01 c2 48 8b 45  |.E.H..H.E.H..H.E|
000030a0  f8 48 89 50 08 48 8b 45  f8 48 8b 55 e8 48 89 50  |.H.P.H.E.H.U.H.P|
000030b0  10 48 8b 45 f8 48 8b 10  48 8b 45 f8 48 89 50 18  |.H.E.H..H.E.H.P.|
000030c0  48 8b 45 f8 48 8b 10 48  8b 45 f8 48 89 50 20 48  |H.E.H..H.E.H.P H|
000030d0  8b 45 f8 c6 40 28 00 48  8b 45 f8 48 8b 55 e0 48  |.E..@(.H.E.H.U.H|
000030e0  89 50 30 90 c9 c3 55 48  89 e5 48 83 ec 28 48 89  |.P0...UH..H..(H.|
000030f0  7d e8 48 89 75 e0 48 89  55 d8 48 c7 45 f8 00 00  |}.H.u.H.U.H.E...|
00003100  00 00 48 8b 45 e0 48 89  45 f0 eb 2a 48 8b 45 e8  |..H.E.H.E..*H.E.|
00003110  48 8b 40 18 48 8d 48 01  48 8b 55 e8 48 89 4a 18  |H.@.H.H.H.U.H.J.|
00003120  0f b6 10 48 8b 45 f0 48  8d 48 01 48 89 4d f0 88  |...H.E.H.H.H.M..|
00003130  10 48 83 45 f8 01 48 8b  45 f8 48 3b 45 d8 73 15  |.H.E..H.E.H;E.s.|
00003140  48 8b 45 e8 48 8b 50 18  48 8b 45 e8 48 8b 40 20  |H.E.H.P.H.E.H.@ |
00003150  48 39 c2 72 b7 48 8b 45  f8 c9 c3 90 55 48 89 e5  |H9.r.H.E....UH..|
00003160  48 83 ec 30 48 89 7d e8  48 89 75 e0 48 89 55 d8  |H..0H.}.H.u.H.U.|
00003170  48 8b 45 e0 48 89 45 f8  48 c7 45 f0 00 00 00 00  |H.E.H.E.H.E.....|
00003180  eb 2a 48 8b 45 f8 48 8d  50 01 48 89 55 f8 0f b6  |.*H.E.H.P.H.U...|
00003190  10 48 8b 45 e8 48 8b 40  20 48 8d 70 01 48 8b 4d  |.H.E.H.@ H.p.H.M|
000031a0  e8 48 89 71 20 88 10 48  83 45 f0 01 48 8b 45 f0  |.H.q ..H.E..H.E.|
000031b0  48 3b 45 d8 73 15 48 8b  45 e8 48 8b 50 20 48 8b  |H;E.s.H.E.H.P H.|
000031c0  45 e8 48 8b 40 08 48 39  c2 72 b7 48 8b 45 e8 48  |E.H.@.H9.r.H.E.H|
000031d0  8b 50 20 48 8b 45 e8 48  8b 40 08 48 39 c2 72 13  |.P H.E.H.@.H9.r.|
000031e0  48 8b 45 e8 48 89 c7 48  b8 0e 33 be be 00 00 00  |H.E.H..H..3.....|
000031f0  00 ff d0 48 8b 45 f0 c9  c3 90 55 48 89 e5 48 83  |...H.E....UH..H.|
00003200  ec 20 48 89 7d e8 48 89  75 e0 48 b8 04 37 be be  |. H.}.H.u.H..7..|
00003210  00 00 00 00 ff d0 48 8b  45 e8 48 8b 40 18 48 89  |......H.E.H.@.H.|
00003220  45 f8 eb 27 48 8b 45 e8  48 8b 40 18 48 8d 48 01  |E..'H.E.H.@.H.H.|
00003230  48 8b 55 e8 48 89 4a 18  0f b6 00 89 c1 48 8b 45  |H.U.H.J......H.E|
00003240  e0 48 8d 50 01 48 89 55  e0 88 08 48 8b 45 e8 48  |.H.P.H.U...H.E.H|
00003250  8b 40 18 0f b6 00 84 c0  74 15 48 8b 45 e8 48 8b  |.@......t.H.E.H.|
00003260  50 18 48 8b 45 e8 48 8b  40 20 48 39 c2 72 b5 48  |P.H.E.H.@ H9.r.H|
00003270  b8 1a 37 be be 00 00 00  00 ff d0 48 8b 45 e8 48  |..7........H.E.H|
00003280  8b 40 18 48 2b 45 f8 c9  c3 90 55 48 89 e5 48 83  |.@.H+E....UH..H.|
00003290  ec 20 48 89 7d e8 48 89  75 e0 48 b8 04 37 be be  |. H.}.H.u.H..7..|
000032a0  00 00 00 00 ff d0 48 8b  45 e0 48 89 45 f8 eb 28  |......H.E.H.E..(|
000032b0  48 8b 45 e0 48 8d 50 01  48 89 55 e0 0f b6 00 89  |H.E.H.P.H.U.....|
000032c0  c6 48 8b 45 e8 48 8b 40  20 48 8d 48 01 48 8b 55  |.H.E.H.@ H.H.H.U|
000032d0  e8 48 89 4a 20 40 88 30  48 8b 45 e0 0f b6 00 84  |.H.J @.0H.E.....|
000032e0  c0 74 15 48 8b 45 e8 48  8b 50 20 48 8b 45 e8 48  |.t.H.E.H.P H.E.H|
000032f0  8b 40 08 48 39 c2 72 b8  48 b8 1a 37 be be 00 00  |.@.H9.r.H..7....|
00003300  00 00 ff d0 48 8b 45 e0  48 2b 45 f8 c9 c3 55 48  |....H.E.H+E...UH|
00003310  89 e5 48 83 ec 10 48 89  7d f8 48 8b 45 f8 48 8b  |..H...H.}.H.E.H.|
00003320  40 30 48 85 c0 74 13 48  8b 45 f8 48 8b 50 30 48  |@0H..t.H.E.H.P0H|
00003330  8b 45 f8 48 89 c7 ff d2  eb 1e 48 8b 45 f8 48 8b  |.E.H......H.E.H.|
00003340  10 48 8b 45 f8 48 89 50  18 48 8b 45 f8 48 8b 10  |.H.E.H.P.H.E.H..|
00003350  48 8b 45 f8 48 89 50 20  90 c9 c3 55 48 89 e5 48  |H.E.H.P ...UH..H|
00003360  83 ec 10 48 89 7d f8 48  8b 45 f8 ba 08 00 00 00  |...H.}.H.E......|
00003370  48 89 c6 48 b8 60 67 be  be 00 00 00 00 48 89 c7  |H..H.`g......H..|
00003380  48 b8 c2 0a be be 00 00  00 00 ff d0 c9 c3 55 48  |H.............UH|
00003390  89 e5 48 83 ec 10 48 89  7d f8 48 8b 45 f8 48 89  |..H...H.}.H.E.H.|
000033a0  c6 48 b8 60 67 be be 00  00 00 00 48 89 c7 48 b8  |.H.`g......H..H.|
000033b0  82 0b be be 00 00 00 00  ff d0 90 c9 c3 55 48 89  |.............UH.|
000033c0  e5 48 83 ec 50 48 89 7d  b8 48 8b 45 b8 48 8b 50  |.H..PH.}.H.E.H.P|
000033d0  10 48 8b 45 b8 48 8b 40  08 48 89 c1 48 8d 45 c0  |.H.E.H.@.H..H.E.|
000033e0  48 89 ce 48 89 c7 48 b8  a4 0f be be 00 00 00 00  |H..H..H.........|
000033f0  ff d0 48 8d 4d c0 48 be  40 67 be be 00 00 00 00  |..H.M.H.@g......|
00003400  48 8b 01 48 8b 51 08 48  89 06 48 89 56 08 48 8b  |H..H.Q.H..H.V.H.|
00003410  41 10 48 8b 51 18 48 89  46 10 48 89 56 18 48 8d  |A.H.Q.H.F.H.V.H.|
00003420  45 c0 48 89 c7 48 b8 fa  0f be be 00 00 00 00 ff  |E.H..H..........|
00003430  d0 48 8d 45 e0 48 ba 40  67 be be 00 00 00 00 48  |.H.E.H.@g......H|
00003440  89 d6 48 89 c7 48 b8 a0  04 be be 00 00 00 00 ff  |..H..H..........|
00003450  d0 48 b9 60 67 be be 00  00 00 00 48 8b 45 e0 48  |.H.`g......H.E.H|
00003460  8b 55 e8 48 89 01 48 89  51 08 48 8b 45 f0 48 89  |.U.H..H.Q.H.E.H.|
00003470  41 10 90 c9 c3 55 48 89  e5 48 b8 40 67 be be 00  |A....UH..H.@g...|
00003480  00 00 00 48 89 c7 48 b8  f4 34 be be 00 00 00 00  |...H..H..4......|
00003490  ff d0 48 b8 a8 64 be be  00 00 00 00 48 89 c2 48  |..H..d......H..H|
000034a0  b8 40 67 be be 00 00 00  00 48 89 c6 48 b8 fa 0f  |.@g......H..H...|
000034b0  be be 00 00 00 00 48 89  c7 48 b8 00 00 be be 00  |......H..H......|
000034c0  00 00 00 ff d0 48 b8 60  67 be be 00 00 00 00 48  |.....H.`g......H|
000034d0  89 c7 48 b8 6e 04 be be  00 00 00 00 ff d0 90 5d  |..H.n..........]|
000034e0  c3 55 48 89 e5 48 b8 75  34 be be 00 00 00 00 ff  |.UH..H.u4.......|
000034f0  d0 5d c3 90 55 48 89 e5  48 83 ec 08 48 89 7d f8  |.]..UH..H...H.}.|
00003500  90 c9 c3 66 2e 0f 1f 84  00 00 00 00 00 0f 1f 00  |...f............|
00003510  cd 62 c3 55 48 89 e5 48  83 ec 10 48 89 7d f8 89  |.b.UH..H...H.}..|
00003520  f0 88 45 f4 eb 05 48 83  45 f8 01 48 8b 45 f8 0f  |..E...H.E..H.E..|
00003530  b6 00 38 45 f4 74 ef 48  8b 45 f8 c9 c3 55 48 89  |..8E.t.H.E...UH.|
00003540  e5 48 83 ec 10 48 89 7d  f8 89 f0 88 45 f4 eb 05  |.H...H.}....E...|
00003550  48 83 45 f8 01 48 8b 45  f8 0f b6 00 84 c0 74 0c  |H.E..H.E......t.|
00003560  48 8b 45 f8 0f b6 00 38  45 f4 75 e4 48 8b 45 f8  |H.E....8E.u.H.E.|
00003570  c9 c3 55 48 89 e5 48 83  ec 20 48 89 7d e8 89 f0  |..UH..H.. H.}...|
00003580  88 45 e4 48 c7 45 f8 00  00 00 00 eb 16 48 8b 45  |.E.H.E.......H.E|
00003590  e8 0f b6 00 38 45 e4 75  05 48 83 45 f8 01 48 83  |....8E.u.H.E..H.|
000035a0  45 e8 01 48 8b 45 e8 0f  b6 00 84 c0 75 df 48 8b  |E..H.E......u.H.|
000035b0  45 f8 c9 c3 55 48 89 e5  48 83 ec 30 48 89 7d d8  |E...UH..H..0H.}.|
000035c0  48 89 75 d0 48 8b 45 d8  48 89 c7 48 b8 3d 54 be  |H.u.H.E.H..H.=T.|
000035d0  be 00 00 00 00 ff d0 48  89 45 e8 48 8b 45 d0 48  |.......H.E.H.E.H|
000035e0  89 c7 48 b8 3d 54 be be  00 00 00 00 ff d0 48 89  |..H.=T........H.|
000035f0  45 e0 eb 50 c6 45 ff 00  48 c7 45 f0 00 00 00 00  |E..P.E..H.E.....|
00003600  eb 22 48 8b 45 d8 0f b6  10 48 8b 4d d0 48 8b 45  |."H.E....H.M.H.E|
00003610  f0 48 01 c8 0f b6 00 38  c2 75 04 c6 45 ff 01 48  |.H.....8.u..E..H|
00003620  83 45 f0 01 48 8b 45 f0  48 3b 45 e0 72 d4 0f b6  |.E..H.E.H;E.r...|
00003630  45 ff 83 f0 01 84 c0 74  06 48 8b 45 d8 eb 14 48  |E......t.H.E...H|
00003640  83 45 d8 01 48 8b 45 d8  0f b6 00 84 c0 75 a5 48  |.E..H.E......u.H|
00003650  8b 45 d8 c9 c3 55 48 89  e5 48 83 ec 40 48 89 7d  |.E...UH..H..@H.}|
00003660  c8 48 89 75 c0 48 8b 45  c8 48 89 c7 48 b8 3d 54  |.H.u.H.E.H..H.=T|
00003670  be be 00 00 00 00 ff d0  48 89 45 e8 48 8b 45 c0  |........H.E.H.E.|
00003680  48 89 c7 48 b8 3d 54 be  be 00 00 00 00 ff d0 48  |H..H.=T........H|
00003690  89 45 e0 48 8b 55 c8 48  8b 45 e8 48 01 d0 48 89  |.E.H.U.H.E.H..H.|
000036a0  45 f8 48 c7 45 f0 00 00  00 00 eb 41 48 8b 55 c0  |E.H.E......AH.U.|
000036b0  48 8b 45 f0 48 01 d0 0f  b6 00 0f be d0 48 8b 45  |H.E.H........H.E|
000036c0  c8 89 d6 48 89 c7 48 b8  3d 35 be be 00 00 00 00  |...H..H.=5......|
000036d0  ff d0 48 89 45 d8 48 8b  45 d8 48 3b 45 f8 73 08  |..H.E.H.E.H;E.s.|
000036e0  48 8b 45 d8 48 89 45 f8  48 83 45 f0 01 48 8b 45  |H.E.H.E.H.E..H.E|
000036f0  f0 48 3b 45 e0 72 b5 48  8b 45 f8 c9 c3 0f 1f 00  |.H;E.r.H.E......|
00003700  cd 63 c3 90 55 48 89 e5  fa 48 b8 80 67 be be 00  |.c..UH...H..g...|
00003710  00 00 00 c6 00 01 90 5d  c3 90 55 48 89 e5 48 b8  |.......]..UH..H.|
00003720  80 67 be be 00 00 00 00  c6 00 00 fb 90 5d c3 90  |.g...........]..|
00003730  55 48 89 e5 48 83 ec 10  48 c7 45 f8 00 00 00 00  |UH..H...H.E.....|
00003740  48 b8 04 37 be be 00 00  00 00 ff d0 48 b8 88 67  |H..7........H..g|
00003750  be be 00 00 00 00 48 8b  00 48 8b 00 48 89 45 f8  |......H..H..H.E.|
00003760  48 b8 1a 37 be be 00 00  00 00 ff d0 48 8b 45 f8  |H..7........H.E.|
00003770  c9 c3 55 48 89 e5 48 b8  f5 3e be be 00 00 00 00  |..UH..H..>......|
00003780  ff d0 90 5d c3 90 55 48  89 e5 48 b8 88 67 be be  |...]..UH..H..g..|
00003790  00 00 00 00 48 8b 00 c6  40 08 00 90 5d c3 55 48  |....H...@...].UH|
000037a0  89 e5 48 83 ec 08 48 89  7d f8 48 b8 80 67 be be  |..H...H.}.H..g..|
000037b0  00 00 00 00 0f b6 00 0f  b6 c0 83 f8 01 0f 84 5b  |...............[|
000037c0  02 00 00 48 b8 88 67 be  be 00 00 00 00 48 8b 00  |...H..g......H..|
000037d0  48 85 c0 0f 84 48 02 00  00 48 b8 62 58 be be 00  |H....H...H.bX...|
000037e0  00 00 00 0f b6 00 0f b6  c0 85 c0 0f 85 00 01 00  |................|
000037f0  00 48 b8 88 67 be be 00  00 00 00 48 8b 00 48 8b  |.H..g......H..H.|
00003800  55 f8 48 8b 52 28 48 89  50 48 48 b8 88 67 be be  |U.H.R(H.PHH..g..|
00003810  00 00 00 00 48 8b 00 48  8b 55 f8 48 8b 52 30 48  |....H..H.U.H.R0H|
00003820  89 50 50 48 b8 88 67 be  be 00 00 00 00 48 8b 00  |.PPH..g......H..|
00003830  48 8b 55 f8 48 8b 52 38  48 89 50 58 48 b8 88 67  |H.U.H.R8H.PXH..g|
00003840  be be 00 00 00 00 48 8b  00 48 8b 55 f8 48 8b 52  |......H..H.U.H.R|
00003850  40 48 89 50 60 48 b8 88  67 be be 00 00 00 00 48  |@H.P`H..g......H|
00003860  8b 00 48 8b 55 f8 48 8b  92 88 00 00 00 48 89 50  |..H.U.H......H.P|
00003870  20 48 b8 88 67 be be 00  00 00 00 48 8b 00 48 8b  | H..g......H..H.|
00003880  55 f8 48 8b 52 70 48 89  50 18 48 b8 88 67 be be  |U.H.RpH.P.H..g..|
00003890  00 00 00 00 48 8b 00 48  8b 55 f8 48 8b 52 48 48  |....H..H.U.H.RHH|
000038a0  89 50 28 48 b8 88 67 be  be 00 00 00 00 48 8b 00  |.P(H..g......H..|
000038b0  48 8b 55 f8 48 8b 52 50  48 89 50 30 48 b8 88 67  |H.U.H.RPH.P0H..g|
000038c0  be be 00 00 00 00 48 8b  00 48 8b 55 f8 48 8b 52  |......H..H.U.H.R|
000038d0  58 48 89 50 38 48 b8 88  67 be be 00 00 00 00 48  |XH.P8H..g......H|
000038e0  8b 00 48 8b 55 f8 48 8b  92 80 00 00 00 48 89 50  |..H.U.H......H.P|
000038f0  40 48 b8 62 58 be be 00  00 00 00 c6 00 00 48 b8  |@H.bX.........H.|
00003900  88 67 be be 00 00 00 00  48 8b 00 48 8b 40 68 48  |.g......H..H.@hH|
00003910  ba 88 67 be be 00 00 00  00 48 89 02 48 b8 88 67  |..g......H..H..g|
00003920  be be 00 00 00 00 48 8b  00 48 8b 50 48 48 8b 45  |......H..H.PHH.E|
00003930  f8 48 89 50 28 48 b8 88  67 be be 00 00 00 00 48  |.H.P(H..g......H|
00003940  8b 00 48 8b 50 50 48 8b  45 f8 48 89 50 30 48 b8  |..H.PPH.E.H.P0H.|
00003950  88 67 be be 00 00 00 00  48 8b 00 48 8b 50 58 48  |.g......H..H.PXH|
00003960  8b 45 f8 48 89 50 38 48  b8 88 67 be be 00 00 00  |.E.H.P8H..g.....|
00003970  00 48 8b 00 48 8b 50 60  48 8b 45 f8 48 89 50 40  |.H..H.P`H.E.H.P@|
00003980  48 b8 88 67 be be 00 00  00 00 48 8b 00 48 8b 50  |H..g......H..H.P|
00003990  20 48 8b 45 f8 48 89 90  88 00 00 00 48 b8 88 67  | H.E.H......H..g|
000039a0  be be 00 00 00 00 48 8b  00 48 8b 50 18 48 8b 45  |......H..H.P.H.E|
000039b0  f8 48 89 50 70 48 b8 88  67 be be 00 00 00 00 48  |.H.PpH..g......H|
000039c0  8b 00 48 8b 50 40 48 8b  45 f8 48 89 90 80 00 00  |..H.P@H.E.H.....|
000039d0  00 48 b8 88 67 be be 00  00 00 00 48 8b 00 48 8b  |.H..g......H..H.|
000039e0  50 28 48 8b 45 f8 48 89  50 48 48 b8 88 67 be be  |P(H.E.H.PHH..g..|
000039f0  00 00 00 00 48 8b 00 48  8b 50 30 48 8b 45 f8 48  |....H..H.P0H.E.H|
00003a00  89 50 50 48 b8 88 67 be  be 00 00 00 00 48 8b 00  |.PPH..g......H..|
00003a10  48 8b 50 38 48 8b 45 f8  48 89 50 58 eb 04 90 eb  |H.P8H.E.H.PX....|
00003a20  01 90 c9 c3 55 48 89 e5  48 83 ec 10 48 89 7d f8  |....UH..H...H.}.|
00003a30  48 b8 e8 56 be be 00 00  00 00 48 89 c7 b8 00 00  |H..V......H.....|
00003a40  00 00 48 ba cf 49 be be  00 00 00 00 ff d2 90 90  |..H..I..........|
00003a50  eb de 55 48 89 e5 48 83  ec 10 48 89 7d f8 48 89  |..UH..H...H.}.H.|
00003a60  75 f0 48 8b 55 f8 48 8b  45 f0 48 89 c7 ff d2 48  |u.H.U.H.E.H....H|
00003a70  b8 88 67 be be 00 00 00  00 48 8b 00 c6 40 08 00  |..g......H...@..|
00003a80  48 b8 ee 56 be be 00 00  00 00 48 89 c7 b8 00 00  |H..V......H.....|
00003a90  00 00 48 ba cf 49 be be  00 00 00 00 ff d2 f4 eb  |..H..I..........|
00003aa0  fd 90 55 48 89 e5 48 83  ec 08 48 89 7d f8 48 b8  |..UH..H...H.}.H.|
00003ab0  88 67 be be 00 00 00 00  48 8b 00 48 85 c0 75 31  |.g......H..H..u1|
00003ac0  48 ba 88 67 be be 00 00  00 00 48 8b 45 f8 48 89  |H..g......H.E.H.|
00003ad0  02 48 b8 88 67 be be 00  00 00 00 48 8b 00 48 ba  |.H..g......H..H.|
00003ae0  88 67 be be 00 00 00 00  48 8b 12 48 89 50 68 eb  |.g......H..H.Ph.|
00003af0  7d 48 b8 88 67 be be 00  00 00 00 48 8b 00 48 8b  |}H..g......H..H.|
00003b00  50 68 48 b8 88 67 be be  00 00 00 00 48 8b 00 48  |PhH..g......H..H|
00003b10  39 c2 75 2c 48 b8 88 67  be be 00 00 00 00 48 8b  |9.u,H..g......H.|
00003b20  00 48 8b 55 f8 48 89 50  68 48 b8 88 67 be be 00  |.H.U.H.PhH..g...|
00003b30  00 00 00 48 8b 10 48 8b  45 f8 48 89 50 68 eb 2e  |...H..H.E.H.Ph..|
00003b40  48 b8 88 67 be be 00 00  00 00 48 8b 00 48 8b 50  |H..g......H..H.P|
00003b50  68 48 8b 45 f8 48 89 50  68 48 b8 88 67 be be 00  |hH.E.H.PhH..g...|
00003b60  00 00 00 48 8b 00 48 8b  55 f8 48 89 50 68 90 c9  |...H..H.U.H.Ph..|
00003b70  c3 90 55 48 89 e5 53 48  83 ec 28 48 89 7d d8 48  |..UH..SH..(H.}.H|
00003b80  b8 04 37 be be 00 00 00  00 ff d0 48 8b 45 d8 48  |..7........H.E.H|
00003b90  8b 40 68 48 85 c0 75 19  48 b8 0b 57 be be 00 00  |.@hH..u.H..W....|
00003ba0  00 00 48 89 c7 48 b8 10  35 be be 00 00 00 00 ff  |..H..H..5.......|
00003bb0  d0 48 c7 45 e8 00 00 00  00 48 8b 45 d8 48 8b 40  |.H.E.....H.E.H.@|
00003bc0  68 48 89 45 e0 eb 14 48  8b 45 e0 48 89 45 e8 48  |hH.E...H.E.H.E.H|
00003bd0  8b 45 e0 48 8b 40 68 48  89 45 e0 48 8b 45 e0 48  |.E.H.@hH.E.H.E.H|
00003be0  3b 45 d8 75 e2 48 83 7d  e8 00 75 19 48 b8 1b 57  |;E.u.H.}..u.H..W|
00003bf0  be be 00 00 00 00 48 89  c7 48 b8 10 35 be be 00  |......H..H..5...|
00003c00  00 00 00 ff d0 48 8b 45  d8 48 8b 50 68 48 8b 45  |.....H.E.H.PhH.E|
00003c10  e8 48 89 50 68 48 8b 5d  d8 48 85 db 74 23 48 89  |.H.PhH.].H..t#H.|
00003c20  df 48 b8 6a 3e be be 00  00 00 00 ff d0 be 70 00  |.H.j>.........p.|
00003c30  00 00 48 89 df 48 b8 e7  54 be be 00 00 00 00 ff  |..H..H..T.......|
00003c40  d0 48 b8 1a 37 be be 00  00 00 00 ff d0 90 48 8b  |.H..7.........H.|
00003c50  5d f8 c9 c3 55 48 89 e5  48 83 ec 20 48 89 7d e8  |]...UH..H.. H.}.|
00003c60  48 b8 88 67 be be 00 00  00 00 48 8b 00 48 8b 40  |H..g......H..H.@|
00003c70  68 48 89 45 f8 eb 55 48  8b 45 f8 0f b6 40 08 84  |hH.E..UH.E...@..|
00003c80  c0 75 3d 48 8b 45 f8 48  8b 00 48 89 c6 48 b8 30  |.u=H.E.H..H..H.0|
00003c90  57 be be 00 00 00 00 48  89 c7 b8 00 00 00 00 48  |W......H.......H|
00003ca0  ba cf 49 be be 00 00 00  00 ff d2 48 8b 45 f8 48  |..I........H.E.H|
00003cb0  89 c7 48 b8 72 3b be be  00 00 00 00 ff d0 eb 1f  |..H.r;..........|
00003cc0  48 8b 45 f8 48 8b 40 68  48 89 45 f8 48 b8 88 67  |H.E.H.@hH.E.H..g|
00003cd0  be be 00 00 00 00 48 8b  00 48 39 45 f8 75 98 48  |......H..H9E.u.H|
00003ce0  b8 72 37 be be 00 00 00  00 ff d0 e9 70 ff ff ff  |.r7.........p...|
00003cf0  55 48 89 e5 48 83 ec 30  48 89 7d e8 48 89 75 e0  |UH..H..0H.}.H.u.|
00003d00  48 89 55 d8 48 b8 61 58  be be 00 00 00 00 0f b6  |H.U.H.aX........|
00003d10  00 84 c0 74 42 48 b8 61  58 be be 00 00 00 00 c6  |...tBH.aX.......|
00003d20  00 00 bf 70 00 00 00 48  b8 83 54 be be 00 00 00  |...p...H..T.....|
00003d30  00 ff d0 48 89 c1 ba 00  00 00 00 48 b8 54 3c be  |...H.......H.T<.|
00003d40  be 00 00 00 00 48 89 c6  48 89 cf 48 b8 f0 3c be  |.....H..H..H..<.|
00003d50  be 00 00 00 00 ff d0 48  b8 04 37 be be 00 00 00  |.......H..7.....|
00003d60  00 ff d0 bf 00 10 00 00  48 b8 a4 54 be be 00 00  |........H..T....|
00003d70  00 00 ff d0 48 89 45 f8  48 8b 45 f8 48 05 00 10  |....H.E.H.E.H...|
00003d80  00 00 48 89 45 f0 48 8b  45 f0 48 83 e0 f0 48 89  |..H.E.H.E.H...H.|
00003d90  45 f0 48 83 6d f0 08 48  8b 45 f8 ba 00 10 00 00  |E.H.m..H.E......|
00003da0  be 00 00 00 00 48 89 c7  48 b8 83 52 be be 00 00  |.....H..H..R....|
00003db0  00 00 ff d0 48 b8 78 67  be be 00 00 00 00 48 8b  |....H.xg......H.|
00003dc0  00 48 8d 50 01 48 b9 78  67 be be 00 00 00 00 48  |.H.P.H.xg......H|
00003dd0  89 11 48 8b 55 e8 48 89  02 48 8b 45 e8 c6 40 08  |..H.U.H..H.E..@.|
00003de0  01 48 8b 45 e8 48 8b 55  f8 48 89 50 10 48 8b 55  |.H.E.H.U.H.P.H.U|
00003df0  f0 48 8b 45 e8 48 89 50  20 48 ba 52 3a be be 00  |.H.E.H.P H.R:...|
00003e00  00 00 00 48 8b 45 e8 48  89 50 18 48 8b 55 e0 48  |...H.E.H.P.H.U.H|
00003e10  8b 45 e8 48 89 50 28 48  8b 55 d8 48 8b 45 e8 48  |.E.H.P(H.U.H.E.H|
00003e20  89 50 30 48 8b 45 e8 48  c7 40 38 00 00 00 00 48  |.P0H.E.H.@8....H|
00003e30  8b 45 e8 48 c7 40 40 02  02 00 00 48 8b 45 e8 48  |.E.H.@@....H.E.H|
00003e40  c7 40 68 00 00 00 00 48  8b 45 e8 48 89 c7 48 b8  |.@h....H.E.H..H.|
00003e50  a2 3a be be 00 00 00 00  ff d0 48 b8 1a 37 be be  |.:........H..7..|
00003e60  00 00 00 00 ff d0 90 c9  c3 90 55 48 89 e5 48 83  |..........UH..H.|
00003e70  ec 10 48 89 7d f8 48 b8  5a 57 be be 00 00 00 00  |..H.}.H.ZW......|
00003e80  48 89 c7 b8 00 00 00 00  48 ba cf 49 be be 00 00  |H.......H..I....|
00003e90  00 00 ff d2 48 8b 45 f8  48 8b 40 10 48 85 c0 74  |....H.E.H.@.H..t|
00003ea0  17 48 8b 45 f8 48 8b 40  10 48 89 c7 48 b8 0d 55  |.H.E.H.@.H..H..U|
00003eb0  be be 00 00 00 00 ff d0  90 c9 c3 55 48 89 e5 48  |...........UH..H|
00003ec0  83 ec 08 48 89 7d f8 48  8b 45 f8 0f b6 00 0f b6  |...H.}.H.E......|
00003ed0  c0 85 c0 75 f2 48 8b 45  f8 c6 00 01 90 c9 c3 55  |...u.H.E.......U|
00003ee0  48 89 e5 48 83 ec 08 48  89 7d f8 48 8b 45 f8 c6  |H..H...H.}.H.E..|
00003ef0  00 00 90 c9 c3 55 48 89  e5 cd 61 90 5d c3 55 48  |.....UH...a.].UH|
00003f00  89 e5 48 b8 15 3f be be  00 00 00 00 ff d0 b8 01  |..H..?..........|
00003f10  00 00 00 5d c3 55 48 89  e5 48 83 ec 60 c7 45 a0  |...].UH..H..`.E.|
00003f20  05 00 00 00 48 8d 45 a0  48 83 c0 10 48 ba 6f 57  |....H.E.H...H.oW|
00003f30  be be 00 00 00 00 48 89  d6 48 89 c7 48 b8 94 53  |......H..H..H..S|
00003f40  be be 00 00 00 00 ff d0  48 8d 45 a0 48 89 c7 48  |........H.E.H..H|
00003f50  b8 80 54 be be 00 00 00  00 ff d0 48 8b 45 f0 48  |..T........H.E.H|
00003f60  ba a0 67 be be 00 00 00  00 48 89 02 b8 01 00 00  |..g......H......|
00003f70  00 c9 c3 55 48 89 e5 48  83 ec 20 f2 0f 11 45 e8  |...UH..H.. ...E.|
00003f80  f2 0f 11 4d e0 48 b8 30  58 be be 00 00 00 00 f2  |...M.H.0X.......|
00003f90  0f 10 00 f2 0f 11 45 f8  48 b8 38 58 be be 00 00  |......E.H.8X....|
00003fa0  00 00 f2 0f 10 00 f2 0f  11 45 f0 eb 2b f2 0f 10  |.........E..+...|
00003fb0  45 f8 f2 0f 59 45 e8 f2  0f 11 45 f8 f2 0f 10 4d  |E...YE....E....M|
00003fc0  f0 48 b8 30 58 be be 00  00 00 00 f2 0f 10 00 f2  |.H.0X...........|
00003fd0  0f 58 c1 f2 0f 11 45 f0  f2 0f 10 45 e0 66 0f 2f  |.X....E....E.f./|
00003fe0  45 f0 77 c9 f2 0f 10 45  f8 66 48 0f 7e c0 66 48  |E.w....E.fH.~.fH|
00003ff0  0f 6e c0 c9 c3 55 48 89  e5 48 83 ec 40 f2 0f 11  |.n...UH..H..@...|
00004000  45 d8 89 7d d4 48 89 75  c8 f2 0f 10 45 d8 48 b8  |E..}.H.u....E.H.|
00004010  40 58 be be 00 00 00 00  f2 0f 10 08 66 0f 2f c1  |@X..........f./.|
00004020  73 10 f2 0f 10 45 d8 f2  48 0f 2c c0 48 89 45 f8  |s....E..H.,.H.E.|
00004030  eb 2e f2 0f 10 45 d8 48  b8 40 58 be be 00 00 00  |.....E.H.@X.....|
00004040  00 f2 0f 10 08 f2 0f 5c  c1 f2 48 0f 2c c0 48 89  |.......\..H.,.H.|
00004050  45 f8 48 b8 00 00 00 00  00 00 00 80 48 31 45 f8  |E.H.........H1E.|
00004060  48 8b 45 f8 48 89 45 f8  66 0f ef c0 f2 0f 2a 45  |H.E.H.E.f.....*E|
00004070  d4 48 b8 48 58 be be 00  00 00 00 48 8b 00 66 0f  |.H.HX......H..f.|
00004080  28 c8 66 48 0f 6e c0 48  b8 73 3f be be 00 00 00  |(.fH.n.H.s?.....|
00004090  00 ff d0 f2 0f 10 4d d8  f2 0f 59 c1 f2 0f 11 45  |......M...Y....E|
000040a0  f0 48 b8 38 58 be be 00  00 00 00 66 0f ef c0 66  |.H.8X......f...f|
000040b0  0f 2f 45 f0 76 58 f2 0f  10 45 f0 48 b8 50 58 be  |./E.vX...E.H.PX.|
000040c0  be 00 00 00 00 66 0f 28  08 66 0f 57 c1 48 b8 40  |.....f.(.f.W.H.@|
000040d0  58 be be 00 00 00 00 f2  0f 10 08 66 0f 2f c1 73  |X..........f./.s|
000040e0  07 f2 48 0f 2c c0 eb 74  48 b8 40 58 be be 00 00  |..H.,..tH.@X....|
000040f0  00 00 f2 0f 10 08 f2 0f  5c c1 f2 48 0f 2c c0 48  |........\..H.,.H|
00004100  ba 00 00 00 00 00 00 00  80 48 31 d0 eb 4e f2 0f  |.........H1..N..|
00004110  10 45 f0 48 b8 40 58 be  be 00 00 00 00 f2 0f 10  |.E.H.@X.........|
00004120  08 66 0f 2f c1 73 0c f2  0f 10 45 f0 f2 48 0f 2c  |.f./.s....E..H.,|
00004130  c0 eb 29 f2 0f 10 45 f0  48 b8 40 58 be be 00 00  |..)...E.H.@X....|
00004140  00 00 f2 0f 10 08 f2 0f  5c c1 f2 48 0f 2c c0 48  |........\..H.,.H|
00004150  ba 00 00 00 00 00 00 00  80 48 31 d0 48 89 45 e8  |.........H1.H.E.|
00004160  48 8b 4d c8 48 8b 45 f8  ba 0a 00 00 00 48 89 ce  |H.M.H.E......H..|
00004170  48 89 c7 48 b8 f1 4d be  be 00 00 00 00 ff d0 48  |H..H..M........H|
00004180  89 45 c8 48 8b 45 c8 48  8d 50 01 48 89 55 c8 c6  |.E.H.E.H.P.H.U..|
00004190  00 2e 48 8b 4d c8 48 8b  45 e8 ba 0a 00 00 00 48  |..H.M.H.E......H|
000041a0  89 ce 48 89 c7 48 b8 f1  4d be be 00 00 00 00 ff  |..H..H..M.......|
000041b0  d0 48 89 45 c8 48 8b 45  c8 c9 c3 55 48 89 e5 48  |.H.E.H.E...UH..H|
000041c0  83 ec 10 48 89 7d f8 89  f0 88 45 f4 eb 05 48 83  |...H.}....E...H.|
000041d0  45 f8 01 48 8b 45 f8 0f  b6 00 84 c0 74 0c 48 8b  |E..H.E......t.H.|
000041e0  45 f8 0f b6 00 38 45 f4  75 e4 48 8b 45 f8 0f b6  |E....8E.u.H.E...|
000041f0  00 84 c0 75 07 b8 00 00  00 00 eb 04 48 8b 45 f8  |...u........H.E.|
00004200  c9 c3 55 48 89 e5 48 83  ec 40 48 89 7d d8 48 89  |..UH..H..@H.}.H.|
00004210  75 d0 48 89 55 c8 48 8b  45 d0 48 8b 00 0f b6 00  |u.H.U.H.E.H.....|
00004220  3c 66 75 6e 48 8b 45 c8  8b 40 04 3d af 00 00 00  |<funH.E..@.=....|
00004230  77 27 48 8b 45 c8 48 8b  50 10 48 8b 45 c8 8b 40  |w'H.E.H.P.H.E..@|
00004240  04 89 c0 48 01 d0 48 8b  55 c8 8b 52 04 8d 4a 10  |...H..H.U..R..J.|
00004250  48 8b 55 c8 89 4a 04 eb  14 48 8b 45 c8 48 8b 40  |H.U..J...H.E.H.@|
00004260  08 48 8d 48 08 48 8b 55  c8 48 89 4a 08 48 8b 00  |.H.H.H.U.H.J.H..|
00004270  48 8b 55 d8 48 89 d6 bf  08 00 00 00 66 48 0f 6e  |H.U.H.......fH.n|
00004280  c0 48 b8 f5 3f be be 00  00 00 00 ff d0 e9 d3 00  |.H..?...........|
00004290  00 00 48 8b 45 d0 48 8b  00 48 89 45 f8 48 8b 45  |..H.E.H..H.E.H.E|
000042a0  d0 48 8b 00 be 66 00 00  00 48 89 c7 48 b8 bb 41  |.H...f...H..H..A|
000042b0  be be 00 00 00 00 ff d0  48 89 45 f0 48 83 7d f0  |........H.E.H.}.|
000042c0  00 75 09 48 8b 45 d8 e9  99 00 00 00 48 8b 45 f8  |.u.H.E......H.E.|
000042d0  48 83 c0 01 0f b6 00 3c  2e 74 09 48 8b 45 d8 e9  |H......<.t.H.E..|
000042e0  81 00 00 00 48 83 45 f8  01 48 83 45 f8 01 48 8b  |....H.E..H.E..H.|
000042f0  45 f8 0f b6 00 0f be c0  89 45 ec 48 8b 45 c8 8b  |E........E.H.E..|
00004300  40 04 3d af 00 00 00 77  27 48 8b 45 c8 48 8b 50  |@.=....w'H.E.H.P|
00004310  10 48 8b 45 c8 8b 40 04  89 c0 48 01 d0 48 8b 55  |.H.E..@...H..H.U|
00004320  c8 8b 52 04 8d 4a 10 48  8b 55 c8 89 4a 04 eb 14  |..R..J.H.U..J...|
00004330  48 8b 45 c8 48 8b 40 08  48 8d 48 08 48 8b 55 c8  |H.E.H.@.H.H.H.U.|
00004340  48 89 4a 08 48 8b 00 48  8b 4d d8 8b 55 ec 48 89  |H.J.H..H.M..U.H.|
00004350  ce 89 d7 66 48 0f 6e c0  48 b8 f5 3f be be 00 00  |...fH.n.H..?....|
00004360  00 00 ff d0 90 c9 c3 55  48 89 e5 48 83 ec 30 48  |.......UH..H..0H|
00004370  89 7d e8 48 89 75 e0 48  89 55 d8 c7 45 fc 00 00  |.}.H.u.H.U..E...|
00004380  00 00 48 8b 45 e0 48 8b  00 48 8d 50 01 48 8b 45  |..H.E.H..H.P.H.E|
00004390  e0 48 89 10 48 8b 45 e0  48 8b 00 0f b6 00 0f be  |.H..H.E.H.......|
000043a0  c0 83 f8 78 0f 8f b3 02  00 00 83 f8 63 7d 17 83  |...x........c}..|
000043b0  f8 2e 0f 84 5d 02 00 00  83 f8 30 0f 84 30 02 00  |....].....0..0..|
000043c0  00 e9 97 02 00 00 83 e8  63 83 f8 15 0f 87 8b 02  |........c.......|
000043d0  00 00 89 c0 48 8d 14 c5  00 00 00 00 48 b8 80 57  |....H.......H..W|
000043e0  be be 00 00 00 00 48 01  d0 48 8b 00 ff e0 c7 45  |......H..H.....E|
000043f0  fc 01 00 00 00 e9 64 02  00 00 48 8b 45 d8 8b 00  |......d...H.E...|
00004400  83 f8 2f 77 24 48 8b 45  d8 48 8b 50 10 48 8b 45  |../w$H.E.H.P.H.E|
00004410  d8 8b 00 89 c0 48 01 d0  48 8b 55 d8 8b 12 8d 4a  |.....H..H.U....J|
00004420  08 48 8b 55 d8 89 0a eb  14 48 8b 45 d8 48 8b 40  |.H.U.....H.E.H.@|
00004430  08 48 8d 48 08 48 8b 55  d8 48 89 4a 08 8b 00 89  |.H.H.H.U.H.J....|
00004440  c1 48 8b 45 e8 48 8d 50  01 48 89 55 e8 88 08 e9  |.H.E.H.P.H.U....|
00004450  0a 02 00 00 48 8b 45 d8  8b 00 83 f8 2f 77 24 48  |....H.E...../w$H|
00004460  8b 45 d8 48 8b 50 10 48  8b 45 d8 8b 00 89 c0 48  |.E.H.P.H.E.....H|
00004470  01 d0 48 8b 55 d8 8b 12  8d 4a 08 48 8b 55 d8 89  |..H.U....J.H.U..|
00004480  0a eb 14 48 8b 45 d8 48  8b 40 08 48 8d 48 08 48  |...H.E.H.@.H.H.H|
00004490  8b 55 d8 48 89 4a 08 48  8b 10 48 8b 45 e8 48 89  |.U.H.J.H..H.E.H.|
000044a0  d6 48 89 c7 48 b8 94 53  be be 00 00 00 00 ff d0  |.H..H..S........|
000044b0  48 89 45 e8 e9 a5 01 00  00 48 8b 45 d8 8b 00 83  |H.E......H.E....|
000044c0  f8 2f 77 24 48 8b 45 d8  48 8b 50 10 48 8b 45 d8  |./w$H.E.H.P.H.E.|
000044d0  8b 00 89 c0 48 01 d0 48  8b 55 d8 8b 12 8d 4a 08  |....H..H.U....J.|
000044e0  48 8b 55 d8 89 0a eb 14  48 8b 45 d8 48 8b 40 08  |H.U.....H.E.H.@.|
000044f0  48 8d 48 08 48 8b 55 d8  48 89 4a 08 8b 00 48 8b  |H.H.H.U.H.J...H.|
00004500  4d e8 ba 0a 00 00 00 48  89 ce 89 c7 48 b8 b6 4e  |M......H....H..N|
00004510  be be 00 00 00 00 ff d0  48 89 45 e8 e9 3d 01 00  |........H.E..=..|
00004520  00 48 8b 45 d8 8b 00 83  f8 2f 77 24 48 8b 45 d8  |.H.E...../w$H.E.|
00004530  48 8b 50 10 48 8b 45 d8  8b 00 89 c0 48 01 d0 48  |H.P.H.E.....H..H|
00004540  8b 55 d8 8b 12 8d 4a 08  48 8b 55 d8 89 0a eb 14  |.U....J.H.U.....|
00004550  48 8b 45 d8 48 8b 40 08  48 8d 48 08 48 8b 55 d8  |H.E.H.@.H.H.H.U.|
00004560  48 89 4a 08 8b 00 48 8b  4d e8 ba 0a 00 00 00 48  |H.J...H.M......H|
00004570  89 ce 89 c7 48 b8 be 4f  be be 00 00 00 00 ff d0  |....H..O........|
00004580  48 89 45 e8 e9 d5 00 00  00 48 8b 45 d8 8b 00 83  |H.E......H.E....|
00004590  f8 2f 77 24 48 8b 45 d8  48 8b 50 10 48 8b 45 d8  |./w$H.E.H.P.H.E.|
000045a0  8b 00 89 c0 48 01 d0 48  8b 55 d8 8b 12 8d 4a 08  |....H..H.U....J.|
000045b0  48 8b 55 d8 89 0a eb 14  48 8b 45 d8 48 8b 40 08  |H.U.....H.E.H.@.|
000045c0  48 8d 48 08 48 8b 55 d8  48 89 4a 08 8b 00 89 c1  |H.H.H.U.H.J.....|
000045d0  48 8b 45 e8 ba 10 00 00  00 48 89 c6 48 89 cf 48  |H.E......H..H..H|
000045e0  b8 f1 4d be be 00 00 00  00 ff d0 48 89 45 e8 eb  |..M........H.E..|
000045f0  6d 48 8b 55 d8 48 8b 4d  e0 48 8b 45 e8 48 89 ce  |mH.U.H.M.H.E.H..|
00004600  48 89 c7 48 b8 02 42 be  be 00 00 00 00 ff d0 48  |H..H..B........H|
00004610  89 45 e8 eb 49 48 8b 55  d8 48 8b 4d e0 48 8b 45  |.E..IH.U.H.M.H.E|
00004620  e8 48 89 ce 48 89 c7 48  b8 02 42 be be 00 00 00  |.H..H..H..B.....|
00004630  00 ff d0 48 89 45 e8 eb  25 48 8b 55 d8 48 8b 4d  |...H.E..%H.U.H.M|
00004640  e0 48 8b 45 e8 48 89 ce  48 89 c7 48 b8 02 42 be  |.H.E.H..H..H..B.|
00004650  be 00 00 00 00 ff d0 48  89 45 e8 eb 01 90 83 7d  |.......H.E.....}|
00004660  fc 00 0f 84 22 02 00 00  48 8b 45 e0 48 8b 00 48  |...."...H.E.H..H|
00004670  8d 50 01 48 8b 45 e0 48  89 10 48 8b 45 e0 48 8b  |.P.H.E.H..H.E.H.|
00004680  00 0f b6 00 0f be c0 83  f8 78 0f 84 26 01 00 00  |.........x..&...|
00004690  83 f8 78 0f 8f f0 01 00  00 83 f8 75 0f 84 aa 00  |..x........u....|
000046a0  00 00 83 f8 75 0f 8f de  01 00 00 83 f8 66 0f 84  |....u........f..|
000046b0  b1 01 00 00 83 f8 66 0f  8f cc 01 00 00 83 f8 64  |......f........d|
000046c0  74 20 83 f8 64 0f 8f be  01 00 00 83 f8 2e 0f 84  |t ..d...........|
000046d0  6d 01 00 00 83 f8 30 0f  84 40 01 00 00 e9 a7 01  |m.....0..@......|
000046e0  00 00 48 8b 45 d8 8b 00  83 f8 2f 77 24 48 8b 45  |..H.E...../w$H.E|
000046f0  d8 48 8b 50 10 48 8b 45  d8 8b 00 89 c0 48 01 d0  |.H.P.H.E.....H..|
00004700  48 8b 55 d8 8b 12 8d 4a  08 48 8b 55 d8 89 0a eb  |H.U....J.H.U....|
00004710  14 48 8b 45 d8 48 8b 40  08 48 8d 48 08 48 8b 55  |.H.E.H.@.H.H.H.U|
00004720  d8 48 89 4a 08 48 8b 00  48 8b 4d e8 ba 0a 00 00  |.H.J.H..H.M.....|
00004730  00 48 89 ce 48 89 c7 48  b8 da 4c be be 00 00 00  |.H..H..H..L.....|
00004740  00 ff d0 48 89 45 e8 e9  3e 01 00 00 48 8b 45 d8  |...H.E..>...H.E.|
00004750  8b 00 83 f8 2f 77 24 48  8b 45 d8 48 8b 50 10 48  |..../w$H.E.H.P.H|
00004760  8b 45 d8 8b 00 89 c0 48  01 d0 48 8b 55 d8 8b 12  |.E.....H..H.U...|
00004770  8d 4a 08 48 8b 55 d8 89  0a eb 14 48 8b 45 d8 48  |.J.H.U.....H.E.H|
00004780  8b 40 08 48 8d 48 08 48  8b 55 d8 48 89 4a 08 48  |.@.H.H.H.U.H.J.H|
00004790  8b 00 48 8b 4d e8 ba 0a  00 00 00 48 89 ce 48 89  |..H.M......H..H.|
000047a0  c7 48 b8 f1 4d be be 00  00 00 00 ff d0 48 89 45  |.H..M........H.E|
000047b0  e8 e9 d4 00 00 00 48 8b  45 d8 8b 00 83 f8 2f 77  |......H.E...../w|
000047c0  24 48 8b 45 d8 48 8b 50  10 48 8b 45 d8 8b 00 89  |$H.E.H.P.H.E....|
000047d0  c0 48 01 d0 48 8b 55 d8  8b 12 8d 4a 08 48 8b 55  |.H..H.U....J.H.U|
000047e0  d8 89 0a eb 14 48 8b 45  d8 48 8b 40 08 48 8d 48  |.....H.E.H.@.H.H|
000047f0  08 48 8b 55 d8 48 89 4a  08 48 8b 00 48 8b 4d e8  |.H.U.H.J.H..H.M.|
00004800  ba 10 00 00 00 48 89 ce  48 89 c7 48 b8 f1 4d be  |.....H..H..H..M.|
00004810  be 00 00 00 00 ff d0 48  89 45 e8 eb 6d 48 8b 55  |.......H.E..mH.U|
00004820  d8 48 8b 4d e0 48 8b 45  e8 48 89 ce 48 89 c7 48  |.H.M.H.E.H..H..H|
00004830  b8 02 42 be be 00 00 00  00 ff d0 48 89 45 e8 eb  |..B........H.E..|
00004840  49 48 8b 55 d8 48 8b 4d  e0 48 8b 45 e8 48 89 ce  |IH.U.H.M.H.E.H..|
00004850  48 89 c7 48 b8 02 42 be  be 00 00 00 00 ff d0 48  |H..H..B........H|
00004860  89 45 e8 eb 25 48 8b 55  d8 48 8b 4d e0 48 8b 45  |.E..%H.U.H.M.H.E|
00004870  e8 48 89 ce 48 89 c7 48  b8 02 42 be be 00 00 00  |.H..H..H..B.....|
00004880  00 ff d0 48 89 45 e8 eb  01 90 48 8b 45 e8 c9 c3  |...H.E....H.E...|
00004890  55 48 89 e5 48 83 ec 10  48 89 7d f8 48 89 75 f0  |UH..H...H.}.H.u.|
000048a0  48 b8 a0 67 be be 00 00  00 00 48 8b 00 48 8b 55  |H..g......H..H.U|
000048b0  f0 48 8b 4d f8 48 89 ce  48 89 c7 48 b8 c9 48 be  |.H.M.H..H..H..H.|
000048c0  be 00 00 00 00 ff d0 c9  c3 55 48 89 e5 48 83 ec  |.........UH..H..|
000048d0  30 48 89 7d e8 48 89 75  e0 48 89 55 d8 48 8b 45  |0H.}.H.u.H.U.H.E|
000048e0  e8 48 05 b0 00 00 00 48  89 45 f8 48 8b 45 f8 48  |.H.....H.E.H.E.H|
000048f0  8b 40 20 48 8b 55 d8 48  8b 4d e0 48 89 ce 48 89  |.@ H.U.H.M.H..H.|
00004900  c7 48 b8 4c 49 be be 00  00 00 00 ff d0 89 45 f4  |.H.LI.........E.|
00004910  48 8b 45 f8 48 8b 50 20  8b 45 f4 48 98 48 01 c2  |H.E.H.P .E.H.H..|
00004920  48 8b 45 f8 48 89 50 20  48 8b 45 f8 48 89 c7 48  |H.E.H.P H.E.H..H|
00004930  b8 0e 33 be be 00 00 00  00 ff d0 48 b8 72 37 be  |..3........H.r7.|
00004940  be 00 00 00 00 ff d0 8b  45 f4 c9 c3 55 48 89 e5  |........E...UH..|
00004950  48 83 ec 30 48 89 7d e8  48 89 75 e0 48 89 55 d8  |H..0H.}.H.u.H.U.|
00004960  48 8b 45 e8 48 89 45 f8  eb 50 48 8b 45 e0 0f b6  |H.E.H.E..PH.E...|
00004970  00 3c 25 75 24 48 8b 55  d8 48 8d 4d e0 48 8b 45  |.<%u$H.U.H.M.H.E|
00004980  e8 48 89 ce 48 89 c7 48  b8 67 43 be be 00 00 00  |.H..H..H.gC.....|
00004990  00 ff d0 48 89 45 e8 eb  15 48 8b 45 e0 0f b6 10  |...H.E...H.E....|
000049a0  48 8b 45 e8 48 8d 48 01  48 89 4d e8 88 10 48 8b  |H.E.H.H.H.M...H.|
000049b0  45 e0 48 83 c0 01 48 89  45 e0 48 8b 45 e0 0f b6  |E.H...H.E.H.E...|
000049c0  00 84 c0 75 a5 48 8b 45  e8 48 2b 45 f8 c9 c3 55  |...u.H.E.H+E...U|
000049d0  48 89 e5 48 81 ec e0 00  00 00 48 89 bd 28 ff ff  |H..H......H..(..|
000049e0  ff 48 89 b5 58 ff ff ff  48 89 95 60 ff ff ff 48  |.H..X...H..`...H|
000049f0  89 8d 68 ff ff ff 4c 89  85 70 ff ff ff 4c 89 8d  |..h...L..p...L..|
00004a00  78 ff ff ff 84 c0 74 20  0f 29 45 80 0f 29 4d 90  |x.....t .)E..)M.|
00004a10  0f 29 55 a0 0f 29 5d b0  0f 29 65 c0 0f 29 6d d0  |.)U..)]..)e..)m.|
00004a20  0f 29 75 e0 0f 29 7d f0  c7 85 30 ff ff ff 08 00  |.)u..)}...0.....|
00004a30  00 00 c7 85 34 ff ff ff  30 00 00 00 48 8d 45 10  |....4...0...H.E.|
00004a40  48 89 85 38 ff ff ff 48  8d 85 50 ff ff ff 48 89  |H..8...H..P...H.|
00004a50  85 40 ff ff ff 48 8d 95  30 ff ff ff 48 8b 85 28  |.@...H..0...H..(|
00004a60  ff ff ff 48 89 d6 48 89  c7 48 b8 90 48 be be 00  |...H..H..H..H...|
00004a70  00 00 00 ff d0 89 85 4c  ff ff ff 8b 85 4c ff ff  |.......L.....L..|
00004a80  ff c9 c3 55 48 89 e5 48  81 ec e0 00 00 00 48 89  |...UH..H......H.|
00004a90  bd 28 ff ff ff 48 89 b5  20 ff ff ff 48 89 95 60  |.(...H.. ...H..`|
00004aa0  ff ff ff 48 89 8d 68 ff  ff ff 4c 89 85 70 ff ff  |...H..h...L..p..|
00004ab0  ff 4c 89 8d 78 ff ff ff  84 c0 74 20 0f 29 45 80  |.L..x.....t .)E.|
00004ac0  0f 29 4d 90 0f 29 55 a0  0f 29 5d b0 0f 29 65 c0  |.)M..)U..)]..)e.|
00004ad0  0f 29 6d d0 0f 29 75 e0  0f 29 7d f0 c7 85 30 ff  |.)m..)u..)}...0.|
00004ae0  ff ff 10 00 00 00 c7 85  34 ff ff ff 30 00 00 00  |........4...0...|
00004af0  48 8d 45 10 48 89 85 38  ff ff ff 48 8d 85 50 ff  |H.E.H..8...H..P.|
00004b00  ff ff 48 89 85 40 ff ff  ff 48 8d 95 30 ff ff ff  |..H..@...H..0...|
00004b10  48 8b 8d 20 ff ff ff 48  8b 85 28 ff ff ff 48 89  |H.. ...H..(...H.|
00004b20  ce 48 89 c7 48 b8 c9 48  be be 00 00 00 00 ff d0  |.H..H..H........|
00004b30  89 85 4c ff ff ff 8b 85  4c ff ff ff c9 c3 55 48  |..L.....L.....UH|
00004b40  89 e5 48 81 ec e0 00 00  00 48 89 bd 28 ff ff ff  |..H......H..(...|
00004b50  48 89 b5 20 ff ff ff 48  89 95 60 ff ff ff 48 89  |H.. ...H..`...H.|
00004b60  8d 68 ff ff ff 4c 89 85  70 ff ff ff 4c 89 8d 78  |.h...L..p...L..x|
00004b70  ff ff ff 84 c0 74 20 0f  29 45 80 0f 29 4d 90 0f  |.....t .)E..)M..|
00004b80  29 55 a0 0f 29 5d b0 0f  29 65 c0 0f 29 6d d0 0f  |)U..)]..)e..)m..|
00004b90  29 75 e0 0f 29 7d f0 c7  85 30 ff ff ff 10 00 00  |)u..)}...0......|
00004ba0  00 c7 85 34 ff ff ff 30  00 00 00 48 8d 45 10 48  |...4...0...H.E.H|
00004bb0  89 85 38 ff ff ff 48 8d  85 50 ff ff ff 48 89 85  |..8...H..P...H..|
00004bc0  40 ff ff ff 48 8d 95 30  ff ff ff 48 8b 8d 20 ff  |@...H..0...H.. .|
00004bd0  ff ff 48 8b 85 28 ff ff  ff 48 89 ce 48 89 c7 48  |..H..(...H..H..H|
00004be0  b8 4c 49 be be 00 00 00  00 ff d0 89 85 4c ff ff  |.LI..........L..|
00004bf0  ff 8b 85 4c ff ff ff c9  c3 55 48 89 e5 48 83 ec  |...L.....UH..H..|
00004c00  10 48 89 7d f8 48 b8 c0  67 be be 00 00 00 00 48  |.H.}.H..g......H|
00004c10  89 c6 b8 00 00 00 00 ba  0c 00 00 00 48 89 f7 48  |............H..H|
00004c20  89 d1 f3 48 ab 48 b8 c0  67 be be 00 00 00 00 c7  |...H.H..g.......|
00004c30  00 09 00 00 00 48 ba c0  67 be be 00 00 00 00 48  |.....H..g......H|
00004c40  8b 45 f8 48 89 42 08 48  b8 c0 67 be be 00 00 00  |.E.H.B.H..g.....|
00004c50  00 48 89 c7 48 b8 00 37  be be 00 00 00 00 ff d0  |.H..H..7........|
00004c60  48 b8 c0 67 be be 00 00  00 00 48 8b 40 50 c9 c3  |H..g......H.@P..|
00004c70  55 48 89 e5 48 83 ec 10  48 89 7d f8 48 b8 c0 67  |UH..H...H.}.H..g|
00004c80  be be 00 00 00 00 48 89  c6 b8 00 00 00 00 ba 0c  |......H.........|
00004c90  00 00 00 48 89 f7 48 89  d1 f3 48 ab 48 b8 c0 67  |...H..H...H.H..g|
00004ca0  be be 00 00 00 00 c7 00  0a 00 00 00 48 ba c0 67  |............H..g|
00004cb0  be be 00 00 00 00 48 8b  45 f8 48 89 42 50 48 b8  |......H.E.H.BPH.|
00004cc0  c0 67 be be 00 00 00 00  48 89 c7 48 b8 00 37 be  |.g......H..H..7.|
00004cd0  be 00 00 00 00 ff d0 90  c9 c3 55 48 89 e5 48 83  |..........UH..H.|
00004ce0  ec 70 48 89 7d a8 48 89  75 a0 89 55 9c 48 8d 45  |.pH.}.H.u..U.H.E|
00004cf0  b0 48 89 45 f8 83 7d 9c  0a 75 0e 48 83 7d a8 00  |.H.E..}..u.H.}..|
00004d00  79 07 b8 01 00 00 00 eb  05 b8 00 00 00 00 0f b6  |y...............|
00004d10  c0 48 89 45 e8 48 83 7d  e8 00 74 08 48 8b 45 a8  |.H.E.H.}..t.H.E.|
00004d20  f7 d8 eb 04 48 8b 45 a8  89 45 f4 eb 5e 8b 75 9c  |....H.E..E..^.u.|
00004d30  8b 45 f4 ba 00 00 00 00  f7 f6 89 d1 89 c8 89 c0  |.E..............|
00004d40  48 89 45 d8 8b 7d 9c 8b  45 f4 ba 00 00 00 00 f7  |H.E..}..E.......|
00004d50  f7 89 45 f4 48 83 7d d8  09 7f 19 48 8b 45 d8 83  |..E.H.}....H.E..|
00004d60  c0 30 89 c1 48 8b 45 f8  48 8d 50 01 48 89 55 f8  |.0..H.E.H.P.H.U.|
00004d70  88 08 eb 17 48 8b 45 d8  83 c0 57 89 c1 48 8b 45  |....H.E...W..H.E|
00004d80  f8 48 8d 50 01 48 89 55  f8 88 08 83 7d f4 00 75  |.H.P.H.U....}..u|
00004d90  9c 48 8d 45 b0 48 39 45  f8 74 92 48 8d 45 b0 48  |.H.E.H9E.t.H.E.H|
00004da0  8b 55 f8 48 29 c2 48 89  55 e0 48 83 7d e8 00 74  |.U.H).H.U.H.}..t|
00004db0  30 48 8b 45 a0 48 8d 50  01 48 89 55 a0 c6 00 2d  |0H.E.H.P.H.U...-|
00004dc0  48 83 45 e0 01 eb 1a 48  83 6d f8 01 48 8b 45 f8  |H.E....H.m..H.E.|
00004dd0  0f b6 10 48 8b 45 a0 48  8d 48 01 48 89 4d a0 88  |...H.E.H.H.H.M..|
00004de0  10 48 8d 45 b0 48 3b 45  f8 72 dc 48 8b 45 a0 c9  |.H.E.H;E.r.H.E..|
00004df0  c3 55 48 89 e5 48 83 ec  60 48 89 7d b8 48 89 75  |.UH..H..`H.}.H.u|
00004e00  b0 89 55 ac 48 8d 45 c0  48 89 45 f8 48 8b 45 b8  |..U.H.E.H.E.H.E.|
00004e10  48 89 45 f0 eb 63 8b 45  ac 48 63 c8 48 8b 45 f0  |H.E..c.E.Hc.H.E.|
00004e20  ba 00 00 00 00 48 f7 f1  48 89 55 e8 8b 45 ac 48  |.....H..H.U..E.H|
00004e30  63 f0 48 8b 45 f0 ba 00  00 00 00 48 f7 f6 48 89  |c.H.E......H..H.|
00004e40  45 f0 48 83 7d e8 09 77  19 48 8b 45 e8 83 c0 30  |E.H.}..w.H.E...0|
00004e50  89 c1 48 8b 45 f8 48 8d  50 01 48 89 55 f8 88 08  |..H.E.H.P.H.U...|
00004e60  eb 17 48 8b 45 e8 83 c0  37 89 c1 48 8b 45 f8 48  |..H.E...7..H.E.H|
00004e70  8d 50 01 48 89 55 f8 88  08 48 83 7d f0 00 75 96  |.P.H.U...H.}..u.|
00004e80  48 8d 45 c0 48 39 45 f8  74 8c eb 1a 48 83 6d f8  |H.E.H9E.t...H.m.|
00004e90  01 48 8b 45 f8 0f b6 10  48 8b 45 b0 48 8d 48 01  |.H.E....H.E.H.H.|
00004ea0  48 89 4d b0 88 10 48 8d  45 c0 48 3b 45 f8 72 dc  |H.M...H.E.H;E.r.|
00004eb0  48 8b 45 b0 c9 c3 55 48  89 e5 48 83 ec 50 89 7d  |H.E...UH..H..P.}|
00004ec0  bc 48 89 75 b0 89 55 b8  48 8d 45 c0 48 89 45 f8  |.H.u..U.H.E.H.E.|
00004ed0  83 7d b8 0a 75 0d 83 7d  bc 00 79 07 b8 01 00 00  |.}..u..}..y.....|
00004ee0  00 eb 05 b8 00 00 00 00  0f b6 c0 89 45 f0 83 7d  |............E..}|
00004ef0  f0 00 74 07 8b 45 bc f7  d8 eb 03 8b 45 bc 89 45  |..t..E......E..E|
00004f00  f4 eb 58 8b 75 b8 8b 45  f4 ba 00 00 00 00 f7 f6  |..X.u..E........|
00004f10  89 d1 89 c8 89 45 e8 8b  7d b8 8b 45 f4 ba 00 00  |.....E..}..E....|
00004f20  00 00 f7 f7 89 45 f4 83  7d e8 09 7f 18 8b 45 e8  |.....E..}.....E.|
00004f30  83 c0 30 89 c1 48 8b 45  f8 48 8d 50 01 48 89 55  |..0..H.E.H.P.H.U|
00004f40  f8 88 08 eb 16 8b 45 e8  83 c0 57 89 c1 48 8b 45  |......E...W..H.E|
00004f50  f8 48 8d 50 01 48 89 55  f8 88 08 83 7d f4 00 75  |.H.P.H.U....}..u|
00004f60  a2 48 8d 45 c0 48 39 45  f8 74 98 48 8d 45 c0 48  |.H.E.H9E.t.H.E.H|
00004f70  8b 55 f8 48 29 c2 89 55  ec 83 7d f0 00 74 2f 48  |.U.H)..U..}..t/H|
00004f80  8b 45 b0 48 8d 50 01 48  89 55 b0 c6 00 2d 83 45  |.E.H.P.H.U...-.E|
00004f90  ec 01 eb 1a 48 83 6d f8  01 48 8b 45 f8 0f b6 10  |....H.m..H.E....|
00004fa0  48 8b 45 b0 48 8d 48 01  48 89 4d b0 88 10 48 8d  |H.E.H.H.H.M...H.|
00004fb0  45 c0 48 3b 45 f8 72 dc  48 8b 45 b0 c9 c3 55 48  |E.H;E.r.H.E...UH|
00004fc0  89 e5 48 83 ec 10 89 7d  fc 48 89 75 f0 89 55 f8  |..H....}.H.u..U.|
00004fd0  8b 45 fc 8b 55 f8 48 8b  4d f0 48 89 ce 48 89 c7  |.E..U.H.M.H..H..|
00004fe0  48 b8 f1 4d be be 00 00  00 00 ff d0 c9 c3 55 48  |H..M..........UH|
00004ff0  89 e5 48 83 c4 80 48 89  7d 98 48 89 75 90 89 55  |..H...H.}.H.u..U|
00005000  8c 48 8b 45 98 48 89 45  f0 48 8b 45 90 48 89 45  |.H.E.H.E.H.E.H.E|
00005010  e8 c7 45 fc 00 00 00 00  eb 52 8b 45 fc 48 8d 14  |..E......R.E.H..|
00005020  85 00 00 00 00 48 8b 45  e8 48 01 d0 48 89 45 a8  |.....H.E.H..H.E.|
00005030  48 8b 45 a8 f3 0f 6f 00  0f 29 45 d0 8b 45 fc 48  |H.E...o..)E..E.H|
00005040  8d 14 85 00 00 00 00 48  8b 45 f0 48 01 d0 48 89  |.......H.E.H..H.|
00005050  45 c8 66 0f 6f 45 d0 0f  29 45 b0 66 0f 6f 45 b0  |E.f.oE..)E.f.oE.|
00005060  48 8b 45 c8 0f 11 00 90  83 45 fc 04 8b 45 fc 3b  |H.E......E...E.;|
00005070  45 8c 72 a6 8b 45 8c 83  e0 03 89 45 e4 8b 45 8c  |E.r..E.....E..E.|
00005080  2b 45 e4 89 45 f8 eb 2c  8b 45 f8 48 8d 14 85 00  |+E..E..,.E.H....|
00005090  00 00 00 48 8b 45 e8 48  01 d0 8b 55 f8 48 8d 0c  |...H.E.H...U.H..|
000050a0  95 00 00 00 00 48 8b 55  f0 48 01 ca 8b 00 89 02  |.....H.U.H......|
000050b0  83 45 f8 01 8b 45 f8 3b  45 8c 72 cc 90 90 c9 c3  |.E...E.;E.r.....|
000050c0  55 48 89 e5 48 83 ec 38  48 89 7d d8 48 89 75 d0  |UH..H..8H.}.H.u.|
000050d0  48 89 55 c8 48 8b 45 d8  48 89 45 f0 48 8b 45 d0  |H.U.H.E.H.E.H.E.|
000050e0  48 89 45 e8 48 c7 45 f8  00 00 00 00 eb 20 48 8b  |H.E.H.E...... H.|
000050f0  55 e8 48 8b 45 f8 48 01  d0 48 8b 4d f0 48 8b 55  |U.H.E.H..H.M.H.U|
00005100  f8 48 01 ca 0f b6 00 88  02 48 83 45 f8 01 48 8b  |.H.......H.E..H.|
00005110  45 f8 48 3b 45 c8 72 d6  48 8b 55 f0 48 8b 45 c8  |E.H;E.r.H.U.H.E.|
00005120  48 01 d0 c9 c3 55 48 89  e5 48 83 ec 18 48 89 7d  |H....UH..H...H.}|
00005130  f8 48 89 75 f0 48 89 55  e8 48 8b 55 e8 48 8b 4d  |.H.u.H.U.H.U.H.M|
00005140  f0 48 8b 45 f8 48 89 ce  48 89 c7 48 b8 c0 50 be  |.H.E.H..H..H..P.|
00005150  be 00 00 00 00 ff d0 48  89 45 f8 48 8b 45 f8 c9  |.......H.E.H.E..|
00005160  c3 55 48 89 e5 48 83 ec  60 48 89 7d a8 89 75 a4  |.UH..H..`H.}..u.|
00005170  89 55 a0 48 8b 45 a8 48  89 45 f0 8b 45 a4 89 45  |.U.H.E.H.E..E..E|
00005180  d8 8b 45 d8 89 45 d4 8b  45 d8 89 45 d0 8b 45 d8  |..E..E..E..E..E.|
00005190  89 45 cc 8b 45 d8 89 45  c8 66 0f 6e 45 d4 66 0f  |.E..E..E.f.nE.f.|
000051a0  6e 4d d0 66 0f 6f d1 66  0f 62 d0 66 0f 6e 4d cc  |nM.f.o.f.b.f.nM.|
000051b0  66 0f 6e 45 c8 66 0f 62  c1 66 0f 6c c2 90 0f 29  |f.nE.f.b.f.l...)|
000051c0  45 e0 8b 45 a0 83 e0 03  89 45 dc c7 45 fc 00 00  |E..E.....E..E...|
000051d0  00 00 eb 30 8b 45 fc 48  8d 14 85 00 00 00 00 48  |...0.E.H.......H|
000051e0  8b 45 f0 48 01 d0 48 89  45 c0 66 0f 6f 45 e0 0f  |.E.H..H.E.f.oE..|
000051f0  29 45 b0 66 0f 6f 45 b0  48 8b 45 c0 0f 11 00 90  |)E.f.oE.H.E.....|
00005200  83 45 fc 04 8b 45 fc 3b  45 a0 72 c8 8b 45 a0 2b  |.E...E.;E.r..E.+|
00005210  45 dc 89 45 f8 eb 1b 8b  45 f8 48 8d 14 85 00 00  |E..E....E.H.....|
00005220  00 00 48 8b 45 f0 48 01  c2 8b 45 a4 89 02 83 45  |..H.E.H...E....E|
00005230  f8 01 8b 45 f8 3b 45 a0  72 dd 90 90 c9 c3 55 48  |...E.;E.r.....UH|
00005240  89 e5 48 83 ec 28 48 89  7d e8 89 f0 48 89 55 d8  |..H..(H.}...H.U.|
00005250  88 45 e4 48 c7 45 f8 00  00 00 00 eb 16 48 8b 55  |.E.H.E.......H.U|
00005260  e8 48 8b 45 f8 48 01 c2  0f b6 45 e4 88 02 48 83  |.H.E.H....E...H.|
00005270  45 f8 01 48 8b 45 f8 48  3b 45 d8 72 e0 48 8b 45  |E..H.E.H;E.r.H.E|
00005280  e8 c9 c3 55 48 89 e5 48  83 ec 28 48 89 7d e8 89  |...UH..H..(H.}..|
00005290  f0 48 89 55 d8 88 45 e4  48 8b 45 e8 48 89 45 f0  |.H.U..E.H.E.H.E.|
000052a0  48 c7 45 f8 00 00 00 00  eb 16 48 8b 55 f0 48 8b  |H.E.......H.U.H.|
000052b0  45 f8 48 01 c2 0f b6 45  e4 88 02 48 83 45 f8 01  |E.H....E...H.E..|
000052c0  48 8b 45 f8 48 3b 45 d8  72 e0 48 8b 45 f0 c9 c3  |H.E.H;E.r.H.E...|
000052d0  55 48 89 e5 48 83 ec 10  48 89 7d f8 48 89 75 f0  |UH..H...H.}.H.u.|
000052e0  eb 0a 48 83 45 f8 01 48  83 45 f0 01 48 8b 45 f8  |..H.E..H.E..H.E.|
000052f0  0f b6 00 84 c0 74 12 48  8b 45 f8 0f b6 10 48 8b  |.....t.H.E....H.|
00005300  45 f0 0f b6 00 38 c2 74  d9 48 8b 45 f8 0f b6 00  |E....8.t.H.E....|
00005310  0f b6 d0 48 8b 45 f0 0f  b6 00 0f b6 c0 29 c2 89  |...H.E.......)..|
00005320  d0 c9 c3 55 48 89 e5 48  83 ec 18 48 89 7d f8 48  |...UH..H...H.}.H|
00005330  89 75 f0 48 89 55 e8 eb  0f 48 83 45 f8 01 48 83  |.u.H.U...H.E..H.|
00005340  45 f0 01 48 83 6d e8 01  48 83 7d e8 00 74 1d 48  |E..H.m..H.}..t.H|
00005350  8b 45 f8 0f b6 00 84 c0  74 12 48 8b 45 f8 0f b6  |.E......t.H.E...|
00005360  10 48 8b 45 f0 0f b6 00  38 c2 74 cd 48 83 7d e8  |.H.E....8.t.H.}.|
00005370  00 75 07 ba 00 00 00 00  eb 16 48 8b 45 f8 0f b6  |.u........H.E...|
00005380  00 0f b6 d0 48 8b 45 f0  0f b6 00 0f b6 c0 29 c2  |....H.E.......).|
00005390  89 d0 c9 c3 55 48 89 e5  48 83 ec 10 48 89 7d f8  |....UH..H...H.}.|
000053a0  48 89 75 f0 eb 1d 48 8b  45 f0 48 8d 50 01 48 89  |H.u...H.E.H.P.H.|
000053b0  55 f0 0f b6 10 48 8b 45  f8 48 8d 48 01 48 89 4d  |U....H.E.H.H.H.M|
000053c0  f8 88 10 48 8b 45 f0 0f  b6 00 84 c0 75 d8 48 8b  |...H.E......u.H.|
000053d0  45 f8 c6 00 00 48 8b 45  f8 c9 c3 55 48 89 e5 48  |E....H.E...UH..H|
000053e0  83 ec 28 48 89 7d e8 48  89 75 e0 48 89 55 d8 48  |..(H.}.H.u.H.U.H|
000053f0  c7 45 f8 00 00 00 00 eb  22 48 8b 45 e0 48 8d 50  |.E......"H.E.H.P|
00005400  01 48 89 55 e0 0f b6 10  48 8b 45 e8 48 8d 48 01  |.H.U....H.E.H.H.|
00005410  48 89 4d e8 88 10 48 83  45 f8 01 48 8b 45 e0 0f  |H.M...H.E..H.E..|
00005420  b6 00 84 c0 74 0a 48 8b  45 f8 48 3b 45 d8 72 c9  |....t.H.E.H;E.r.|
00005430  48 8b 45 e8 c6 00 00 48  8b 45 e8 c9 c3 55 48 89  |H.E....H.E...UH.|
00005440  e5 48 83 ec 18 48 89 7d  e8 48 8b 45 e8 48 89 45  |.H...H.}.H.E.H.E|
00005450  f0 48 8b 45 e8 48 89 45  f8 eb 05 48 83 45 f8 01  |.H.E.H.E...H.E..|
00005460  48 8b 45 f8 0f b6 00 84  c0 75 f0 48 8b 45 f8 48  |H.E......u.H.E.H|
00005470  2b 45 f0 c9 c3 66 2e 0f  1f 84 00 00 00 00 00 90  |+E...f..........|
00005480  cd 63 c3 55 48 89 e5 48  83 ec 10 48 89 7d f8 48  |.c.UH..H...H.}.H|
00005490  8b 45 f8 48 89 c7 48 b8  f9 4b be be 00 00 00 00  |.E.H..H..K......|
000054a0  ff d0 c9 c3 55 48 89 e5  48 83 ec 10 48 89 7d f8  |....UH..H...H.}.|
000054b0  48 8b 45 f8 48 89 c7 48  b8 f9 4b be be 00 00 00  |H.E.H..H..K.....|
000054c0  00 ff d0 c9 c3 55 48 89  e5 48 83 ec 10 48 89 7d  |.....UH..H...H.}|
000054d0  f8 48 8b 45 f8 48 89 c7  48 b8 70 4c be be 00 00  |.H.E.H..H.pL....|
000054e0  00 00 ff d0 90 c9 c3 55  48 89 e5 48 83 ec 10 48  |.......UH..H...H|
000054f0  89 7d f8 48 89 75 f0 48  8b 45 f8 48 89 c7 48 b8  |.}.H.u.H.E.H..H.|
00005500  70 4c be be 00 00 00 00  ff d0 90 c9 c3 55 48 89  |pL...........UH.|
00005510  e5 48 83 ec 10 48 89 7d  f8 48 8b 45 f8 48 89 c7  |.H...H.}.H.E.H..|
00005520  48 b8 70 4c be be 00 00  00 00 ff d0 90 c9 c3 55  |H.pL...........U|
00005530  48 89 e5 48 83 ec 10 48  89 7d f8 48 89 75 f0 48  |H..H...H.}.H.u.H|
00005540  8b 45 f8 48 89 c7 48 b8  70 4c be be 00 00 00 00  |.E.H..H.pL......|
00005550  ff d0 90 c9 c3 00 00 00  00 00 00 00 00 00 00 00  |................|
00005560  72 65 73 2e 78 3a 20 25  64 0a 00 00 00 00 00 00  |res.x: %d.......|
00005570  00 04 00 00 00 00 00 00  00 00 10 00 00 00 00 00  |................|
00005580  00 00 00 40 00 00 00 00  62 75 64 64 79 5f 61 6c  |...@....buddy_al|
00005590  6c 6f 63 61 74 6f 72 3a  3a 62 75 64 64 79 5f 61  |locator::buddy_a|
000055a0  6c 6c 6f 63 61 74 6f 72  00 6d 5f 73 69 7a 65 3a  |llocator.m_size:|
000055b0  20 25 6c 75 42 00 20 20  20 20 20 20 20 20 25 6c  | %luB.        %l|
000055c0  75 4b 42 00 20 20 20 20  20 20 20 20 25 6c 75 4d  |uKB.        %luM|
000055d0  42 00 62 61 73 65 3a 20  20 20 30 78 25 6c 78 00  |B.base:   0x%lx.|
000055e0  65 6e 64 3a 20 20 20 20  30 78 25 6c 78 00 73 7a  |end:    0x%lx.sz|
000055f0  3a 20 20 20 20 20 25 6c  75 00 74 61 69 6c 3a 20  |:     %lu.tail: |
00005600  20 20 30 78 25 6c 78 00  f8 03 f8 02 e8 03 e8 02  |  0x%lx.........|
00005610  f8 05 f8 04 e8 05 e8 04  5b 25 73 5d 00 7b 00 7d  |........[%s].{.}|
00005620  00 25 73 2f 00 25 73 00  2f 00 00 2f 00 72 6f 6f  |.%s/.%s./../.roo|
00005630  74 00 25 73 2f 00 25 73  00 00 00 00 00 00 00 00  |t.%s/.%s........|
00005640  00 00 00 00 00 00 00 00  00 00 00 00 00 00 00 00  |................|
00005650  28 25 be be 00 00 00 00  00 00 00 00 00 00 00 00  |(%..............|
00005660  00 00 00 00 00 00 00 00  fa 23 be be 00 00 00 00  |.........#......|
00005670  00 00 00 00 00 00 00 00  00 00 00 00 00 00 00 00  |................|
00005680  80 02 be be 00 00 00 00  00 04 00 00 00 00 00 00  |................|
00005690  00 00 10 00 00 00 00 00  00 00 00 40 00 00 00 00  |...........@....|
000056a0  66 69 6c 65 73 79 73 74  65 6d 3a 3a 70 61 74 68  |filesystem::path|
000056b0  3a 3a 70 61 74 68 00 69  6e 70 75 74 3a 20 22 25  |::path.input: "%|
000056c0  73 22 00 64 69 72 3a 20  20 22 25 73 22 00 6e 61  |s".dir:  "%s".na|
000056d0  6d 65 3a 20 22 25 73 22  00 65 78 74 3a 20 20 22  |me: "%s".ext:  "|
000056e0  25 73 22 00 00 00 00 00  69 64 6c 65 0a 00 5b 6b  |%s".....idle..[k|
000056f0  74 68 72 65 61 64 3a 3a  77 72 61 70 70 65 72 5d  |thread::wrapper]|
00005700  20 66 69 6e 69 73 68 65  64 0a 00 6e 65 78 74 20  | finished..next |
00005710  3d 3d 20 6e 75 6c 6c 70  74 72 00 70 72 65 76 20  |== nullptr.prev |
00005720  3d 3d 20 6e 75 6c 6c 70  74 72 00 00 00 00 00 00  |== nullptr......|
00005730  5b 6b 74 68 72 65 61 64  3a 3a 74 65 64 5f 62 75  |[kthread::ted_bu|
00005740  6e 64 79 5d 20 72 65 6d  6f 76 69 6e 67 20 70 72  |ndy] removing pr|
00005750  6f 63 65 73 73 20 25 64  0a 00 5b 6b 74 68 72 65  |ocess %d..[kthre|
00005760  61 64 3a 3a 7e 6b 74 68  72 65 61 64 5d 0a 00 2f  |ad::~kthread]../|
00005770  64 65 76 2f 73 74 64 6f  75 74 00 00 00 00 00 00  |dev/stdout......|
00005780  fa 43 be be 00 00 00 00  b9 44 be be 00 00 00 00  |.C.......D......|
00005790  5d 46 be be 00 00 00 00  39 46 be be 00 00 00 00  |]F......9F......|
000057a0  5d 46 be be 00 00 00 00  5d 46 be be 00 00 00 00  |]F......]F......|
*
000057c0  5d 46 be be 00 00 00 00  ee 43 be be 00 00 00 00  |]F.......C......|
000057d0  5d 46 be be 00 00 00 00  5d 46 be be 00 00 00 00  |]F......]F......|
*
00005800  54 44 be be 00 00 00 00  5d 46 be be 00 00 00 00  |TD......]F......|
00005810  21 45 be be 00 00 00 00  5d 46 be be 00 00 00 00  |!E......]F......|
00005820  5d 46 be be 00 00 00 00  89 45 be be 00 00 00 00  |]F.......E......|
00005830  00 00 00 00 00 00 f0 3f  00 00 00 00 00 00 00 00  |.......?........|
00005840  00 00 00 00 00 00 e0 43  00 00 00 00 00 00 24 40  |.......C......$@|
00005850  00 00 00 00 00 00 00 80  00 00 00 00 00 00 00 00  |................|
00005860  01 01 01 00 00 00 00 00  00 00 00 00 00 00 00 00  |................|
00005870  1c 1d be be 00 00 00 00  f9 2a be be 00 00 00 00  |.........*......|
00005880  e1 34 be be 00 00 00 00                           |.4......|
00005888
